Archive member included because of file (symbol)

c:/altera/13.0/nios2eds/bin/gnu/h-i686-mingw32/bin/../lib/gcc/nios2-elf/4.1.2/../../../../nios2-elf/lib\libc.a(lib_a-printf.o)
                              obj/default/hello_world.o (printf)
c:/altera/13.0/nios2eds/bin/gnu/h-i686-mingw32/bin/../lib/gcc/nios2-elf/4.1.2/../../../../nios2-elf/lib\libc.a(lib_a-vfprintf.o)
                              c:/altera/13.0/nios2eds/bin/gnu/h-i686-mingw32/bin/../lib/gcc/nios2-elf/4.1.2/../../../../nios2-elf/lib\libc.a(lib_a-printf.o) (___vfprintf_internal_r)
c:/altera/13.0/nios2eds/bin/gnu/h-i686-mingw32/bin/../lib/gcc/nios2-elf/4.1.2/../../../../nios2-elf/lib\libc.a(lib_a-wsetup.o)
                              c:/altera/13.0/nios2eds/bin/gnu/h-i686-mingw32/bin/../lib/gcc/nios2-elf/4.1.2/../../../../nios2-elf/lib\libc.a(lib_a-vfprintf.o) (__swsetup_r)
c:/altera/13.0/nios2eds/bin/gnu/h-i686-mingw32/bin/../lib/gcc/nios2-elf/4.1.2/../../../../nios2-elf/lib\libc.a(lib_a-dtoa.o)
                              c:/altera/13.0/nios2eds/bin/gnu/h-i686-mingw32/bin/../lib/gcc/nios2-elf/4.1.2/../../../../nios2-elf/lib\libc.a(lib_a-vfprintf.o) (_dtoa_r)
c:/altera/13.0/nios2eds/bin/gnu/h-i686-mingw32/bin/../lib/gcc/nios2-elf/4.1.2/../../../../nios2-elf/lib\libc.a(lib_a-fflush.o)
                              c:/altera/13.0/nios2eds/bin/gnu/h-i686-mingw32/bin/../lib/gcc/nios2-elf/4.1.2/../../../../nios2-elf/lib\libc.a(lib_a-vfprintf.o) (_fflush_r)
c:/altera/13.0/nios2eds/bin/gnu/h-i686-mingw32/bin/../lib/gcc/nios2-elf/4.1.2/../../../../nios2-elf/lib\libc.a(lib_a-findfp.o)
                              c:/altera/13.0/nios2eds/bin/gnu/h-i686-mingw32/bin/../lib/gcc/nios2-elf/4.1.2/../../../../nios2-elf/lib\libc.a(lib_a-vfprintf.o) (__sinit)
c:/altera/13.0/nios2eds/bin/gnu/h-i686-mingw32/bin/../lib/gcc/nios2-elf/4.1.2/../../../../nios2-elf/lib\libc.a(lib_a-freer.o)
                              c:/altera/13.0/nios2eds/bin/gnu/h-i686-mingw32/bin/../lib/gcc/nios2-elf/4.1.2/../../../../nios2-elf/lib\libc.a(lib_a-wsetup.o) (_free_r)
c:/altera/13.0/nios2eds/bin/gnu/h-i686-mingw32/bin/../lib/gcc/nios2-elf/4.1.2/../../../../nios2-elf/lib\libc.a(lib_a-fvwrite.o)
                              c:/altera/13.0/nios2eds/bin/gnu/h-i686-mingw32/bin/../lib/gcc/nios2-elf/4.1.2/../../../../nios2-elf/lib\libc.a(lib_a-vfprintf.o) (__sfvwrite_r)
c:/altera/13.0/nios2eds/bin/gnu/h-i686-mingw32/bin/../lib/gcc/nios2-elf/4.1.2/../../../../nios2-elf/lib\libc.a(lib_a-fwalk.o)
                              c:/altera/13.0/nios2eds/bin/gnu/h-i686-mingw32/bin/../lib/gcc/nios2-elf/4.1.2/../../../../nios2-elf/lib\libc.a(lib_a-fflush.o) (_fwalk_reent)
c:/altera/13.0/nios2eds/bin/gnu/h-i686-mingw32/bin/../lib/gcc/nios2-elf/4.1.2/../../../../nios2-elf/lib\libc.a(lib_a-impure.o)
                              c:/altera/13.0/nios2eds/bin/gnu/h-i686-mingw32/bin/../lib/gcc/nios2-elf/4.1.2/../../../../nios2-elf/lib\libc.a(lib_a-printf.o) (_impure_ptr)
c:/altera/13.0/nios2eds/bin/gnu/h-i686-mingw32/bin/../lib/gcc/nios2-elf/4.1.2/../../../../nios2-elf/lib\libc.a(lib_a-locale.o)
                              c:/altera/13.0/nios2eds/bin/gnu/h-i686-mingw32/bin/../lib/gcc/nios2-elf/4.1.2/../../../../nios2-elf/lib\libc.a(lib_a-vfprintf.o) (_localeconv_r)
c:/altera/13.0/nios2eds/bin/gnu/h-i686-mingw32/bin/../lib/gcc/nios2-elf/4.1.2/../../../../nios2-elf/lib\libc.a(lib_a-makebuf.o)
                              c:/altera/13.0/nios2eds/bin/gnu/h-i686-mingw32/bin/../lib/gcc/nios2-elf/4.1.2/../../../../nios2-elf/lib\libc.a(lib_a-wsetup.o) (__smakebuf_r)
c:/altera/13.0/nios2eds/bin/gnu/h-i686-mingw32/bin/../lib/gcc/nios2-elf/4.1.2/../../../../nios2-elf/lib\libc.a(lib_a-mallocr.o)
                              c:/altera/13.0/nios2eds/bin/gnu/h-i686-mingw32/bin/../lib/gcc/nios2-elf/4.1.2/../../../../nios2-elf/lib\libc.a(lib_a-findfp.o) (_malloc_r)
c:/altera/13.0/nios2eds/bin/gnu/h-i686-mingw32/bin/../lib/gcc/nios2-elf/4.1.2/../../../../nios2-elf/lib\libc.a(lib_a-memchr.o)
                              c:/altera/13.0/nios2eds/bin/gnu/h-i686-mingw32/bin/../lib/gcc/nios2-elf/4.1.2/../../../../nios2-elf/lib\libc.a(lib_a-vfprintf.o) (memchr)
c:/altera/13.0/nios2eds/bin/gnu/h-i686-mingw32/bin/../lib/gcc/nios2-elf/4.1.2/../../../../nios2-elf/lib\libc.a(lib_a-memcpy.o)
                              c:/altera/13.0/nios2eds/bin/gnu/h-i686-mingw32/bin/../lib/gcc/nios2-elf/4.1.2/../../../../nios2-elf/lib\libc.a(lib_a-dtoa.o) (memcpy)
c:/altera/13.0/nios2eds/bin/gnu/h-i686-mingw32/bin/../lib/gcc/nios2-elf/4.1.2/../../../../nios2-elf/lib\libc.a(lib_a-memmove.o)
                              c:/altera/13.0/nios2eds/bin/gnu/h-i686-mingw32/bin/../lib/gcc/nios2-elf/4.1.2/../../../../nios2-elf/lib\libc.a(lib_a-fvwrite.o) (memmove)
c:/altera/13.0/nios2eds/bin/gnu/h-i686-mingw32/bin/../lib/gcc/nios2-elf/4.1.2/../../../../nios2-elf/lib\libc.a(lib_a-memset.o)
                              c:/altera/13.0/nios2eds/bin/gnu/h-i686-mingw32/bin/../lib/gcc/nios2-elf/4.1.2/../../../../nios2-elf/lib\libc.a(lib_a-findfp.o) (memset)
c:/altera/13.0/nios2eds/bin/gnu/h-i686-mingw32/bin/../lib/gcc/nios2-elf/4.1.2/../../../../nios2-elf/lib\libc.a(lib_a-mprec.o)
                              c:/altera/13.0/nios2eds/bin/gnu/h-i686-mingw32/bin/../lib/gcc/nios2-elf/4.1.2/../../../../nios2-elf/lib\libc.a(lib_a-dtoa.o) (_Bfree)
c:/altera/13.0/nios2eds/bin/gnu/h-i686-mingw32/bin/../lib/gcc/nios2-elf/4.1.2/../../../../nios2-elf/lib\libc.a(lib_a-reallocr.o)
                              c:/altera/13.0/nios2eds/bin/gnu/h-i686-mingw32/bin/../lib/gcc/nios2-elf/4.1.2/../../../../nios2-elf/lib\libc.a(lib_a-fvwrite.o) (_realloc_r)
c:/altera/13.0/nios2eds/bin/gnu/h-i686-mingw32/bin/../lib/gcc/nios2-elf/4.1.2/../../../../nios2-elf/lib\libc.a(lib_a-s_isinfd.o)
                              c:/altera/13.0/nios2eds/bin/gnu/h-i686-mingw32/bin/../lib/gcc/nios2-elf/4.1.2/../../../../nios2-elf/lib\libc.a(lib_a-vfprintf.o) (__isinfd)
c:/altera/13.0/nios2eds/bin/gnu/h-i686-mingw32/bin/../lib/gcc/nios2-elf/4.1.2/../../../../nios2-elf/lib\libc.a(lib_a-s_isnand.o)
                              c:/altera/13.0/nios2eds/bin/gnu/h-i686-mingw32/bin/../lib/gcc/nios2-elf/4.1.2/../../../../nios2-elf/lib\libc.a(lib_a-vfprintf.o) (__isnand)
c:/altera/13.0/nios2eds/bin/gnu/h-i686-mingw32/bin/../lib/gcc/nios2-elf/4.1.2/../../../../nios2-elf/lib\libc.a(lib_a-sbrkr.o)
                              c:/altera/13.0/nios2eds/bin/gnu/h-i686-mingw32/bin/../lib/gcc/nios2-elf/4.1.2/../../../../nios2-elf/lib\libc.a(lib_a-freer.o) (_sbrk_r)
c:/altera/13.0/nios2eds/bin/gnu/h-i686-mingw32/bin/../lib/gcc/nios2-elf/4.1.2/../../../../nios2-elf/lib\libc.a(lib_a-stdio.o)
                              c:/altera/13.0/nios2eds/bin/gnu/h-i686-mingw32/bin/../lib/gcc/nios2-elf/4.1.2/../../../../nios2-elf/lib\libc.a(lib_a-findfp.o) (__sclose)
c:/altera/13.0/nios2eds/bin/gnu/h-i686-mingw32/bin/../lib/gcc/nios2-elf/4.1.2/../../../../nios2-elf/lib\libc.a(lib_a-strcmp.o)
                              c:/altera/13.0/nios2eds/bin/gnu/h-i686-mingw32/bin/../lib/gcc/nios2-elf/4.1.2/../../../../nios2-elf/lib\libc.a(lib_a-locale.o) (strcmp)
c:/altera/13.0/nios2eds/bin/gnu/h-i686-mingw32/bin/../lib/gcc/nios2-elf/4.1.2/../../../../nios2-elf/lib\libc.a(lib_a-strlen.o)
                              c:/altera/13.0/nios2eds/bin/gnu/h-i686-mingw32/bin/../lib/gcc/nios2-elf/4.1.2/../../../../nios2-elf/lib\libc.a(lib_a-vfprintf.o) (strlen)
c:/altera/13.0/nios2eds/bin/gnu/h-i686-mingw32/bin/../lib/gcc/nios2-elf/4.1.2/../../../../nios2-elf/lib\libc.a(lib_a-writer.o)
                              c:/altera/13.0/nios2eds/bin/gnu/h-i686-mingw32/bin/../lib/gcc/nios2-elf/4.1.2/../../../../nios2-elf/lib\libc.a(lib_a-stdio.o) (_write_r)
c:/altera/13.0/nios2eds/bin/gnu/h-i686-mingw32/bin/../lib/gcc/nios2-elf/4.1.2/../../../../nios2-elf/lib\libc.a(lib_a-callocr.o)
                              c:/altera/13.0/nios2eds/bin/gnu/h-i686-mingw32/bin/../lib/gcc/nios2-elf/4.1.2/../../../../nios2-elf/lib\libc.a(lib_a-mprec.o) (_calloc_r)
c:/altera/13.0/nios2eds/bin/gnu/h-i686-mingw32/bin/../lib/gcc/nios2-elf/4.1.2/../../../../nios2-elf/lib\libc.a(lib_a-closer.o)
                              c:/altera/13.0/nios2eds/bin/gnu/h-i686-mingw32/bin/../lib/gcc/nios2-elf/4.1.2/../../../../nios2-elf/lib\libc.a(lib_a-stdio.o) (_close_r)
c:/altera/13.0/nios2eds/bin/gnu/h-i686-mingw32/bin/../lib/gcc/nios2-elf/4.1.2/../../../../nios2-elf/lib\libc.a(lib_a-fclose.o)
                              c:/altera/13.0/nios2eds/bin/gnu/h-i686-mingw32/bin/../lib/gcc/nios2-elf/4.1.2/../../../../nios2-elf/lib\libc.a(lib_a-findfp.o) (fclose)
c:/altera/13.0/nios2eds/bin/gnu/h-i686-mingw32/bin/../lib/gcc/nios2-elf/4.1.2/../../../../nios2-elf/lib\libc.a(lib_a-fstatr.o)
                              c:/altera/13.0/nios2eds/bin/gnu/h-i686-mingw32/bin/../lib/gcc/nios2-elf/4.1.2/../../../../nios2-elf/lib\libc.a(lib_a-makebuf.o) (_fstat_r)
c:/altera/13.0/nios2eds/bin/gnu/h-i686-mingw32/bin/../lib/gcc/nios2-elf/4.1.2/../../../../nios2-elf/lib\libc.a(lib_a-int_errno.o)
                              c:/altera/13.0/nios2eds/bin/gnu/h-i686-mingw32/bin/../lib/gcc/nios2-elf/4.1.2/../../../../nios2-elf/lib\libc.a(lib_a-sbrkr.o) (errno)
c:/altera/13.0/nios2eds/bin/gnu/h-i686-mingw32/bin/../lib/gcc/nios2-elf/4.1.2/../../../../nios2-elf/lib\libc.a(lib_a-isattyr.o)
                              c:/altera/13.0/nios2eds/bin/gnu/h-i686-mingw32/bin/../lib/gcc/nios2-elf/4.1.2/../../../../nios2-elf/lib\libc.a(lib_a-makebuf.o) (_isatty_r)
c:/altera/13.0/nios2eds/bin/gnu/h-i686-mingw32/bin/../lib/gcc/nios2-elf/4.1.2/../../../../nios2-elf/lib\libc.a(lib_a-lseekr.o)
                              c:/altera/13.0/nios2eds/bin/gnu/h-i686-mingw32/bin/../lib/gcc/nios2-elf/4.1.2/../../../../nios2-elf/lib\libc.a(lib_a-stdio.o) (_lseek_r)
c:/altera/13.0/nios2eds/bin/gnu/h-i686-mingw32/bin/../lib/gcc/nios2-elf/4.1.2/../../../../nios2-elf/lib\libc.a(lib_a-readr.o)
                              c:/altera/13.0/nios2eds/bin/gnu/h-i686-mingw32/bin/../lib/gcc/nios2-elf/4.1.2/../../../../nios2-elf/lib\libc.a(lib_a-stdio.o) (_read_r)
c:/altera/13.0/nios2eds/bin/gnu/h-i686-mingw32/bin/../lib/gcc/nios2-elf/4.1.2\libgcc.a(_udivdi3.o)
                              c:/altera/13.0/nios2eds/bin/gnu/h-i686-mingw32/bin/../lib/gcc/nios2-elf/4.1.2/../../../../nios2-elf/lib\libc.a(lib_a-vfprintf.o) (__udivdi3)
c:/altera/13.0/nios2eds/bin/gnu/h-i686-mingw32/bin/../lib/gcc/nios2-elf/4.1.2\libgcc.a(_umoddi3.o)
                              c:/altera/13.0/nios2eds/bin/gnu/h-i686-mingw32/bin/../lib/gcc/nios2-elf/4.1.2/../../../../nios2-elf/lib\libc.a(lib_a-vfprintf.o) (__umoddi3)
c:/altera/13.0/nios2eds/bin/gnu/h-i686-mingw32/bin/../lib/gcc/nios2-elf/4.1.2\libgcc.a(_addsub_df.o)
                              c:/altera/13.0/nios2eds/bin/gnu/h-i686-mingw32/bin/../lib/gcc/nios2-elf/4.1.2/../../../../nios2-elf/lib\libc.a(lib_a-dtoa.o) (__subdf3)
c:/altera/13.0/nios2eds/bin/gnu/h-i686-mingw32/bin/../lib/gcc/nios2-elf/4.1.2\libgcc.a(_mul_df.o)
                              c:/altera/13.0/nios2eds/bin/gnu/h-i686-mingw32/bin/../lib/gcc/nios2-elf/4.1.2/../../../../nios2-elf/lib\libc.a(lib_a-dtoa.o) (__muldf3)
c:/altera/13.0/nios2eds/bin/gnu/h-i686-mingw32/bin/../lib/gcc/nios2-elf/4.1.2\libgcc.a(_div_df.o)
                              c:/altera/13.0/nios2eds/bin/gnu/h-i686-mingw32/bin/../lib/gcc/nios2-elf/4.1.2/../../../../nios2-elf/lib\libc.a(lib_a-dtoa.o) (__divdf3)
c:/altera/13.0/nios2eds/bin/gnu/h-i686-mingw32/bin/../lib/gcc/nios2-elf/4.1.2\libgcc.a(_eq_df.o)
                              c:/altera/13.0/nios2eds/bin/gnu/h-i686-mingw32/bin/../lib/gcc/nios2-elf/4.1.2/../../../../nios2-elf/lib\libc.a(lib_a-vfprintf.o) (__eqdf2)
c:/altera/13.0/nios2eds/bin/gnu/h-i686-mingw32/bin/../lib/gcc/nios2-elf/4.1.2\libgcc.a(_ne_df.o)
                              c:/altera/13.0/nios2eds/bin/gnu/h-i686-mingw32/bin/../lib/gcc/nios2-elf/4.1.2/../../../../nios2-elf/lib\libc.a(lib_a-vfprintf.o) (__nedf2)
c:/altera/13.0/nios2eds/bin/gnu/h-i686-mingw32/bin/../lib/gcc/nios2-elf/4.1.2\libgcc.a(_gt_df.o)
                              c:/altera/13.0/nios2eds/bin/gnu/h-i686-mingw32/bin/../lib/gcc/nios2-elf/4.1.2/../../../../nios2-elf/lib\libc.a(lib_a-dtoa.o) (__gtdf2)
c:/altera/13.0/nios2eds/bin/gnu/h-i686-mingw32/bin/../lib/gcc/nios2-elf/4.1.2\libgcc.a(_ge_df.o)
                              c:/altera/13.0/nios2eds/bin/gnu/h-i686-mingw32/bin/../lib/gcc/nios2-elf/4.1.2/../../../../nios2-elf/lib\libc.a(lib_a-dtoa.o) (__gedf2)
c:/altera/13.0/nios2eds/bin/gnu/h-i686-mingw32/bin/../lib/gcc/nios2-elf/4.1.2\libgcc.a(_lt_df.o)
                              c:/altera/13.0/nios2eds/bin/gnu/h-i686-mingw32/bin/../lib/gcc/nios2-elf/4.1.2/../../../../nios2-elf/lib\libc.a(lib_a-vfprintf.o) (__ltdf2)
c:/altera/13.0/nios2eds/bin/gnu/h-i686-mingw32/bin/../lib/gcc/nios2-elf/4.1.2\libgcc.a(_si_to_df.o)
                              c:/altera/13.0/nios2eds/bin/gnu/h-i686-mingw32/bin/../lib/gcc/nios2-elf/4.1.2/../../../../nios2-elf/lib\libc.a(lib_a-dtoa.o) (__floatsidf)
c:/altera/13.0/nios2eds/bin/gnu/h-i686-mingw32/bin/../lib/gcc/nios2-elf/4.1.2\libgcc.a(_df_to_si.o)
                              c:/altera/13.0/nios2eds/bin/gnu/h-i686-mingw32/bin/../lib/gcc/nios2-elf/4.1.2/../../../../nios2-elf/lib\libc.a(lib_a-dtoa.o) (__fixdfsi)
c:/altera/13.0/nios2eds/bin/gnu/h-i686-mingw32/bin/../lib/gcc/nios2-elf/4.1.2\libgcc.a(_thenan_df.o)
                              c:/altera/13.0/nios2eds/bin/gnu/h-i686-mingw32/bin/../lib/gcc/nios2-elf/4.1.2\libgcc.a(_addsub_df.o) (__thenan_df)
c:/altera/13.0/nios2eds/bin/gnu/h-i686-mingw32/bin/../lib/gcc/nios2-elf/4.1.2\libgcc.a(_usi_to_df.o)
                              c:/altera/13.0/nios2eds/bin/gnu/h-i686-mingw32/bin/../lib/gcc/nios2-elf/4.1.2/../../../../nios2-elf/lib\libc.a(lib_a-dtoa.o) (__floatunsidf)
c:/altera/13.0/nios2eds/bin/gnu/h-i686-mingw32/bin/../lib/gcc/nios2-elf/4.1.2\libgcc.a(lib2-divmod.o)
                              c:/altera/13.0/nios2eds/bin/gnu/h-i686-mingw32/bin/../lib/gcc/nios2-elf/4.1.2/../../../../nios2-elf/lib\libc.a(lib_a-vfprintf.o) (__divsi3)
c:/altera/13.0/nios2eds/bin/gnu/h-i686-mingw32/bin/../lib/gcc/nios2-elf/4.1.2\libgcc.a(_muldi3.o)
                              c:/altera/13.0/nios2eds/bin/gnu/h-i686-mingw32/bin/../lib/gcc/nios2-elf/4.1.2\libgcc.a(_mul_df.o) (__muldi3)
c:/altera/13.0/nios2eds/bin/gnu/h-i686-mingw32/bin/../lib/gcc/nios2-elf/4.1.2\libgcc.a(_clz.o)
                              c:/altera/13.0/nios2eds/bin/gnu/h-i686-mingw32/bin/../lib/gcc/nios2-elf/4.1.2\libgcc.a(_udivdi3.o) (__clz_tab)
c:/altera/13.0/nios2eds/bin/gnu/h-i686-mingw32/bin/../lib/gcc/nios2-elf/4.1.2\libgcc.a(_clzsi2.o)
                              c:/altera/13.0/nios2eds/bin/gnu/h-i686-mingw32/bin/../lib/gcc/nios2-elf/4.1.2\libgcc.a(_si_to_df.o) (__clzsi2)
c:/altera/13.0/nios2eds/bin/gnu/h-i686-mingw32/bin/../lib/gcc/nios2-elf/4.1.2\libgcc.a(_pack_df.o)
                              c:/altera/13.0/nios2eds/bin/gnu/h-i686-mingw32/bin/../lib/gcc/nios2-elf/4.1.2\libgcc.a(_addsub_df.o) (__pack_d)
c:/altera/13.0/nios2eds/bin/gnu/h-i686-mingw32/bin/../lib/gcc/nios2-elf/4.1.2\libgcc.a(_unpack_df.o)
                              c:/altera/13.0/nios2eds/bin/gnu/h-i686-mingw32/bin/../lib/gcc/nios2-elf/4.1.2\libgcc.a(_addsub_df.o) (__unpack_d)
c:/altera/13.0/nios2eds/bin/gnu/h-i686-mingw32/bin/../lib/gcc/nios2-elf/4.1.2\libgcc.a(_fpcmp_parts_df.o)
                              c:/altera/13.0/nios2eds/bin/gnu/h-i686-mingw32/bin/../lib/gcc/nios2-elf/4.1.2\libgcc.a(_eq_df.o) (__fpcmp_parts_d)
../cs303a2_bsp/\libhal_bsp.a(alt_alarm_start.o)
                              obj/default/hello_world.o (alt_alarm_start)
../cs303a2_bsp/\libhal_bsp.a(alt_close.o)
                              c:/altera/13.0/nios2eds/bin/gnu/h-i686-mingw32/bin/../lib/gcc/nios2-elf/4.1.2/../../../../nios2-elf/lib\libc.a(lib_a-closer.o) (close)
../cs303a2_bsp/\libhal_bsp.a(alt_dev.o)
                              ../cs303a2_bsp/\libhal_bsp.a(alt_close.o) (alt_fd_list)
../cs303a2_bsp/\libhal_bsp.a(alt_errno.o)
                              ../cs303a2_bsp/\libhal_bsp.a(alt_close.o) (alt_errno)
../cs303a2_bsp/\libhal_bsp.a(alt_fstat.o)
                              c:/altera/13.0/nios2eds/bin/gnu/h-i686-mingw32/bin/../lib/gcc/nios2-elf/4.1.2/../../../../nios2-elf/lib\libc.a(lib_a-fstatr.o) (fstat)
../cs303a2_bsp/\libhal_bsp.a(alt_irq_register.o)
                              obj/default/hello_world.o (alt_irq_register)
../cs303a2_bsp/\libhal_bsp.a(alt_irq_vars.o)
                              ../cs303a2_bsp/\libhal_bsp.a(alt_irq_register.o) (alt_irq_active)
../cs303a2_bsp/\libhal_bsp.a(alt_isatty.o)
                              c:/altera/13.0/nios2eds/bin/gnu/h-i686-mingw32/bin/../lib/gcc/nios2-elf/4.1.2/../../../../nios2-elf/lib\libc.a(lib_a-isattyr.o) (isatty)
../cs303a2_bsp/\libhal_bsp.a(alt_load.o)
                              ../cs303a2_bsp//obj/HAL/src/crt0.o (alt_load)
../cs303a2_bsp/\libhal_bsp.a(alt_lseek.o)
                              c:/altera/13.0/nios2eds/bin/gnu/h-i686-mingw32/bin/../lib/gcc/nios2-elf/4.1.2/../../../../nios2-elf/lib\libc.a(lib_a-lseekr.o) (lseek)
../cs303a2_bsp/\libhal_bsp.a(alt_main.o)
                              ../cs303a2_bsp//obj/HAL/src/crt0.o (alt_main)
../cs303a2_bsp/\libhal_bsp.a(alt_malloc_lock.o)
                              c:/altera/13.0/nios2eds/bin/gnu/h-i686-mingw32/bin/../lib/gcc/nios2-elf/4.1.2/../../../../nios2-elf/lib\libc.a(lib_a-freer.o) (__malloc_lock)
../cs303a2_bsp/\libhal_bsp.a(alt_read.o)
                              c:/altera/13.0/nios2eds/bin/gnu/h-i686-mingw32/bin/../lib/gcc/nios2-elf/4.1.2/../../../../nios2-elf/lib\libc.a(lib_a-readr.o) (read)
../cs303a2_bsp/\libhal_bsp.a(alt_release_fd.o)
                              ../cs303a2_bsp/\libhal_bsp.a(alt_close.o) (alt_release_fd)
../cs303a2_bsp/\libhal_bsp.a(alt_sbrk.o)
                              c:/altera/13.0/nios2eds/bin/gnu/h-i686-mingw32/bin/../lib/gcc/nios2-elf/4.1.2/../../../../nios2-elf/lib\libc.a(lib_a-sbrkr.o) (sbrk)
../cs303a2_bsp/\libhal_bsp.a(alt_tick.o)
                              ../cs303a2_bsp/\libhal_bsp.a(alt_alarm_start.o) (_alt_tick_rate)
../cs303a2_bsp/\libhal_bsp.a(alt_write.o)
                              c:/altera/13.0/nios2eds/bin/gnu/h-i686-mingw32/bin/../lib/gcc/nios2-elf/4.1.2/../../../../nios2-elf/lib\libc.a(lib_a-writer.o) (write)
../cs303a2_bsp/\libhal_bsp.a(alt_sys_init.o)
                              ../cs303a2_bsp/\libhal_bsp.a(alt_main.o) (alt_irq_init)
../cs303a2_bsp/\libhal_bsp.a(altera_avalon_jtag_uart_fd.o)
                              ../cs303a2_bsp/\libhal_bsp.a(alt_sys_init.o) (altera_avalon_jtag_uart_read_fd)
../cs303a2_bsp/\libhal_bsp.a(altera_avalon_jtag_uart_init.o)
                              ../cs303a2_bsp/\libhal_bsp.a(alt_sys_init.o) (altera_avalon_jtag_uart_init)
../cs303a2_bsp/\libhal_bsp.a(altera_avalon_jtag_uart_ioctl.o)
                              ../cs303a2_bsp/\libhal_bsp.a(altera_avalon_jtag_uart_fd.o) (altera_avalon_jtag_uart_ioctl)
../cs303a2_bsp/\libhal_bsp.a(altera_avalon_jtag_uart_read.o)
                              ../cs303a2_bsp/\libhal_bsp.a(altera_avalon_jtag_uart_fd.o) (altera_avalon_jtag_uart_read)
../cs303a2_bsp/\libhal_bsp.a(altera_avalon_jtag_uart_write.o)
                              ../cs303a2_bsp/\libhal_bsp.a(altera_avalon_jtag_uart_fd.o) (altera_avalon_jtag_uart_write)
../cs303a2_bsp/\libhal_bsp.a(altera_avalon_lcd_16207.o)
                              ../cs303a2_bsp/\libhal_bsp.a(alt_sys_init.o) (altera_avalon_lcd_16207_init)
../cs303a2_bsp/\libhal_bsp.a(altera_avalon_lcd_16207_fd.o)
                              ../cs303a2_bsp/\libhal_bsp.a(alt_sys_init.o) (altera_avalon_lcd_16207_write_fd)
../cs303a2_bsp/\libhal_bsp.a(altera_avalon_timer_sc.o)
                              ../cs303a2_bsp/\libhal_bsp.a(alt_sys_init.o) (alt_avalon_timer_sc_init)
../cs303a2_bsp/\libhal_bsp.a(altera_avalon_uart_fd.o)
                              ../cs303a2_bsp/\libhal_bsp.a(alt_sys_init.o) (altera_avalon_uart_read_fd)
../cs303a2_bsp/\libhal_bsp.a(altera_avalon_uart_init.o)
                              ../cs303a2_bsp/\libhal_bsp.a(alt_sys_init.o) (altera_avalon_uart_init)
../cs303a2_bsp/\libhal_bsp.a(altera_avalon_uart_read.o)
                              ../cs303a2_bsp/\libhal_bsp.a(altera_avalon_uart_fd.o) (altera_avalon_uart_read)
../cs303a2_bsp/\libhal_bsp.a(altera_avalon_uart_write.o)
                              ../cs303a2_bsp/\libhal_bsp.a(altera_avalon_uart_fd.o) (altera_avalon_uart_write)
../cs303a2_bsp/\libhal_bsp.a(alt_dcache_flush_all.o)
                              ../cs303a2_bsp/\libhal_bsp.a(alt_load.o) (alt_dcache_flush_all)
../cs303a2_bsp/\libhal_bsp.a(alt_dev_llist_insert.o)
                              ../cs303a2_bsp/\libhal_bsp.a(alt_sys_init.o) (alt_dev_llist_insert)
../cs303a2_bsp/\libhal_bsp.a(alt_do_ctors.o)
                              ../cs303a2_bsp/\libhal_bsp.a(alt_main.o) (_do_ctors)
../cs303a2_bsp/\libhal_bsp.a(alt_do_dtors.o)
                              ../cs303a2_bsp/\libhal_bsp.a(alt_main.o) (_do_dtors)
../cs303a2_bsp/\libhal_bsp.a(alt_icache_flush_all.o)
                              ../cs303a2_bsp/\libhal_bsp.a(alt_load.o) (alt_icache_flush_all)
../cs303a2_bsp/\libhal_bsp.a(alt_iic.o)
                              ../cs303a2_bsp/\libhal_bsp.a(altera_avalon_jtag_uart_init.o) (alt_ic_isr_register)
../cs303a2_bsp/\libhal_bsp.a(alt_iic_isr_register.o)
                              ../cs303a2_bsp/\libhal_bsp.a(alt_iic.o) (alt_iic_isr_register)
../cs303a2_bsp/\libhal_bsp.a(alt_io_redirect.o)
                              ../cs303a2_bsp/\libhal_bsp.a(alt_main.o) (alt_io_redirect)
../cs303a2_bsp/\libhal_bsp.a(alt_irq_entry.o)
                              ../cs303a2_bsp/\libhal_bsp.a(alt_irq_register.o) (alt_irq_entry)
../cs303a2_bsp/\libhal_bsp.a(alt_irq_handler.o)
                              ../cs303a2_bsp/\libhal_bsp.a(alt_irq_register.o) (alt_irq_handler)
../cs303a2_bsp/\libhal_bsp.a(alt_open.o)
                              ../cs303a2_bsp/\libhal_bsp.a(alt_io_redirect.o) (open)
../cs303a2_bsp/\libhal_bsp.a(alt_usleep.o)
                              ../cs303a2_bsp/\libhal_bsp.a(altera_avalon_lcd_16207.o) (usleep)
../cs303a2_bsp/\libhal_bsp.a(altera_nios2_qsys_irq.o)
                              ../cs303a2_bsp/\libhal_bsp.a(alt_sys_init.o) (altera_nios2_qsys_irq_init)
../cs303a2_bsp/\libhal_bsp.a(alt_busy_sleep.o)
                              ../cs303a2_bsp/\libhal_bsp.a(alt_usleep.o) (alt_busy_sleep)
../cs303a2_bsp/\libhal_bsp.a(alt_exception_entry.o)
                              ../cs303a2_bsp/\libhal_bsp.a(alt_irq_entry.o) (alt_exception)
../cs303a2_bsp/\libhal_bsp.a(alt_find_dev.o)
                              ../cs303a2_bsp/\libhal_bsp.a(alt_open.o) (alt_find_dev)
../cs303a2_bsp/\libhal_bsp.a(alt_find_file.o)
                              ../cs303a2_bsp/\libhal_bsp.a(alt_open.o) (alt_find_file)
../cs303a2_bsp/\libhal_bsp.a(alt_get_fd.o)
                              ../cs303a2_bsp/\libhal_bsp.a(alt_open.o) (alt_get_fd)
../cs303a2_bsp/\libhal_bsp.a(alt_icache_flush.o)
                              ../cs303a2_bsp/\libhal_bsp.a(alt_icache_flush_all.o) (alt_icache_flush)
c:/altera/13.0/nios2eds/bin/gnu/h-i686-mingw32/bin/../lib/gcc/nios2-elf/4.1.2/../../../../nios2-elf/lib\libc.a(lib_a-atexit.o)
                              ../cs303a2_bsp/\libhal_bsp.a(alt_main.o) (atexit)
c:/altera/13.0/nios2eds/bin/gnu/h-i686-mingw32/bin/../lib/gcc/nios2-elf/4.1.2/../../../../nios2-elf/lib\libc.a(lib_a-ctype_.o)
                              ../cs303a2_bsp/\libhal_bsp.a(altera_avalon_lcd_16207.o) (__ctype_ptr)
c:/altera/13.0/nios2eds/bin/gnu/h-i686-mingw32/bin/../lib/gcc/nios2-elf/4.1.2/../../../../nios2-elf/lib\libc.a(lib_a-exit.o)
                              ../cs303a2_bsp/\libhal_bsp.a(alt_main.o) (exit)
c:/altera/13.0/nios2eds/bin/gnu/h-i686-mingw32/bin/../lib/gcc/nios2-elf/4.1.2/../../../../nios2-elf/lib\libc.a(lib_a-memcmp.o)
                              ../cs303a2_bsp/\libhal_bsp.a(alt_find_dev.o) (memcmp)
c:/altera/13.0/nios2eds/bin/gnu/h-i686-mingw32/bin/../lib/gcc/nios2-elf/4.1.2/../../../../nios2-elf/lib\libc.a(lib_a-__atexit.o)
                              c:/altera/13.0/nios2eds/bin/gnu/h-i686-mingw32/bin/../lib/gcc/nios2-elf/4.1.2/../../../../nios2-elf/lib\libc.a(lib_a-atexit.o) (__register_exitproc)
c:/altera/13.0/nios2eds/bin/gnu/h-i686-mingw32/bin/../lib/gcc/nios2-elf/4.1.2/../../../../nios2-elf/lib\libc.a(lib_a-__call_atexit.o)
                              c:/altera/13.0/nios2eds/bin/gnu/h-i686-mingw32/bin/../lib/gcc/nios2-elf/4.1.2/../../../../nios2-elf/lib\libc.a(lib_a-exit.o) (__call_exitprocs)
../cs303a2_bsp/\libhal_bsp.a(alt_exit.o)
                              c:/altera/13.0/nios2eds/bin/gnu/h-i686-mingw32/bin/../lib/gcc/nios2-elf/4.1.2/../../../../nios2-elf/lib\libc.a(lib_a-exit.o) (_exit)

Allocating common symbols
Common symbol       size              file

g83                 0x1               obj/default/sccharts.o
g40                 0x1               obj/default/sccharts.o
AVI_TO              0x1               obj/default/sccharts.o
g91                 0x1               obj/default/sccharts.o
APace               0x1               obj/default/sccharts.o
alt_irq             0x100             ../cs303a2_bsp/\libhal_bsp.a(alt_irq_handler.o)
_DDDPacemaker_local_AEI_ex
                    0x1               obj/default/sccharts.o
g4                  0x1               obj/default/sccharts.o
g108                0x1               obj/default/sccharts.o
g19                 0x1               obj/default/sccharts.o
g111                0x1               obj/default/sccharts.o
PRE_g38             0x1               obj/default/sccharts.o
PRE_g102            0x1               obj/default/sccharts.o
VRP_TO              0x1               obj/default/sccharts.o
g55                 0x1               obj/default/sccharts.o
_cg59               0x1               obj/default/sccharts.o
g27                 0x1               obj/default/sccharts.o
_DDDPacemaker_local_AVI_start
                    0x1               obj/default/sccharts.o
_cg116              0x1               obj/default/sccharts.o
g112                0x1               obj/default/sccharts.o
g126_fix2           0x1               obj/default/sccharts.o
g3                  0x1               obj/default/sccharts.o
PRE_g63             0x1               obj/default/sccharts.o
_DDDPacemaker_local_VRP_stop
                    0x1               obj/default/sccharts.o
g103                0x1               obj/default/sccharts.o
g47                 0x1               obj/default/sccharts.o
g42                 0x1               obj/default/sccharts.o
g85                 0x1               obj/default/sccharts.o
g9                  0x1               obj/default/sccharts.o
g127                0x1               obj/default/sccharts.o
_cg7                0x1               obj/default/sccharts.o
_PRE_GO             0x4               obj/default/sccharts.o
PRE_g3              0x1               obj/default/sccharts.o
g102                0x1               obj/default/sccharts.o
PRE_g29             0x1               obj/default/sccharts.o
g115                0x1               obj/default/sccharts.o
PRE_g56             0x1               obj/default/sccharts.o
errno               0x4               c:/altera/13.0/nios2eds/bin/gnu/h-i686-mingw32/bin/../lib/gcc/nios2-elf/4.1.2/../../../../nios2-elf/lib\libc.a(lib_a-int_errno.o)
g87                 0x1               obj/default/sccharts.o
g44                 0x1               obj/default/sccharts.o
_DDDPacemaker_local_LRI_ex
                    0x1               obj/default/sccharts.o
g97b                0x1               obj/default/sccharts.o
g123                0x1               obj/default/sccharts.o
_cg75               0x1               obj/default/sccharts.o
g88b                0x1               obj/default/sccharts.o
g92                 0x1               obj/default/sccharts.o
g1                  0x1               obj/default/sccharts.o
g61                 0x1               obj/default/sccharts.o
g71                 0x1               obj/default/sccharts.o
_DDDPacemaker_local_AVI_ex
                    0x1               obj/default/sccharts.o
g95b                0x1               obj/default/sccharts.o
g7b                 0x1               obj/default/sccharts.o
g126                0x1               obj/default/sccharts.o
g39b                0x1               obj/default/sccharts.o
g82                 0x1               obj/default/sccharts.o
_cg33               0x1               obj/default/sccharts.o
_cg98               0x1               obj/default/sccharts.o
g12                 0x1               obj/default/sccharts.o
g97                 0x1               obj/default/sccharts.o
g52                 0x1               obj/default/sccharts.o
g72_e7              0x1               obj/default/sccharts.o
LRI_TO              0x1               obj/default/sccharts.o
_cg46               0x1               obj/default/sccharts.o
_cg85               0x1               obj/default/sccharts.o
g17                 0x1               obj/default/sccharts.o
g76                 0x1               obj/default/sccharts.o
g31                 0x1               obj/default/sccharts.o
g37                 0x1               obj/default/sccharts.o
g106b               0x1               obj/default/sccharts.o
g62                 0x1               obj/default/sccharts.o
g84                 0x1               obj/default/sccharts.o
g41                 0x1               obj/default/sccharts.o
_cg119              0x1               obj/default/sccharts.o
_cg26               0x1               obj/default/sccharts.o
g118                0x1               obj/default/sccharts.o
PRE_g40             0x1               obj/default/sccharts.o
PRE_g8              0x1               obj/default/sccharts.o
_cg69               0x1               obj/default/sccharts.o
PRE_g17             0x1               obj/default/sccharts.o
PRE_g94             0x1               obj/default/sccharts.o
_cg34               0x1               obj/default/sccharts.o
g18                 0x1               obj/default/sccharts.o
PRE_g81             0x1               obj/default/sccharts.o
ASense              0x1               obj/default/sccharts.o
g132                0x1               obj/default/sccharts.o
g48                 0x1               obj/default/sccharts.o
g118b               0x1               obj/default/sccharts.o
g126_fix0           0x1               obj/default/sccharts.o
_cg95               0x1               obj/default/sccharts.o
_cg111              0x1               obj/default/sccharts.o
g67b                0x1               obj/default/sccharts.o
g38                 0x1               obj/default/sccharts.o
g105                0x1               obj/default/sccharts.o
_cg97               0x1               obj/default/sccharts.o
g125_e13            0x1               obj/default/sccharts.o
_cg21               0x1               obj/default/sccharts.o
PRE_g87             0x1               obj/default/sccharts.o
_DDDPacemaker_local_URI_start
                    0x1               obj/default/sccharts.o
g75b                0x1               obj/default/sccharts.o
g30b                0x1               obj/default/sccharts.o
g117                0x1               obj/default/sccharts.o
_cg20               0x1               obj/default/sccharts.o
_cg118              0x1               obj/default/sccharts.o
PRE_g123            0x1               obj/default/sccharts.o
_DDDPacemaker_local_LRI_stop
                    0x1               obj/default/sccharts.o
g85b                0x1               obj/default/sccharts.o
_cg82               0x1               obj/default/sccharts.o
g64                 0x1               obj/default/sccharts.o
g21                 0x1               obj/default/sccharts.o
_DDDPacemaker_local_AR
                    0x1               obj/default/sccharts.o
_cg51               0x1               obj/default/sccharts.o
g129_e1             0x1               obj/default/sccharts.o
g121_e12            0x1               obj/default/sccharts.o
g79                 0x1               obj/default/sccharts.o
g34                 0x1               obj/default/sccharts.o
g5                  0x1               obj/default/sccharts.o
g94                 0x1               obj/default/sccharts.o
g110                0x1               obj/default/sccharts.o
g49                 0x1               obj/default/sccharts.o
g2                  0x1               obj/default/sccharts.o
g7                  0x1               obj/default/sccharts.o
_cg53               0x1               obj/default/sccharts.o
_cg90               0x1               obj/default/sccharts.o
g80                 0x1               obj/default/sccharts.o
PRE_g25             0x1               obj/default/sccharts.o
g128                0x1               obj/default/sccharts.o
g100                0x1               obj/default/sccharts.o
g59                 0x1               obj/default/sccharts.o
g54                 0x1               obj/default/sccharts.o
g99                 0x1               obj/default/sccharts.o
g23                 0x1               obj/default/sccharts.o
g66                 0x1               obj/default/sccharts.o
_DDDPacemaker_local_PVARP_ex
                    0x1               obj/default/sccharts.o
g14                 0x1               obj/default/sccharts.o
PRE_g84             0x1               obj/default/sccharts.o
g9b                 0x1               obj/default/sccharts.o
g101                0x1               obj/default/sccharts.o
g114                0x1               obj/default/sccharts.o
g56                 0x1               obj/default/sccharts.o
g129                0x1               obj/default/sccharts.o
g131                0x1               obj/default/sccharts.o
VSense              0x1               obj/default/sccharts.o
PRE_g6              0x1               obj/default/sccharts.o
g78                 0x1               obj/default/sccharts.o
g33                 0x1               obj/default/sccharts.o
g126_fix1           0x1               obj/default/sccharts.o
g126_fix3           0x1               obj/default/sccharts.o
g109b               0x1               obj/default/sccharts.o
g113_e11            0x1               obj/default/sccharts.o
_DDDPacemaker_local_URI_stop
                    0x1               obj/default/sccharts.o
g122                0x1               obj/default/sccharts.o
PRE_g96             0x1               obj/default/sccharts.o
_cg64               0x1               obj/default/sccharts.o
g103b               0x1               obj/default/sccharts.o
g129_e1_fix         0x1               obj/default/sccharts.o
g134                0x1               obj/default/sccharts.o
g116b               0x1               obj/default/sccharts.o
g35                 0x1               obj/default/sccharts.o
_cg71               0x1               obj/default/sccharts.o
g36_e3              0x1               obj/default/sccharts.o
g15                 0x1               obj/default/sccharts.o
g90                 0x1               obj/default/sccharts.o
g133_e2             0x1               obj/default/sccharts.o
_GO                 0x1               obj/default/sccharts.o
PRE_g11             0x1               obj/default/sccharts.o
g92_e9              0x1               obj/default/sccharts.o
g43_e4              0x1               obj/default/sccharts.o
g63                 0x1               obj/default/sccharts.o
g20                 0x1               obj/default/sccharts.o
g60                 0x1               obj/default/sccharts.o
PRE_g19             0x1               obj/default/sccharts.o
_DDDPacemaker_local_PVARP_stop
                    0x1               obj/default/sccharts.o
g93                 0x1               obj/default/sccharts.o
g119                0x1               obj/default/sccharts.o
g129_e1_fix_fix     0x1               obj/default/sccharts.o
g43                 0x1               obj/default/sccharts.o
g86                 0x1               obj/default/sccharts.o
PRE_g131            0x1               obj/default/sccharts.o
_DDDPacemaker_local_PVARP_start
                    0x1               obj/default/sccharts.o
g36                 0x1               obj/default/sccharts.o
g89                 0x1               obj/default/sccharts.o
g46                 0x1               obj/default/sccharts.o
_atexit0            0x190             c:/altera/13.0/nios2eds/bin/gnu/h-i686-mingw32/bin/../lib/gcc/nios2-elf/4.1.2/../../../../nios2-elf/lib\libc.a(lib_a-atexit.o)
_cg106              0x1               obj/default/sccharts.o
g57b                0x1               obj/default/sccharts.o
g95                 0x1               obj/default/sccharts.o
g50                 0x1               obj/default/sccharts.o
g96                 0x1               obj/default/sccharts.o
g51                 0x1               obj/default/sccharts.o
AEI_TO              0x1               obj/default/sccharts.o
g107                0x1               obj/default/sccharts.o
PRE_g74             0x1               obj/default/sccharts.o
g113                0x1               obj/default/sccharts.o
g54_e5              0x1               obj/default/sccharts.o
PRE_g48             0x1               obj/default/sccharts.o
_cg41               0x1               obj/default/sccharts.o
g104                0x1               obj/default/sccharts.o
g13                 0x1               obj/default/sccharts.o
PRE_g115            0x1               obj/default/sccharts.o
g53                 0x1               obj/default/sccharts.o
g98                 0x1               obj/default/sccharts.o
g8                  0x1               obj/default/sccharts.o
g57                 0x1               obj/default/sccharts.o
g70                 0x1               obj/default/sccharts.o
g116                0x1               obj/default/sccharts.o
g6                  0x1               obj/default/sccharts.o
_DDDPacemaker_local_URI_ex
                    0x1               obj/default/sccharts.o
g82b                0x1               obj/default/sccharts.o
g72                 0x1               obj/default/sccharts.o
_DDDPacemaker_local_VRP_ex
                    0x1               obj/default/sccharts.o
g81                 0x1               obj/default/sccharts.o
PRE_g76             0x1               obj/default/sccharts.o
g18b                0x1               obj/default/sccharts.o
g124                0x1               obj/default/sccharts.o
_cg13               0x1               obj/default/sccharts.o
_cg9                0x1               obj/default/sccharts.o
g0                  0x1               obj/default/sccharts.o
g75                 0x1               obj/default/sccharts.o
g30                 0x1               obj/default/sccharts.o
PRE_g58             0x1               obj/default/sccharts.o
g79_e8              0x1               obj/default/sccharts.o
PRE_g66             0x1               obj/default/sccharts.o
_cg30               0x1               obj/default/sccharts.o
_DDDPacemaker_local_VRP_start
                    0x1               obj/default/sccharts.o
g16                 0x1               obj/default/sccharts.o
g61_e6              0x1               obj/default/sccharts.o
g58                 0x1               obj/default/sccharts.o
_cg77               0x1               obj/default/sccharts.o
_cg57               0x1               obj/default/sccharts.o
g68                 0x1               obj/default/sccharts.o
g25                 0x1               obj/default/sccharts.o
_DDDPacemaker_local_AEI_stop
                    0x1               obj/default/sccharts.o
g11                 0x1               obj/default/sccharts.o
g65                 0x1               obj/default/sccharts.o
g22                 0x1               obj/default/sccharts.o
g28                 0x1               obj/default/sccharts.o
g73                 0x1               obj/default/sccharts.o
g15_e1              0x1               obj/default/sccharts.o
_DDDPacemaker_local_VR
                    0x1               obj/default/sccharts.o
g125                0x1               obj/default/sccharts.o
g77                 0x1               obj/default/sccharts.o
g32                 0x1               obj/default/sccharts.o
PVARP_TO            0x1               obj/default/sccharts.o
g20b                0x1               obj/default/sccharts.o
g88                 0x1               obj/default/sccharts.o
g45                 0x1               obj/default/sccharts.o
_cg103              0x1               obj/default/sccharts.o
_cg18               0x1               obj/default/sccharts.o
PRE_g45             0x1               obj/default/sccharts.o
g130                0x1               obj/default/sccharts.o
g49b                0x1               obj/default/sccharts.o
_DDDPacemaker_local_LRI_start
                    0x1               obj/default/sccharts.o
g121                0x1               obj/default/sccharts.o
_cg109              0x1               obj/default/sccharts.o
VPace               0x1               obj/default/sccharts.o
g12b                0x1               obj/default/sccharts.o
g39                 0x1               obj/default/sccharts.o
_cg88               0x1               obj/default/sccharts.o
_cg49               0x1               obj/default/sccharts.o
g120                0x1               obj/default/sccharts.o
PRE_g108            0x1               obj/default/sccharts.o
PRE_g105            0x1               obj/default/sccharts.o
g29                 0x1               obj/default/sccharts.o
g67                 0x1               obj/default/sccharts.o
g24                 0x1               obj/default/sccharts.o
_cg4                0x1               obj/default/sccharts.o
URI_TO              0x1               obj/default/sccharts.o
g133                0x1               obj/default/sccharts.o
g109                0x1               obj/default/sccharts.o
g100_e10            0x1               obj/default/sccharts.o
_cg32               0x1               obj/default/sccharts.o
_DDDPacemaker_local_AEI_start
                    0x1               obj/default/sccharts.o
g4b                 0x1               obj/default/sccharts.o
_cg67               0x1               obj/default/sccharts.o
g106                0x1               obj/default/sccharts.o
g10                 0x1               obj/default/sccharts.o
PRE_g117            0x1               obj/default/sccharts.o
g69                 0x1               obj/default/sccharts.o
g26                 0x1               obj/default/sccharts.o
g23_e2              0x1               obj/default/sccharts.o
_cg39               0x1               obj/default/sccharts.o
_DDDPacemaker_local_AVI_stop
                    0x1               obj/default/sccharts.o
g74                 0x1               obj/default/sccharts.o
_DDDPacemaker_local_idleURI
                    0x1               obj/default/sccharts.o

Memory Configuration

Name             Origin             Length             Attributes
reset            0x00800000         0x00000020
sdram_controller 0x00800020         0x007fffe0
onchip_mem       0x01008000         0x00008000
*default*        0x00000000         0xffffffff

Linker script and memory map

LOAD ../cs303a2_bsp//obj/HAL/src/crt0.o
LOAD obj/default/hello_world.o
LOAD obj/default/sccharts.o
LOAD c:/altera/13.0/nios2eds/bin/gnu/h-i686-mingw32/bin/../lib/gcc/nios2-elf/4.1.2/../../../../nios2-elf/lib\libstdc++.a
LOAD c:/altera/13.0/nios2eds/bin/gnu/h-i686-mingw32/bin/../lib/gcc/nios2-elf/4.1.2/../../../../nios2-elf/lib\libm.a
LOAD c:/altera/13.0/nios2eds/bin/gnu/h-i686-mingw32/bin/../lib/gcc/nios2-elf/4.1.2\libgcc.a
START GROUP
LOAD c:/altera/13.0/nios2eds/bin/gnu/h-i686-mingw32/bin/../lib/gcc/nios2-elf/4.1.2/../../../../nios2-elf/lib\libc.a
LOAD c:/altera/13.0/nios2eds/bin/gnu/h-i686-mingw32/bin/../lib/gcc/nios2-elf/4.1.2\libgcc.a
LOAD ../cs303a2_bsp/\libhal_bsp.a
END GROUP
LOAD c:/altera/13.0/nios2eds/bin/gnu/h-i686-mingw32/bin/../lib/gcc/nios2-elf/4.1.2\libgcc.a
                0x00800000                __alt_mem_sdram_controller = 0x800000
                0x01008000                __alt_mem_onchip_mem = 0x1008000

.entry          0x00800000       0x20
 *(.entry)
 .entry         0x00800000       0x20 ../cs303a2_bsp//obj/HAL/src/crt0.o
                0x00800000                __reset

.exceptions     0x00800020      0x194
                0x00800020                PROVIDE (__ram_exceptions_start, ABSOLUTE (.))
                0x00800020                . = ALIGN (0x20)
 *(.irq)
 *(.exceptions.entry.label)
 .exceptions.entry.label
                0x00800020        0x0 ../cs303a2_bsp/\libhal_bsp.a(alt_irq_entry.o)
                0x00800020                alt_irq_entry
 .exceptions.entry.label
                0x00800020        0x0 ../cs303a2_bsp/\libhal_bsp.a(alt_exception_entry.o)
                0x00800020                alt_exception
 *(.exceptions.entry.user)
 *(.exceptions.entry)
 .exceptions.entry
                0x00800020       0x54 ../cs303a2_bsp/\libhal_bsp.a(alt_exception_entry.o)
 *(.exceptions.irqtest.user)
 *(.exceptions.irqtest)
 .exceptions.irqtest
                0x00800074       0x10 ../cs303a2_bsp/\libhal_bsp.a(alt_irq_entry.o)
 *(.exceptions.irqhandler.user)
 *(.exceptions.irqhandler)
 .exceptions.irqhandler
                0x00800084        0x4 ../cs303a2_bsp/\libhal_bsp.a(alt_irq_entry.o)
 *(.exceptions.irqreturn.user)
 *(.exceptions.irqreturn)
 .exceptions.irqreturn
                0x00800088        0x4 ../cs303a2_bsp/\libhal_bsp.a(alt_irq_entry.o)
 *(.exceptions.notirq.label)
 .exceptions.notirq.label
                0x0080008c        0x0 ../cs303a2_bsp/\libhal_bsp.a(alt_irq_entry.o)
 *(.exceptions.notirq.user)
 *(.exceptions.notirq)
 .exceptions.notirq
                0x0080008c        0x8 ../cs303a2_bsp/\libhal_bsp.a(alt_exception_entry.o)
 *(.exceptions.soft.user)
 *(.exceptions.soft)
 *(.exceptions.unknown.user)
 *(.exceptions.unknown)
 .exceptions.unknown
                0x00800094        0x4 ../cs303a2_bsp/\libhal_bsp.a(alt_exception_entry.o)
 *(.exceptions.exit.label)
 .exceptions.exit.label
                0x00800098        0x0 ../cs303a2_bsp/\libhal_bsp.a(alt_irq_entry.o)
 .exceptions.exit.label
                0x00800098        0x0 ../cs303a2_bsp/\libhal_bsp.a(alt_exception_entry.o)
 *(.exceptions.exit.user)
 *(.exceptions.exit)
 .exceptions.exit
                0x00800098       0x54 ../cs303a2_bsp/\libhal_bsp.a(alt_exception_entry.o)
 *(.exceptions)
 .exceptions    0x008000ec       0xc8 ../cs303a2_bsp/\libhal_bsp.a(alt_irq_handler.o)
                0x008000ec                alt_irq_handler
                0x008001b4                PROVIDE (__ram_exceptions_end, ABSOLUTE (.))
                0x00800020                PROVIDE (__flash_exceptions_start, LOADADDR (.exceptions))

.text           0x008001b4    0x112bc
                0x008001b4                PROVIDE (stext, ABSOLUTE (.))
 *(.interp)
 *(.hash)
 *(.dynsym)
 *(.dynstr)
 *(.gnu.version)
 *(.gnu.version_d)
 *(.gnu.version_r)
 *(.rel.init)
 *(.rela.init)
 *(.rel.text .rel.text.* .rel.gnu.linkonce.t.*)
 *(.rela.text .rela.text.* .rela.gnu.linkonce.t.*)
 *(.rel.fini)
 *(.rela.fini)
 *(.rel.rodata .rel.rodata.* .rel.gnu.linkonce.r.*)
 *(.rela.rodata .rela.rodata.* .rela.gnu.linkonce.r.*)
 *(.rel.data .rel.data.* .rel.gnu.linkonce.d.*)
 *(.rela.data .rela.data.* .rela.gnu.linkonce.d.*)
 *(.rel.tdata .rel.tdata.* .rel.gnu.linkonce.td.*)
 *(.rela.tdata .rela.tdata.* .rela.gnu.linkonce.td.*)
 *(.rel.tbss .rel.tbss.* .rel.gnu.linkonce.tb.*)
 *(.rela.tbss .rela.tbss.* .rela.gnu.linkonce.tb.*)
 *(.rel.ctors)
 *(.rela.ctors)
 *(.rel.dtors)
 *(.rela.dtors)
 *(.rel.got)
 *(.rela.got)
 *(.rel.sdata .rel.sdata.* .rel.gnu.linkonce.s.*)
 *(.rela.sdata .rela.sdata.* .rela.gnu.linkonce.s.*)
 *(.rel.sbss .rel.sbss.* .rel.gnu.linkonce.sb.*)
 *(.rela.sbss .rela.sbss.* .rela.gnu.linkonce.sb.*)
 *(.rel.sdata2 .rel.sdata2.* .rel.gnu.linkonce.s2.*)
 *(.rela.sdata2 .rela.sdata2.* .rela.gnu.linkonce.s2.*)
 *(.rel.sbss2 .rel.sbss2.* .rel.gnu.linkonce.sb2.*)
 *(.rela.sbss2 .rela.sbss2.* .rela.gnu.linkonce.sb2.*)
 *(.rel.bss .rel.bss.* .rel.gnu.linkonce.b.*)
 *(.rela.bss .rela.bss.* .rela.gnu.linkonce.b.*)
 *(.rel.plt)
 *(.rela.plt)
 *(.rel.dyn)
 *(.init)
 *(.plt)
 *(.text .stub .text.* .gnu.linkonce.t.*)
 .text          0x008001b4       0x4c ../cs303a2_bsp//obj/HAL/src/crt0.o
                0x008001b4                _start
 .text          0x00800200      0x498 obj/default/hello_world.o
                0x00800200                timer_isr_function
                0x00800238                led_off_isr_function
                0x00800268                button_isr_function
                0x008002e4                main
 .text          0x00800698     0x3054 obj/default/sccharts.o
                0x00800698                reset
                0x00800738                tick
 .text          0x008036ec       0x78 c:/altera/13.0/nios2eds/bin/gnu/h-i686-mingw32/bin/../lib/gcc/nios2-elf/4.1.2/../../../../nios2-elf/lib\libc.a(lib_a-printf.o)
                0x008036ec                printf
                0x00803730                _printf_r
 .text          0x00803764     0x1f28 c:/altera/13.0/nios2eds/bin/gnu/h-i686-mingw32/bin/../lib/gcc/nios2-elf/4.1.2/../../../../nios2-elf/lib\libc.a(lib_a-vfprintf.o)
                0x008037bc                ___vfprintf_internal_r
                0x00805668                __vfprintf_internal
 .text          0x0080568c      0x13c c:/altera/13.0/nios2eds/bin/gnu/h-i686-mingw32/bin/../lib/gcc/nios2-elf/4.1.2/../../../../nios2-elf/lib\libc.a(lib_a-wsetup.o)
                0x0080568c                __swsetup_r
 .text          0x008057c8     0x17cc c:/altera/13.0/nios2eds/bin/gnu/h-i686-mingw32/bin/../lib/gcc/nios2-elf/4.1.2/../../../../nios2-elf/lib\libc.a(lib_a-dtoa.o)
                0x008059e0                _dtoa_r
 .text          0x00806f94      0x230 c:/altera/13.0/nios2eds/bin/gnu/h-i686-mingw32/bin/../lib/gcc/nios2-elf/4.1.2/../../../../nios2-elf/lib\libc.a(lib_a-fflush.o)
                0x00806f94                _fflush_r
                0x00807190                fflush
 .text          0x008071c4      0x2c0 c:/altera/13.0/nios2eds/bin/gnu/h-i686-mingw32/bin/../lib/gcc/nios2-elf/4.1.2/../../../../nios2-elf/lib\libc.a(lib_a-findfp.o)
                0x0080721c                __sfp_lock_acquire
                0x00807220                __sfp_lock_release
                0x00807224                __sinit_lock_acquire
                0x00807228                __sinit_lock_release
                0x0080722c                __sinit
                0x008072e0                __fp_unlock_all
                0x008072f8                __fp_lock_all
                0x00807310                _cleanup_r
                0x0080731c                _cleanup
                0x0080732c                __sfmoreglue
                0x00807394                __sfp
 .text          0x00807484      0x440 c:/altera/13.0/nios2eds/bin/gnu/h-i686-mingw32/bin/../lib/gcc/nios2-elf/4.1.2/../../../../nios2-elf/lib\libc.a(lib_a-freer.o)
                0x00807484                _malloc_trim_r
                0x008075b0                _free_r
 .text          0x008078c4      0x49c c:/altera/13.0/nios2eds/bin/gnu/h-i686-mingw32/bin/../lib/gcc/nios2-elf/4.1.2/../../../../nios2-elf/lib\libc.a(lib_a-fvwrite.o)
                0x008078c4                __sfvwrite_r
 .text          0x00807d60      0x180 c:/altera/13.0/nios2eds/bin/gnu/h-i686-mingw32/bin/../lib/gcc/nios2-elf/4.1.2/../../../../nios2-elf/lib\libc.a(lib_a-fwalk.o)
                0x00807d60                _fwalk_reent
                0x00807e28                _fwalk
 .text          0x00807ee0        0x0 c:/altera/13.0/nios2eds/bin/gnu/h-i686-mingw32/bin/../lib/gcc/nios2-elf/4.1.2/../../../../nios2-elf/lib\libc.a(lib_a-impure.o)
 .text          0x00807ee0       0xc4 c:/altera/13.0/nios2eds/bin/gnu/h-i686-mingw32/bin/../lib/gcc/nios2-elf/4.1.2/../../../../nios2-elf/lib\libc.a(lib_a-locale.o)
                0x00807ee0                __locale_charset
                0x00807ee8                _localeconv_r
                0x00807ef4                localeconv
                0x00807f04                _setlocale_r
                0x00807f88                setlocale
 .text          0x00807fa4      0x194 c:/altera/13.0/nios2eds/bin/gnu/h-i686-mingw32/bin/../lib/gcc/nios2-elf/4.1.2/../../../../nios2-elf/lib\libc.a(lib_a-makebuf.o)
                0x00807fa4                __smakebuf_r
 .text          0x00808138      0x740 c:/altera/13.0/nios2eds/bin/gnu/h-i686-mingw32/bin/../lib/gcc/nios2-elf/4.1.2/../../../../nios2-elf/lib\libc.a(lib_a-mallocr.o)
                0x00808138                _malloc_r
 .text          0x00808878       0xe4 c:/altera/13.0/nios2eds/bin/gnu/h-i686-mingw32/bin/../lib/gcc/nios2-elf/4.1.2/../../../../nios2-elf/lib\libc.a(lib_a-memchr.o)
                0x00808878                memchr
 .text          0x0080895c       0xa0 c:/altera/13.0/nios2eds/bin/gnu/h-i686-mingw32/bin/../lib/gcc/nios2-elf/4.1.2/../../../../nios2-elf/lib\libc.a(lib_a-memcpy.o)
                0x0080895c                memcpy
 .text          0x008089fc       0xe0 c:/altera/13.0/nios2eds/bin/gnu/h-i686-mingw32/bin/../lib/gcc/nios2-elf/4.1.2/../../../../nios2-elf/lib\libc.a(lib_a-memmove.o)
                0x008089fc                memmove
 .text          0x00808adc       0x98 c:/altera/13.0/nios2eds/bin/gnu/h-i686-mingw32/bin/../lib/gcc/nios2-elf/4.1.2/../../../../nios2-elf/lib\libc.a(lib_a-memset.o)
                0x00808adc                memset
 .text          0x00808b74      0xff4 c:/altera/13.0/nios2eds/bin/gnu/h-i686-mingw32/bin/../lib/gcc/nios2-elf/4.1.2/../../../../nios2-elf/lib\libc.a(lib_a-mprec.o)
                0x00808b74                _Bfree
                0x00808b9c                __hi0bits
                0x00808c0c                __lo0bits
                0x00808cd0                __mcmp
                0x00808d30                __ulp
                0x00808db0                __b2d
                0x00808ed0                __ratio
                0x00808f80                _mprec_log10
                0x00809014                __copybits
                0x0080906c                __any_on
                0x008090f4                _Balloc
                0x008091b0                __d2b
                0x0080932c                __mdiff
                0x008094b8                __lshift
                0x00809604                __multiply
                0x008097ec                __i2b
                0x00809828                __multadd
                0x00809928                __pow5mult
                0x00809a48                __s2b
 .text          0x00809b68      0x5f4 c:/altera/13.0/nios2eds/bin/gnu/h-i686-mingw32/bin/../lib/gcc/nios2-elf/4.1.2/../../../../nios2-elf/lib\libc.a(lib_a-reallocr.o)
                0x00809b68                _realloc_r
 .text          0x0080a15c       0x40 c:/altera/13.0/nios2eds/bin/gnu/h-i686-mingw32/bin/../lib/gcc/nios2-elf/4.1.2/../../../../nios2-elf/lib\libc.a(lib_a-s_isinfd.o)
                0x0080a15c                __isinfd
 .text          0x0080a19c       0x30 c:/altera/13.0/nios2eds/bin/gnu/h-i686-mingw32/bin/../lib/gcc/nios2-elf/4.1.2/../../../../nios2-elf/lib\libc.a(lib_a-s_isnand.o)
                0x0080a19c                __isnand
 .text          0x0080a1cc       0x70 c:/altera/13.0/nios2eds/bin/gnu/h-i686-mingw32/bin/../lib/gcc/nios2-elf/4.1.2/../../../../nios2-elf/lib\libc.a(lib_a-sbrkr.o)
                0x0080a1cc                _sbrk_r
 .text          0x0080a23c      0x14c c:/altera/13.0/nios2eds/bin/gnu/h-i686-mingw32/bin/../lib/gcc/nios2-elf/4.1.2/../../../../nios2-elf/lib\libc.a(lib_a-stdio.o)
                0x0080a23c                __sclose
                0x0080a244                __sseek
                0x0080a2ac                __swrite
                0x0080a328                __sread
 .text          0x0080a388       0xbc c:/altera/13.0/nios2eds/bin/gnu/h-i686-mingw32/bin/../lib/gcc/nios2-elf/4.1.2/../../../../nios2-elf/lib\libc.a(lib_a-strcmp.o)
                0x0080a388                strcmp
 .text          0x0080a444       0x74 c:/altera/13.0/nios2eds/bin/gnu/h-i686-mingw32/bin/../lib/gcc/nios2-elf/4.1.2/../../../../nios2-elf/lib\libc.a(lib_a-strlen.o)
                0x0080a444                strlen
 .text          0x0080a4b8       0x78 c:/altera/13.0/nios2eds/bin/gnu/h-i686-mingw32/bin/../lib/gcc/nios2-elf/4.1.2/../../../../nios2-elf/lib\libc.a(lib_a-writer.o)
                0x0080a4b8                _write_r
 .text          0x0080a530       0xb4 c:/altera/13.0/nios2eds/bin/gnu/h-i686-mingw32/bin/../lib/gcc/nios2-elf/4.1.2/../../../../nios2-elf/lib\libc.a(lib_a-callocr.o)
                0x0080a530                _calloc_r
 .text          0x0080a5e4       0x70 c:/altera/13.0/nios2eds/bin/gnu/h-i686-mingw32/bin/../lib/gcc/nios2-elf/4.1.2/../../../../nios2-elf/lib\libc.a(lib_a-closer.o)
                0x0080a5e4                _close_r
 .text          0x0080a654      0x124 c:/altera/13.0/nios2eds/bin/gnu/h-i686-mingw32/bin/../lib/gcc/nios2-elf/4.1.2/../../../../nios2-elf/lib\libc.a(lib_a-fclose.o)
                0x0080a654                _fclose_r
                0x0080a764                fclose
 .text          0x0080a778       0x74 c:/altera/13.0/nios2eds/bin/gnu/h-i686-mingw32/bin/../lib/gcc/nios2-elf/4.1.2/../../../../nios2-elf/lib\libc.a(lib_a-fstatr.o)
                0x0080a778                _fstat_r
 .text          0x0080a7ec        0x0 c:/altera/13.0/nios2eds/bin/gnu/h-i686-mingw32/bin/../lib/gcc/nios2-elf/4.1.2/../../../../nios2-elf/lib\libc.a(lib_a-int_errno.o)
 .text          0x0080a7ec       0x70 c:/altera/13.0/nios2eds/bin/gnu/h-i686-mingw32/bin/../lib/gcc/nios2-elf/4.1.2/../../../../nios2-elf/lib\libc.a(lib_a-isattyr.o)
                0x0080a7ec                _isatty_r
 .text          0x0080a85c       0x78 c:/altera/13.0/nios2eds/bin/gnu/h-i686-mingw32/bin/../lib/gcc/nios2-elf/4.1.2/../../../../nios2-elf/lib\libc.a(lib_a-lseekr.o)
                0x0080a85c                _lseek_r
 .text          0x0080a8d4       0x78 c:/altera/13.0/nios2eds/bin/gnu/h-i686-mingw32/bin/../lib/gcc/nios2-elf/4.1.2/../../../../nios2-elf/lib\libc.a(lib_a-readr.o)
                0x0080a8d4                _read_r
 .text          0x0080a94c      0x5dc c:/altera/13.0/nios2eds/bin/gnu/h-i686-mingw32/bin/../lib/gcc/nios2-elf/4.1.2\libgcc.a(_udivdi3.o)
                0x0080a94c                __udivdi3
 .text          0x0080af28      0x5b0 c:/altera/13.0/nios2eds/bin/gnu/h-i686-mingw32/bin/../lib/gcc/nios2-elf/4.1.2\libgcc.a(_umoddi3.o)
                0x0080af28                __umoddi3
 .text          0x0080b4d8      0x504 c:/altera/13.0/nios2eds/bin/gnu/h-i686-mingw32/bin/../lib/gcc/nios2-elf/4.1.2\libgcc.a(_addsub_df.o)
                0x0080b8e8                __subdf3
                0x0080b968                __adddf3
 .text          0x0080b9dc      0x3c4 c:/altera/13.0/nios2eds/bin/gnu/h-i686-mingw32/bin/../lib/gcc/nios2-elf/4.1.2\libgcc.a(_mul_df.o)
                0x0080b9dc                __muldf3
 .text          0x0080bda0      0x258 c:/altera/13.0/nios2eds/bin/gnu/h-i686-mingw32/bin/../lib/gcc/nios2-elf/4.1.2\libgcc.a(_div_df.o)
                0x0080bda0                __divdf3
 .text          0x0080bff8       0x88 c:/altera/13.0/nios2eds/bin/gnu/h-i686-mingw32/bin/../lib/gcc/nios2-elf/4.1.2\libgcc.a(_eq_df.o)
                0x0080bff8                __eqdf2
 .text          0x0080c080       0x88 c:/altera/13.0/nios2eds/bin/gnu/h-i686-mingw32/bin/../lib/gcc/nios2-elf/4.1.2\libgcc.a(_ne_df.o)
                0x0080c080                __nedf2
 .text          0x0080c108       0x88 c:/altera/13.0/nios2eds/bin/gnu/h-i686-mingw32/bin/../lib/gcc/nios2-elf/4.1.2\libgcc.a(_gt_df.o)
                0x0080c108                __gtdf2
 .text          0x0080c190       0x88 c:/altera/13.0/nios2eds/bin/gnu/h-i686-mingw32/bin/../lib/gcc/nios2-elf/4.1.2\libgcc.a(_ge_df.o)
                0x0080c190                __gedf2
 .text          0x0080c218       0x88 c:/altera/13.0/nios2eds/bin/gnu/h-i686-mingw32/bin/../lib/gcc/nios2-elf/4.1.2\libgcc.a(_lt_df.o)
                0x0080c218                __ltdf2
 .text          0x0080c2a0       0xf8 c:/altera/13.0/nios2eds/bin/gnu/h-i686-mingw32/bin/../lib/gcc/nios2-elf/4.1.2\libgcc.a(_si_to_df.o)
                0x0080c2a0                __floatsidf
 .text          0x0080c398       0xd8 c:/altera/13.0/nios2eds/bin/gnu/h-i686-mingw32/bin/../lib/gcc/nios2-elf/4.1.2\libgcc.a(_df_to_si.o)
                0x0080c398                __fixdfsi
 .text          0x0080c470        0x0 c:/altera/13.0/nios2eds/bin/gnu/h-i686-mingw32/bin/../lib/gcc/nios2-elf/4.1.2\libgcc.a(_thenan_df.o)
 .text          0x0080c470      0x194 c:/altera/13.0/nios2eds/bin/gnu/h-i686-mingw32/bin/../lib/gcc/nios2-elf/4.1.2\libgcc.a(_usi_to_df.o)
                0x0080c470                __floatunsidf
 .text          0x0080c604      0x14c c:/altera/13.0/nios2eds/bin/gnu/h-i686-mingw32/bin/../lib/gcc/nios2-elf/4.1.2\libgcc.a(lib2-divmod.o)
                0x0080c680                __divsi3
                0x0080c6e0                __modsi3
                0x0080c740                __udivsi3
                0x0080c748                __umodsi3
 .text          0x0080c750       0x98 c:/altera/13.0/nios2eds/bin/gnu/h-i686-mingw32/bin/../lib/gcc/nios2-elf/4.1.2\libgcc.a(_muldi3.o)
                0x0080c750                __muldi3
 .text          0x0080c7e8        0x0 c:/altera/13.0/nios2eds/bin/gnu/h-i686-mingw32/bin/../lib/gcc/nios2-elf/4.1.2\libgcc.a(_clz.o)
 .text          0x0080c7e8       0x80 c:/altera/13.0/nios2eds/bin/gnu/h-i686-mingw32/bin/../lib/gcc/nios2-elf/4.1.2\libgcc.a(_clzsi2.o)
                0x0080c7e8                __clzsi2
 .text          0x0080c868      0x314 c:/altera/13.0/nios2eds/bin/gnu/h-i686-mingw32/bin/../lib/gcc/nios2-elf/4.1.2\libgcc.a(_pack_df.o)
                0x0080c868                __pack_d
 .text          0x0080cb7c      0x138 c:/altera/13.0/nios2eds/bin/gnu/h-i686-mingw32/bin/../lib/gcc/nios2-elf/4.1.2\libgcc.a(_unpack_df.o)
                0x0080cb7c                __unpack_d
 .text          0x0080ccb4       0xc8 c:/altera/13.0/nios2eds/bin/gnu/h-i686-mingw32/bin/../lib/gcc/nios2-elf/4.1.2\libgcc.a(_fpcmp_parts_df.o)
                0x0080ccb4                __fpcmp_parts_d
 .text          0x0080cd7c      0x154 ../cs303a2_bsp/\libhal_bsp.a(alt_alarm_start.o)
                0x0080cd7c                alt_alarm_start
 .text          0x0080ced0      0x15c ../cs303a2_bsp/\libhal_bsp.a(alt_close.o)
                0x0080ced0                close
 .text          0x0080d02c       0x2c ../cs303a2_bsp/\libhal_bsp.a(alt_dev.o)
 .text          0x0080d058        0x0 ../cs303a2_bsp/\libhal_bsp.a(alt_errno.o)
 .text          0x0080d058      0x134 ../cs303a2_bsp/\libhal_bsp.a(alt_fstat.o)
                0x0080d058                fstat
 .text          0x0080d18c      0x1c0 ../cs303a2_bsp/\libhal_bsp.a(alt_irq_register.o)
                0x0080d18c                alt_irq_register
 .text          0x0080d34c        0x0 ../cs303a2_bsp/\libhal_bsp.a(alt_irq_vars.o)
 .text          0x0080d34c      0x120 ../cs303a2_bsp/\libhal_bsp.a(alt_isatty.o)
                0x0080d34c                isatty
 .text          0x0080d46c       0xec ../cs303a2_bsp/\libhal_bsp.a(alt_load.o)
                0x0080d46c                alt_load
 .text          0x0080d558      0x150 ../cs303a2_bsp/\libhal_bsp.a(alt_lseek.o)
                0x0080d558                lseek
 .text          0x0080d6a8       0x6c ../cs303a2_bsp/\libhal_bsp.a(alt_main.o)
                0x0080d6a8                alt_main
 .text          0x0080d714       0x40 ../cs303a2_bsp/\libhal_bsp.a(alt_malloc_lock.o)
                0x0080d714                __malloc_lock
                0x0080d734                __malloc_unlock
 .text          0x0080d754      0x180 ../cs303a2_bsp/\libhal_bsp.a(alt_read.o)
                0x0080d754                read
 .text          0x0080d8d4       0x60 ../cs303a2_bsp/\libhal_bsp.a(alt_release_fd.o)
                0x0080d8d4                alt_release_fd
 .text          0x0080d934       0xbc ../cs303a2_bsp/\libhal_bsp.a(alt_sbrk.o)
                0x0080d934                sbrk
 .text          0x0080d9f0      0x1a4 ../cs303a2_bsp/\libhal_bsp.a(alt_tick.o)
                0x0080d9f0                alt_alarm_stop
                0x0080da88                alt_tick
 .text          0x0080db94      0x180 ../cs303a2_bsp/\libhal_bsp.a(alt_write.o)
                0x0080db94                write
 .text          0x0080dd14      0x100 ../cs303a2_bsp/\libhal_bsp.a(alt_sys_init.o)
                0x0080dd14                alt_irq_init
                0x0080dd48                alt_sys_init
 .text          0x0080de14      0x148 ../cs303a2_bsp/\libhal_bsp.a(altera_avalon_jtag_uart_fd.o)
                0x0080de14                altera_avalon_jtag_uart_read_fd
                0x0080de6c                altera_avalon_jtag_uart_write_fd
                0x0080dec4                altera_avalon_jtag_uart_close_fd
                0x0080df0c                altera_avalon_jtag_uart_ioctl_fd
 .text          0x0080df5c      0x40c ../cs303a2_bsp/\libhal_bsp.a(altera_avalon_jtag_uart_init.o)
                0x0080df5c                altera_avalon_jtag_uart_init
                0x0080e2f4                altera_avalon_jtag_uart_close
 .text          0x0080e368       0xf4 ../cs303a2_bsp/\libhal_bsp.a(altera_avalon_jtag_uart_ioctl.o)
                0x0080e368                altera_avalon_jtag_uart_ioctl
 .text          0x0080e45c      0x224 ../cs303a2_bsp/\libhal_bsp.a(altera_avalon_jtag_uart_read.o)
                0x0080e45c                altera_avalon_jtag_uart_read
 .text          0x0080e680      0x240 ../cs303a2_bsp/\libhal_bsp.a(altera_avalon_jtag_uart_write.o)
                0x0080e680                altera_avalon_jtag_uart_write
 .text          0x0080e8c0      0xee8 ../cs303a2_bsp/\libhal_bsp.a(altera_avalon_lcd_16207.o)
                0x0080f094                altera_avalon_lcd_16207_write
                0x0080f66c                altera_avalon_lcd_16207_init
 .text          0x0080f7a8       0x58 ../cs303a2_bsp/\libhal_bsp.a(altera_avalon_lcd_16207_fd.o)
                0x0080f7a8                altera_avalon_lcd_16207_write_fd
 .text          0x0080f800      0x100 ../cs303a2_bsp/\libhal_bsp.a(altera_avalon_timer_sc.o)
                0x0080f870                alt_avalon_timer_sc_init
 .text          0x0080f900       0xf8 ../cs303a2_bsp/\libhal_bsp.a(altera_avalon_uart_fd.o)
                0x0080f900                altera_avalon_uart_read_fd
                0x0080f958                altera_avalon_uart_write_fd
                0x0080f9b0                altera_avalon_uart_close_fd
 .text          0x0080f9f8      0x400 ../cs303a2_bsp/\libhal_bsp.a(altera_avalon_uart_init.o)
                0x0080f9f8                altera_avalon_uart_init
                0x0080fd98                altera_avalon_uart_close
 .text          0x0080fdf8      0x290 ../cs303a2_bsp/\libhal_bsp.a(altera_avalon_uart_read.o)
                0x0080fdf8                altera_avalon_uart_read
 .text          0x00810088      0x228 ../cs303a2_bsp/\libhal_bsp.a(altera_avalon_uart_write.o)
                0x00810088                altera_avalon_uart_write
 .text          0x008102b0       0x44 ../cs303a2_bsp/\libhal_bsp.a(alt_dcache_flush_all.o)
                0x008102b0                alt_dcache_flush_all
 .text          0x008102f4      0x114 ../cs303a2_bsp/\libhal_bsp.a(alt_dev_llist_insert.o)
                0x008102f4                alt_dev_llist_insert
 .text          0x00810408       0x64 ../cs303a2_bsp/\libhal_bsp.a(alt_do_ctors.o)
                0x00810408                _do_ctors
 .text          0x0081046c       0x64 ../cs303a2_bsp/\libhal_bsp.a(alt_do_dtors.o)
                0x0081046c                _do_dtors
 .text          0x008104d0       0x30 ../cs303a2_bsp/\libhal_bsp.a(alt_icache_flush_all.o)
                0x008104d0                alt_icache_flush_all
 .text          0x00810500      0x1d4 ../cs303a2_bsp/\libhal_bsp.a(alt_iic.o)
                0x00810500                alt_ic_isr_register
                0x00810550                alt_ic_irq_enable
                0x008105ec                alt_ic_irq_disable
                0x0081068c                alt_ic_irq_enabled
 .text          0x008106d4       0xf8 ../cs303a2_bsp/\libhal_bsp.a(alt_iic_isr_register.o)
                0x008106d4                alt_iic_isr_register
 .text          0x008107cc      0x13c ../cs303a2_bsp/\libhal_bsp.a(alt_io_redirect.o)
                0x00810890                alt_io_redirect
 .text          0x00810908        0x0 ../cs303a2_bsp/\libhal_bsp.a(alt_irq_entry.o)
 .text          0x00810908        0x0 ../cs303a2_bsp/\libhal_bsp.a(alt_irq_handler.o)
 .text          0x00810908      0x2c4 ../cs303a2_bsp/\libhal_bsp.a(alt_open.o)
                0x008109e4                open
 .text          0x00810bcc       0x30 ../cs303a2_bsp/\libhal_bsp.a(alt_usleep.o)
                0x00810bcc                usleep
 .text          0x00810bfc       0x20 ../cs303a2_bsp/\libhal_bsp.a(altera_nios2_qsys_irq.o)
                0x00810bfc                altera_nios2_qsys_irq_init
 .text          0x00810c1c      0x14c ../cs303a2_bsp/\libhal_bsp.a(alt_busy_sleep.o)
                0x00810c1c                alt_busy_sleep
 .text          0x00810d68        0x0 ../cs303a2_bsp/\libhal_bsp.a(alt_exception_entry.o)
 .text          0x00810d68       0x94 ../cs303a2_bsp/\libhal_bsp.a(alt_find_dev.o)
                0x00810d68                alt_find_dev
 .text          0x00810dfc      0x120 ../cs303a2_bsp/\libhal_bsp.a(alt_find_file.o)
                0x00810dfc                alt_find_file
 .text          0x00810f1c       0xb8 ../cs303a2_bsp/\libhal_bsp.a(alt_get_fd.o)
                0x00810f1c                alt_get_fd
 .text          0x00810fd4       0x90 ../cs303a2_bsp/\libhal_bsp.a(alt_icache_flush.o)
                0x00810fd4                alt_icache_flush
 .text          0x00811064       0x14 c:/altera/13.0/nios2eds/bin/gnu/h-i686-mingw32/bin/../lib/gcc/nios2-elf/4.1.2/../../../../nios2-elf/lib\libc.a(lib_a-atexit.o)
                0x00811064                atexit
 .text          0x00811078        0x0 c:/altera/13.0/nios2eds/bin/gnu/h-i686-mingw32/bin/../lib/gcc/nios2-elf/4.1.2/../../../../nios2-elf/lib\libc.a(lib_a-ctype_.o)
 .text          0x00811078       0x38 c:/altera/13.0/nios2eds/bin/gnu/h-i686-mingw32/bin/../lib/gcc/nios2-elf/4.1.2/../../../../nios2-elf/lib\libc.a(lib_a-exit.o)
                0x00811078                exit
 .text          0x008110b0       0x74 c:/altera/13.0/nios2eds/bin/gnu/h-i686-mingw32/bin/../lib/gcc/nios2-elf/4.1.2/../../../../nios2-elf/lib\libc.a(lib_a-memcmp.o)
                0x008110b0                memcmp
 .text          0x00811124      0x134 c:/altera/13.0/nios2eds/bin/gnu/h-i686-mingw32/bin/../lib/gcc/nios2-elf/4.1.2/../../../../nios2-elf/lib\libc.a(lib_a-__atexit.o)
                0x00811124                __register_exitproc
 .text          0x00811258      0x1b4 c:/altera/13.0/nios2eds/bin/gnu/h-i686-mingw32/bin/../lib/gcc/nios2-elf/4.1.2/../../../../nios2-elf/lib\libc.a(lib_a-__call_atexit.o)
                0x0081125c                __call_exitprocs
 .text          0x0081140c       0x60 ../cs303a2_bsp/\libhal_bsp.a(alt_exit.o)
                0x0081144c                _exit
 *(.gnu.warning.*)
 *(.fini)
                0x0081146c                PROVIDE (__etext, ABSOLUTE (.))
                0x0081146c                PROVIDE (_etext, ABSOLUTE (.))
                0x0081146c                PROVIDE (etext, ABSOLUTE (.))
 *(.eh_frame_hdr)
                0x0081146c                . = ALIGN (0x4)
                0x0081146c                PROVIDE (__preinit_array_start, ABSOLUTE (.))
 *(.preinit_array)
                0x0081146c                PROVIDE (__preinit_array_end, ABSOLUTE (.))
                0x0081146c                PROVIDE (__init_array_start, ABSOLUTE (.))
 *(.init_array)
                0x0081146c                PROVIDE (__init_array_end, ABSOLUTE (.))
                0x0081146c                PROVIDE (__fini_array_start, ABSOLUTE (.))
 *(.fini_array)
                0x0081146c                PROVIDE (__fini_array_end, ABSOLUTE (.))
 *(.eh_frame)
 *(.gcc_except_table)
 *(.dynamic)
                0x0081146c                PROVIDE (__CTOR_LIST__, ABSOLUTE (.))
 *(.ctors)
 *(SORT(.ctors.*))
 .ctors.65535   0x0081146c        0x4 c:/altera/13.0/nios2eds/bin/gnu/h-i686-mingw32/bin/../lib/gcc/nios2-elf/4.1.2/../../../../nios2-elf/lib\libc.a(lib_a-__call_atexit.o)
                0x00811470                PROVIDE (__CTOR_END__, ABSOLUTE (.))
                0x00811470                PROVIDE (__DTOR_LIST__, ABSOLUTE (.))
 *(.dtors)
 *(SORT(.dtors.*))
                0x00811470                PROVIDE (__DTOR_END__, ABSOLUTE (.))
 *(.jcr)
                0x00811470                . = ALIGN (0x4)

.rodata         0x00811470      0x5ec
                0x00811470                PROVIDE (__ram_rodata_start, ABSOLUTE (.))
                0x00811470                . = ALIGN (0x4)
 *(.rodata .rodata.* .gnu.linkonce.r.*)
 .rodata        0x00811470       0x18 obj/default/hello_world.o
 .rodata.str1.4
                0x00811488       0x5e c:/altera/13.0/nios2eds/bin/gnu/h-i686-mingw32/bin/../lib/gcc/nios2-elf/4.1.2/../../../../nios2-elf/lib\libc.a(lib_a-vfprintf.o)
                                 0x60 (size before relaxing)
 *fill*         0x008114e6        0x2 00
 .rodata        0x008114e8       0x20 c:/altera/13.0/nios2eds/bin/gnu/h-i686-mingw32/bin/../lib/gcc/nios2-elf/4.1.2/../../../../nios2-elf/lib\libc.a(lib_a-vfprintf.o)
 .rodata.str1.4
                0x00811508       0x10 c:/altera/13.0/nios2eds/bin/gnu/h-i686-mingw32/bin/../lib/gcc/nios2-elf/4.1.2/../../../../nios2-elf/lib\libc.a(lib_a-dtoa.o)
                                 0x14 (size before relaxing)
 .rodata.str1.4
                0x00811518        0x2 c:/altera/13.0/nios2eds/bin/gnu/h-i686-mingw32/bin/../lib/gcc/nios2-elf/4.1.2/../../../../nios2-elf/lib\libc.a(lib_a-impure.o)
                                  0x4 (size before relaxing)
 *fill*         0x0081151a        0x2 00
 .rodata.str1.4
                0x0081151c       0x10 c:/altera/13.0/nios2eds/bin/gnu/h-i686-mingw32/bin/../lib/gcc/nios2-elf/4.1.2/../../../../nios2-elf/lib\libc.a(lib_a-locale.o)
                                 0x18 (size before relaxing)
 .rodata        0x0081152c       0x30 c:/altera/13.0/nios2eds/bin/gnu/h-i686-mingw32/bin/../lib/gcc/nios2-elf/4.1.2/../../../../nios2-elf/lib\libc.a(lib_a-locale.o)
 .rodata        0x0081155c      0x124 c:/altera/13.0/nios2eds/bin/gnu/h-i686-mingw32/bin/../lib/gcc/nios2-elf/4.1.2/../../../../nios2-elf/lib\libc.a(lib_a-mprec.o)
                0x0081155c                __mprec_tens
                0x00811624                __mprec_bigtens
                0x0081164c                __mprec_tinytens
 .rodata        0x00811680       0x14 c:/altera/13.0/nios2eds/bin/gnu/h-i686-mingw32/bin/../lib/gcc/nios2-elf/4.1.2\libgcc.a(_thenan_df.o)
                0x00811680                __thenan_df
 .rodata        0x00811694      0x100 c:/altera/13.0/nios2eds/bin/gnu/h-i686-mingw32/bin/../lib/gcc/nios2-elf/4.1.2\libgcc.a(_clz.o)
                0x00811694                __clz_tab
 .rodata        0x00811794        0xc ../cs303a2_bsp/\libhal_bsp.a(alt_dev.o)
 .rodata        0x008117a0       0x10 ../cs303a2_bsp/\libhal_bsp.a(alt_main.o)
 .rodata        0x008117b0       0x28 ../cs303a2_bsp/\libhal_bsp.a(alt_sys_init.o)
 .rodata        0x008117d8      0x284 c:/altera/13.0/nios2eds/bin/gnu/h-i686-mingw32/bin/../lib/gcc/nios2-elf/4.1.2/../../../../nios2-elf/lib\libc.a(lib_a-ctype_.o)
                0x008117d8                _ctype_
 *(.rodata1)
                0x00811a5c                . = ALIGN (0x4)
                0x00811a5c                PROVIDE (__ram_rodata_end, ABSOLUTE (.))
                0x00811470                PROVIDE (__flash_rodata_start, LOADADDR (.rodata))

.rwdata         0x00811a5c     0x1c48 load address 0x008136a4
                0x00811a5c                PROVIDE (__ram_rwdata_start, ABSOLUTE (.))
                0x00811a5c                . = ALIGN (0x4)
 *(.got.plt)
 *(.got)
 *(.data1)
 *(.data .data.* .gnu.linkonce.d.*)
 .data          0x00811a5c        0x0 ../cs303a2_bsp//obj/HAL/src/crt0.o
 .data          0x00811a5c        0x0 obj/default/hello_world.o
 .data          0x00811a5c        0x0 obj/default/sccharts.o
 .data          0x00811a5c        0x0 c:/altera/13.0/nios2eds/bin/gnu/h-i686-mingw32/bin/../lib/gcc/nios2-elf/4.1.2/../../../../nios2-elf/lib\libc.a(lib_a-printf.o)
 .data          0x00811a5c        0x0 c:/altera/13.0/nios2eds/bin/gnu/h-i686-mingw32/bin/../lib/gcc/nios2-elf/4.1.2/../../../../nios2-elf/lib\libc.a(lib_a-vfprintf.o)
 .data          0x00811a5c        0x0 c:/altera/13.0/nios2eds/bin/gnu/h-i686-mingw32/bin/../lib/gcc/nios2-elf/4.1.2/../../../../nios2-elf/lib\libc.a(lib_a-wsetup.o)
 .data          0x00811a5c        0x0 c:/altera/13.0/nios2eds/bin/gnu/h-i686-mingw32/bin/../lib/gcc/nios2-elf/4.1.2/../../../../nios2-elf/lib\libc.a(lib_a-dtoa.o)
 .data          0x00811a5c        0x0 c:/altera/13.0/nios2eds/bin/gnu/h-i686-mingw32/bin/../lib/gcc/nios2-elf/4.1.2/../../../../nios2-elf/lib\libc.a(lib_a-fflush.o)
 .data          0x00811a5c        0x0 c:/altera/13.0/nios2eds/bin/gnu/h-i686-mingw32/bin/../lib/gcc/nios2-elf/4.1.2/../../../../nios2-elf/lib\libc.a(lib_a-findfp.o)
 .data          0x00811a5c        0x0 c:/altera/13.0/nios2eds/bin/gnu/h-i686-mingw32/bin/../lib/gcc/nios2-elf/4.1.2/../../../../nios2-elf/lib\libc.a(lib_a-freer.o)
 .data          0x00811a5c        0x0 c:/altera/13.0/nios2eds/bin/gnu/h-i686-mingw32/bin/../lib/gcc/nios2-elf/4.1.2/../../../../nios2-elf/lib\libc.a(lib_a-fvwrite.o)
 .data          0x00811a5c        0x0 c:/altera/13.0/nios2eds/bin/gnu/h-i686-mingw32/bin/../lib/gcc/nios2-elf/4.1.2/../../../../nios2-elf/lib\libc.a(lib_a-fwalk.o)
 .data          0x00811a5c      0x400 c:/altera/13.0/nios2eds/bin/gnu/h-i686-mingw32/bin/../lib/gcc/nios2-elf/4.1.2/../../../../nios2-elf/lib\libc.a(lib_a-impure.o)
 .data          0x00811e5c        0xc c:/altera/13.0/nios2eds/bin/gnu/h-i686-mingw32/bin/../lib/gcc/nios2-elf/4.1.2/../../../../nios2-elf/lib\libc.a(lib_a-locale.o)
                0x00811e5c                __lc_ctype
 .data          0x00811e68        0x0 c:/altera/13.0/nios2eds/bin/gnu/h-i686-mingw32/bin/../lib/gcc/nios2-elf/4.1.2/../../../../nios2-elf/lib\libc.a(lib_a-makebuf.o)
 .data          0x00811e68      0x408 c:/altera/13.0/nios2eds/bin/gnu/h-i686-mingw32/bin/../lib/gcc/nios2-elf/4.1.2/../../../../nios2-elf/lib\libc.a(lib_a-mallocr.o)
                0x00811e68                __malloc_av_
 .data          0x00812270        0x0 c:/altera/13.0/nios2eds/bin/gnu/h-i686-mingw32/bin/../lib/gcc/nios2-elf/4.1.2/../../../../nios2-elf/lib\libc.a(lib_a-memchr.o)
 .data          0x00812270        0x0 c:/altera/13.0/nios2eds/bin/gnu/h-i686-mingw32/bin/../lib/gcc/nios2-elf/4.1.2/../../../../nios2-elf/lib\libc.a(lib_a-memcpy.o)
 .data          0x00812270        0x0 c:/altera/13.0/nios2eds/bin/gnu/h-i686-mingw32/bin/../lib/gcc/nios2-elf/4.1.2/../../../../nios2-elf/lib\libc.a(lib_a-memmove.o)
 .data          0x00812270        0x0 c:/altera/13.0/nios2eds/bin/gnu/h-i686-mingw32/bin/../lib/gcc/nios2-elf/4.1.2/../../../../nios2-elf/lib\libc.a(lib_a-memset.o)
 .data          0x00812270        0x0 c:/altera/13.0/nios2eds/bin/gnu/h-i686-mingw32/bin/../lib/gcc/nios2-elf/4.1.2/../../../../nios2-elf/lib\libc.a(lib_a-mprec.o)
 .data          0x00812270        0x0 c:/altera/13.0/nios2eds/bin/gnu/h-i686-mingw32/bin/../lib/gcc/nios2-elf/4.1.2/../../../../nios2-elf/lib\libc.a(lib_a-reallocr.o)
 .data          0x00812270        0x0 c:/altera/13.0/nios2eds/bin/gnu/h-i686-mingw32/bin/../lib/gcc/nios2-elf/4.1.2/../../../../nios2-elf/lib\libc.a(lib_a-s_isinfd.o)
 .data          0x00812270        0x0 c:/altera/13.0/nios2eds/bin/gnu/h-i686-mingw32/bin/../lib/gcc/nios2-elf/4.1.2/../../../../nios2-elf/lib\libc.a(lib_a-s_isnand.o)
 .data          0x00812270        0x0 c:/altera/13.0/nios2eds/bin/gnu/h-i686-mingw32/bin/../lib/gcc/nios2-elf/4.1.2/../../../../nios2-elf/lib\libc.a(lib_a-sbrkr.o)
 .data          0x00812270        0x0 c:/altera/13.0/nios2eds/bin/gnu/h-i686-mingw32/bin/../lib/gcc/nios2-elf/4.1.2/../../../../nios2-elf/lib\libc.a(lib_a-stdio.o)
 .data          0x00812270        0x0 c:/altera/13.0/nios2eds/bin/gnu/h-i686-mingw32/bin/../lib/gcc/nios2-elf/4.1.2/../../../../nios2-elf/lib\libc.a(lib_a-strcmp.o)
 .data          0x00812270        0x0 c:/altera/13.0/nios2eds/bin/gnu/h-i686-mingw32/bin/../lib/gcc/nios2-elf/4.1.2/../../../../nios2-elf/lib\libc.a(lib_a-strlen.o)
 .data          0x00812270        0x0 c:/altera/13.0/nios2eds/bin/gnu/h-i686-mingw32/bin/../lib/gcc/nios2-elf/4.1.2/../../../../nios2-elf/lib\libc.a(lib_a-writer.o)
 .data          0x00812270        0x0 c:/altera/13.0/nios2eds/bin/gnu/h-i686-mingw32/bin/../lib/gcc/nios2-elf/4.1.2/../../../../nios2-elf/lib\libc.a(lib_a-callocr.o)
 .data          0x00812270        0x0 c:/altera/13.0/nios2eds/bin/gnu/h-i686-mingw32/bin/../lib/gcc/nios2-elf/4.1.2/../../../../nios2-elf/lib\libc.a(lib_a-closer.o)
 .data          0x00812270        0x0 c:/altera/13.0/nios2eds/bin/gnu/h-i686-mingw32/bin/../lib/gcc/nios2-elf/4.1.2/../../../../nios2-elf/lib\libc.a(lib_a-fclose.o)
 .data          0x00812270        0x0 c:/altera/13.0/nios2eds/bin/gnu/h-i686-mingw32/bin/../lib/gcc/nios2-elf/4.1.2/../../../../nios2-elf/lib\libc.a(lib_a-fstatr.o)
 .data          0x00812270        0x0 c:/altera/13.0/nios2eds/bin/gnu/h-i686-mingw32/bin/../lib/gcc/nios2-elf/4.1.2/../../../../nios2-elf/lib\libc.a(lib_a-int_errno.o)
 .data          0x00812270        0x0 c:/altera/13.0/nios2eds/bin/gnu/h-i686-mingw32/bin/../lib/gcc/nios2-elf/4.1.2/../../../../nios2-elf/lib\libc.a(lib_a-isattyr.o)
 .data          0x00812270        0x0 c:/altera/13.0/nios2eds/bin/gnu/h-i686-mingw32/bin/../lib/gcc/nios2-elf/4.1.2/../../../../nios2-elf/lib\libc.a(lib_a-lseekr.o)
 .data          0x00812270        0x0 c:/altera/13.0/nios2eds/bin/gnu/h-i686-mingw32/bin/../lib/gcc/nios2-elf/4.1.2/../../../../nios2-elf/lib\libc.a(lib_a-readr.o)
 .data          0x00812270        0x0 c:/altera/13.0/nios2eds/bin/gnu/h-i686-mingw32/bin/../lib/gcc/nios2-elf/4.1.2\libgcc.a(_udivdi3.o)
 .data          0x00812270        0x0 c:/altera/13.0/nios2eds/bin/gnu/h-i686-mingw32/bin/../lib/gcc/nios2-elf/4.1.2\libgcc.a(_umoddi3.o)
 .data          0x00812270        0x0 c:/altera/13.0/nios2eds/bin/gnu/h-i686-mingw32/bin/../lib/gcc/nios2-elf/4.1.2\libgcc.a(_addsub_df.o)
 .data          0x00812270        0x0 c:/altera/13.0/nios2eds/bin/gnu/h-i686-mingw32/bin/../lib/gcc/nios2-elf/4.1.2\libgcc.a(_mul_df.o)
 .data          0x00812270        0x0 c:/altera/13.0/nios2eds/bin/gnu/h-i686-mingw32/bin/../lib/gcc/nios2-elf/4.1.2\libgcc.a(_div_df.o)
 .data          0x00812270        0x0 c:/altera/13.0/nios2eds/bin/gnu/h-i686-mingw32/bin/../lib/gcc/nios2-elf/4.1.2\libgcc.a(_eq_df.o)
 .data          0x00812270        0x0 c:/altera/13.0/nios2eds/bin/gnu/h-i686-mingw32/bin/../lib/gcc/nios2-elf/4.1.2\libgcc.a(_ne_df.o)
 .data          0x00812270        0x0 c:/altera/13.0/nios2eds/bin/gnu/h-i686-mingw32/bin/../lib/gcc/nios2-elf/4.1.2\libgcc.a(_gt_df.o)
 .data          0x00812270        0x0 c:/altera/13.0/nios2eds/bin/gnu/h-i686-mingw32/bin/../lib/gcc/nios2-elf/4.1.2\libgcc.a(_ge_df.o)
 .data          0x00812270        0x0 c:/altera/13.0/nios2eds/bin/gnu/h-i686-mingw32/bin/../lib/gcc/nios2-elf/4.1.2\libgcc.a(_lt_df.o)
 .data          0x00812270        0x0 c:/altera/13.0/nios2eds/bin/gnu/h-i686-mingw32/bin/../lib/gcc/nios2-elf/4.1.2\libgcc.a(_si_to_df.o)
 .data          0x00812270        0x0 c:/altera/13.0/nios2eds/bin/gnu/h-i686-mingw32/bin/../lib/gcc/nios2-elf/4.1.2\libgcc.a(_df_to_si.o)
 .data          0x00812270        0x0 c:/altera/13.0/nios2eds/bin/gnu/h-i686-mingw32/bin/../lib/gcc/nios2-elf/4.1.2\libgcc.a(_thenan_df.o)
 .data          0x00812270        0x0 c:/altera/13.0/nios2eds/bin/gnu/h-i686-mingw32/bin/../lib/gcc/nios2-elf/4.1.2\libgcc.a(_usi_to_df.o)
 .data          0x00812270        0x0 c:/altera/13.0/nios2eds/bin/gnu/h-i686-mingw32/bin/../lib/gcc/nios2-elf/4.1.2\libgcc.a(lib2-divmod.o)
 .data          0x00812270        0x0 c:/altera/13.0/nios2eds/bin/gnu/h-i686-mingw32/bin/../lib/gcc/nios2-elf/4.1.2\libgcc.a(_muldi3.o)
 .data          0x00812270        0x0 c:/altera/13.0/nios2eds/bin/gnu/h-i686-mingw32/bin/../lib/gcc/nios2-elf/4.1.2\libgcc.a(_clz.o)
 .data          0x00812270        0x0 c:/altera/13.0/nios2eds/bin/gnu/h-i686-mingw32/bin/../lib/gcc/nios2-elf/4.1.2\libgcc.a(_clzsi2.o)
 .data          0x00812270        0x0 c:/altera/13.0/nios2eds/bin/gnu/h-i686-mingw32/bin/../lib/gcc/nios2-elf/4.1.2\libgcc.a(_pack_df.o)
 .data          0x00812270        0x0 c:/altera/13.0/nios2eds/bin/gnu/h-i686-mingw32/bin/../lib/gcc/nios2-elf/4.1.2\libgcc.a(_unpack_df.o)
 .data          0x00812270        0x0 c:/altera/13.0/nios2eds/bin/gnu/h-i686-mingw32/bin/../lib/gcc/nios2-elf/4.1.2\libgcc.a(_fpcmp_parts_df.o)
 .data          0x00812270        0x0 ../cs303a2_bsp/\libhal_bsp.a(alt_alarm_start.o)
 .data          0x00812270        0x0 ../cs303a2_bsp/\libhal_bsp.a(alt_close.o)
 .data          0x00812270      0x1a8 ../cs303a2_bsp/\libhal_bsp.a(alt_dev.o)
                0x00812270                alt_dev_null
                0x00812298                alt_fd_list
 .data          0x00812418        0x0 ../cs303a2_bsp/\libhal_bsp.a(alt_errno.o)
 .data          0x00812418        0x0 ../cs303a2_bsp/\libhal_bsp.a(alt_fstat.o)
 .data          0x00812418        0x0 ../cs303a2_bsp/\libhal_bsp.a(alt_irq_register.o)
 .data          0x00812418        0x0 ../cs303a2_bsp/\libhal_bsp.a(alt_irq_vars.o)
 .data          0x00812418        0x0 ../cs303a2_bsp/\libhal_bsp.a(alt_isatty.o)
 .data          0x00812418        0x0 ../cs303a2_bsp/\libhal_bsp.a(alt_load.o)
 .data          0x00812418        0x0 ../cs303a2_bsp/\libhal_bsp.a(alt_lseek.o)
 .data          0x00812418        0x0 ../cs303a2_bsp/\libhal_bsp.a(alt_main.o)
 .data          0x00812418        0x0 ../cs303a2_bsp/\libhal_bsp.a(alt_malloc_lock.o)
 .data          0x00812418        0x0 ../cs303a2_bsp/\libhal_bsp.a(alt_read.o)
 .data          0x00812418        0x0 ../cs303a2_bsp/\libhal_bsp.a(alt_release_fd.o)
 .data          0x00812418        0x0 ../cs303a2_bsp/\libhal_bsp.a(alt_sbrk.o)
 .data          0x00812418        0x0 ../cs303a2_bsp/\libhal_bsp.a(alt_tick.o)
 .data          0x00812418        0x0 ../cs303a2_bsp/\libhal_bsp.a(alt_write.o)
 .data          0x00812418     0x1244 ../cs303a2_bsp/\libhal_bsp.a(alt_sys_init.o)
 .data          0x0081365c        0x0 ../cs303a2_bsp/\libhal_bsp.a(altera_avalon_jtag_uart_fd.o)
 .data          0x0081365c        0x0 ../cs303a2_bsp/\libhal_bsp.a(altera_avalon_jtag_uart_init.o)
 .data          0x0081365c        0x0 ../cs303a2_bsp/\libhal_bsp.a(altera_avalon_jtag_uart_ioctl.o)
 .data          0x0081365c        0x0 ../cs303a2_bsp/\libhal_bsp.a(altera_avalon_jtag_uart_read.o)
 .data          0x0081365c        0x0 ../cs303a2_bsp/\libhal_bsp.a(altera_avalon_jtag_uart_write.o)
 .data          0x0081365c        0x0 ../cs303a2_bsp/\libhal_bsp.a(altera_avalon_lcd_16207.o)
 .data          0x0081365c        0x0 ../cs303a2_bsp/\libhal_bsp.a(altera_avalon_lcd_16207_fd.o)
 .data          0x0081365c        0x0 ../cs303a2_bsp/\libhal_bsp.a(altera_avalon_timer_sc.o)
 .data          0x0081365c        0x0 ../cs303a2_bsp/\libhal_bsp.a(altera_avalon_uart_fd.o)
 .data          0x0081365c        0x0 ../cs303a2_bsp/\libhal_bsp.a(altera_avalon_uart_init.o)
 .data          0x0081365c        0x0 ../cs303a2_bsp/\libhal_bsp.a(altera_avalon_uart_read.o)
 .data          0x0081365c        0x0 ../cs303a2_bsp/\libhal_bsp.a(altera_avalon_uart_write.o)
 .data          0x0081365c        0x0 ../cs303a2_bsp/\libhal_bsp.a(alt_dcache_flush_all.o)
 .data          0x0081365c        0x0 ../cs303a2_bsp/\libhal_bsp.a(alt_dev_llist_insert.o)
 .data          0x0081365c        0x0 ../cs303a2_bsp/\libhal_bsp.a(alt_do_ctors.o)
 .data          0x0081365c        0x0 ../cs303a2_bsp/\libhal_bsp.a(alt_do_dtors.o)
 .data          0x0081365c        0x0 ../cs303a2_bsp/\libhal_bsp.a(alt_icache_flush_all.o)
 .data          0x0081365c        0x0 ../cs303a2_bsp/\libhal_bsp.a(alt_iic.o)
 .data          0x0081365c        0x0 ../cs303a2_bsp/\libhal_bsp.a(alt_iic_isr_register.o)
 .data          0x0081365c        0x0 ../cs303a2_bsp/\libhal_bsp.a(alt_io_redirect.o)
 .data          0x0081365c        0x0 ../cs303a2_bsp/\libhal_bsp.a(alt_irq_entry.o)
 .data          0x0081365c        0x0 ../cs303a2_bsp/\libhal_bsp.a(alt_irq_handler.o)
 .data          0x0081365c        0x0 ../cs303a2_bsp/\libhal_bsp.a(alt_open.o)
 .data          0x0081365c        0x0 ../cs303a2_bsp/\libhal_bsp.a(alt_usleep.o)
 .data          0x0081365c        0x0 ../cs303a2_bsp/\libhal_bsp.a(altera_nios2_qsys_irq.o)
 .data          0x0081365c        0x0 ../cs303a2_bsp/\libhal_bsp.a(alt_busy_sleep.o)
 .data          0x0081365c        0x0 ../cs303a2_bsp/\libhal_bsp.a(alt_exception_entry.o)
 .data          0x0081365c        0x0 ../cs303a2_bsp/\libhal_bsp.a(alt_find_dev.o)
 .data          0x0081365c        0x0 ../cs303a2_bsp/\libhal_bsp.a(alt_find_file.o)
 .data          0x0081365c        0x0 ../cs303a2_bsp/\libhal_bsp.a(alt_get_fd.o)
 .data          0x0081365c        0x0 ../cs303a2_bsp/\libhal_bsp.a(alt_icache_flush.o)
 .data          0x0081365c        0x0 c:/altera/13.0/nios2eds/bin/gnu/h-i686-mingw32/bin/../lib/gcc/nios2-elf/4.1.2/../../../../nios2-elf/lib\libc.a(lib_a-atexit.o)
 .data          0x0081365c        0x0 c:/altera/13.0/nios2eds/bin/gnu/h-i686-mingw32/bin/../lib/gcc/nios2-elf/4.1.2/../../../../nios2-elf/lib\libc.a(lib_a-ctype_.o)
 .data          0x0081365c        0x0 c:/altera/13.0/nios2eds/bin/gnu/h-i686-mingw32/bin/../lib/gcc/nios2-elf/4.1.2/../../../../nios2-elf/lib\libc.a(lib_a-exit.o)
 .data          0x0081365c        0x0 c:/altera/13.0/nios2eds/bin/gnu/h-i686-mingw32/bin/../lib/gcc/nios2-elf/4.1.2/../../../../nios2-elf/lib\libc.a(lib_a-memcmp.o)
 .data          0x0081365c        0x0 c:/altera/13.0/nios2eds/bin/gnu/h-i686-mingw32/bin/../lib/gcc/nios2-elf/4.1.2/../../../../nios2-elf/lib\libc.a(lib_a-__atexit.o)
 .data          0x0081365c        0x0 c:/altera/13.0/nios2eds/bin/gnu/h-i686-mingw32/bin/../lib/gcc/nios2-elf/4.1.2/../../../../nios2-elf/lib\libc.a(lib_a-__call_atexit.o)
 .data          0x0081365c        0x0 ../cs303a2_bsp/\libhal_bsp.a(alt_exit.o)
                0x0081b65c                _gp = ABSOLUTE ((. + 0x8000))
                0x0081b65c                PROVIDE (gp, _gp)
 *(.rwdata .rwdata.*)
 *(.sdata .sdata.* .gnu.linkonce.s.*)
 .sdata         0x0081365c        0x8 c:/altera/13.0/nios2eds/bin/gnu/h-i686-mingw32/bin/../lib/gcc/nios2-elf/4.1.2/../../../../nios2-elf/lib\libc.a(lib_a-impure.o)
                0x0081365c                _impure_ptr
                0x00813660                _global_impure_ptr
 .sdata         0x00813664        0x8 c:/altera/13.0/nios2eds/bin/gnu/h-i686-mingw32/bin/../lib/gcc/nios2-elf/4.1.2/../../../../nios2-elf/lib\libc.a(lib_a-locale.o)
                0x00813664                __mb_cur_max
 .sdata         0x0081366c        0x8 c:/altera/13.0/nios2eds/bin/gnu/h-i686-mingw32/bin/../lib/gcc/nios2-elf/4.1.2/../../../../nios2-elf/lib\libc.a(lib_a-mallocr.o)
                0x0081366c                __malloc_trim_threshold
                0x00813670                __malloc_sbrk_base
 .sdata         0x00813674       0x14 ../cs303a2_bsp/\libhal_bsp.a(alt_dev.o)
                0x00813674                alt_fs_list
                0x0081367c                alt_dev_list
                0x00813684                alt_max_fd
 .sdata         0x00813688        0x4 ../cs303a2_bsp/\libhal_bsp.a(alt_errno.o)
                0x00813688                alt_errno
 .sdata         0x0081368c        0x4 ../cs303a2_bsp/\libhal_bsp.a(alt_irq_vars.o)
                0x0081368c                alt_priority_mask
 .sdata         0x00813690        0x4 ../cs303a2_bsp/\libhal_bsp.a(alt_sbrk.o)
 .sdata         0x00813694        0x8 ../cs303a2_bsp/\libhal_bsp.a(alt_tick.o)
                0x00813694                alt_alarm_list
 .sdata         0x0081369c        0x4 ../cs303a2_bsp/\libhal_bsp.a(altera_avalon_lcd_16207.o)
 .sdata         0x008136a0        0x4 c:/altera/13.0/nios2eds/bin/gnu/h-i686-mingw32/bin/../lib/gcc/nios2-elf/4.1.2/../../../../nios2-elf/lib\libc.a(lib_a-ctype_.o)
                0x008136a0                __ctype_ptr
 *(.sdata2 .sdata2.* .gnu.linkonce.s2.*)
                0x008136a4                . = ALIGN (0x4)
                0x008136a4                _edata = ABSOLUTE (.)
                0x008136a4                PROVIDE (edata, ABSOLUTE (.))
                0x008136a4                PROVIDE (__ram_rwdata_end, ABSOLUTE (.))
                0x008136a4                PROVIDE (__flash_rwdata_start, LOADADDR (.rwdata))

.bss            0x008152ec      0x4b4
                0x008152ec                __bss_start = ABSOLUTE (.)
                0x008152ec                PROVIDE (__sbss_start, ABSOLUTE (.))
                0x008152ec                PROVIDE (___sbss_start, ABSOLUTE (.))
 *(.dynsbss)
 *(.sbss .sbss.* .gnu.linkonce.sb.*)
 .sbss          0x008152ec      0x11e obj/default/sccharts.o
                0x008152ec                g83
                0x008152ed                g40
                0x008152ee                AVI_TO
                0x008152ef                g91
                0x008152f0                APace
                0x008152f1                _DDDPacemaker_local_AEI_ex
                0x008152f2                g4
                0x008152f3                g108
                0x008152f4                g19
                0x008152f5                g111
                0x008152f6                PRE_g38
                0x008152f7                PRE_g102
                0x008152f8                VRP_TO
                0x008152f9                g55
                0x008152fa                _cg59
                0x008152fb                g27
                0x008152fc                _DDDPacemaker_local_AVI_start
                0x008152fd                _cg116
                0x008152fe                g112
                0x008152ff                g126_fix2
                0x00815300                g3
                0x00815301                PRE_g63
                0x00815302                _DDDPacemaker_local_VRP_stop
                0x00815303                g103
                0x00815304                g47
                0x00815305                g42
                0x00815306                g85
                0x00815307                g9
                0x00815308                g127
                0x00815309                _cg7
                0x0081530c                _PRE_GO
                0x00815310                PRE_g3
                0x00815311                g102
                0x00815312                PRE_g29
                0x00815313                g115
                0x00815314                PRE_g56
                0x00815315                g87
                0x00815316                g44
                0x00815317                _DDDPacemaker_local_LRI_ex
                0x00815318                g97b
                0x00815319                g123
                0x0081531a                _cg75
                0x0081531b                g88b
                0x0081531c                g92
                0x0081531d                g1
                0x0081531e                g61
                0x0081531f                g71
                0x00815320                _DDDPacemaker_local_AVI_ex
                0x00815321                g95b
                0x00815322                g7b
                0x00815323                g126
                0x00815324                g39b
                0x00815325                g82
                0x00815326                _cg33
                0x00815327                _cg98
                0x00815328                g12
                0x00815329                g97
                0x0081532a                g52
                0x0081532b                g72_e7
                0x0081532c                LRI_TO
                0x0081532d                _cg46
                0x0081532e                _cg85
                0x0081532f                g17
                0x00815330                g76
                0x00815331                g31
                0x00815332                g37
                0x00815333                g106b
                0x00815334                g62
                0x00815335                g84
                0x00815336                g41
                0x00815337                _cg119
                0x00815338                _cg26
                0x00815339                g118
                0x0081533a                PRE_g40
                0x0081533b                PRE_g8
                0x0081533c                _cg69
                0x0081533d                PRE_g17
                0x0081533e                PRE_g94
                0x0081533f                _cg34
                0x00815340                g18
                0x00815341                PRE_g81
                0x00815342                ASense
                0x00815343                g132
                0x00815344                g48
                0x00815345                g118b
                0x00815346                g126_fix0
                0x00815347                _cg95
                0x00815348                _cg111
                0x00815349                g67b
                0x0081534a                g38
                0x0081534b                g105
                0x0081534c                _cg97
                0x0081534d                g125_e13
                0x0081534e                _cg21
                0x0081534f                PRE_g87
                0x00815350                _DDDPacemaker_local_URI_start
                0x00815351                g75b
                0x00815352                g30b
                0x00815353                g117
                0x00815354                _cg20
                0x00815355                _cg118
                0x00815356                PRE_g123
                0x00815357                _DDDPacemaker_local_LRI_stop
                0x00815358                g85b
                0x00815359                _cg82
                0x0081535a                g64
                0x0081535b                g21
                0x0081535c                _DDDPacemaker_local_AR
                0x0081535d                _cg51
                0x0081535e                g129_e1
                0x0081535f                g121_e12
                0x00815360                g79
                0x00815361                g34
                0x00815362                g5
                0x00815363                g94
                0x00815364                g110
                0x00815365                g49
                0x00815366                g2
                0x00815367                g7
                0x00815368                _cg53
                0x00815369                _cg90
                0x0081536a                g80
                0x0081536b                PRE_g25
                0x0081536c                g128
                0x0081536d                g100
                0x0081536e                g59
                0x0081536f                g54
                0x00815370                g99
                0x00815371                g23
                0x00815372                g66
                0x00815373                _DDDPacemaker_local_PVARP_ex
                0x00815374                g14
                0x00815375                PRE_g84
                0x00815376                g9b
                0x00815377                g101
                0x00815378                g114
                0x00815379                g56
                0x0081537a                g129
                0x0081537b                g131
                0x0081537c                VSense
                0x0081537d                PRE_g6
                0x0081537e                g78
                0x0081537f                g33
                0x00815380                g126_fix1
                0x00815381                g126_fix3
                0x00815382                g109b
                0x00815383                g113_e11
                0x00815384                _DDDPacemaker_local_URI_stop
                0x00815385                g122
                0x00815386                PRE_g96
                0x00815387                _cg64
                0x00815388                g103b
                0x00815389                g129_e1_fix
                0x0081538a                g134
                0x0081538b                g116b
                0x0081538c                g35
                0x0081538d                _cg71
                0x0081538e                g36_e3
                0x0081538f                g15
                0x00815390                g90
                0x00815391                g133_e2
                0x00815392                _GO
                0x00815393                PRE_g11
                0x00815394                g92_e9
                0x00815395                g43_e4
                0x00815396                g63
                0x00815397                g20
                0x00815398                g60
                0x00815399                PRE_g19
                0x0081539a                _DDDPacemaker_local_PVARP_stop
                0x0081539b                g93
                0x0081539c                g119
                0x0081539d                g129_e1_fix_fix
                0x0081539e                g43
                0x0081539f                g86
                0x008153a0                PRE_g131
                0x008153a1                _DDDPacemaker_local_PVARP_start
                0x008153a2                g36
                0x008153a3                g89
                0x008153a4                g46
                0x008153a5                _cg106
                0x008153a6                g57b
                0x008153a7                g95
                0x008153a8                g50
                0x008153a9                g96
                0x008153aa                g51
                0x008153ab                AEI_TO
                0x008153ac                g107
                0x008153ad                PRE_g74
                0x008153ae                g113
                0x008153af                g54_e5
                0x008153b0                PRE_g48
                0x008153b1                _cg41
                0x008153b2                g104
                0x008153b3                g13
                0x008153b4                PRE_g115
                0x008153b5                g53
                0x008153b6                g98
                0x008153b7                g8
                0x008153b8                g57
                0x008153b9                g70
                0x008153ba                g116
                0x008153bb                g6
                0x008153bc                _DDDPacemaker_local_URI_ex
                0x008153bd                g82b
                0x008153be                g72
                0x008153bf                _DDDPacemaker_local_VRP_ex
                0x008153c0                g81
                0x008153c1                PRE_g76
                0x008153c2                g18b
                0x008153c3                g124
                0x008153c4                _cg13
                0x008153c5                _cg9
                0x008153c6                g0
                0x008153c7                g75
                0x008153c8                g30
                0x008153c9                PRE_g58
                0x008153ca                g79_e8
                0x008153cb                PRE_g66
                0x008153cc                _cg30
                0x008153cd                _DDDPacemaker_local_VRP_start
                0x008153ce                g16
                0x008153cf                g61_e6
                0x008153d0                g58
                0x008153d1                _cg77
                0x008153d2                _cg57
                0x008153d3                g68
                0x008153d4                g25
                0x008153d5                _DDDPacemaker_local_AEI_stop
                0x008153d6                g11
                0x008153d7                g65
                0x008153d8                g22
                0x008153d9                g28
                0x008153da                g73
                0x008153db                g15_e1
                0x008153dc                _DDDPacemaker_local_VR
                0x008153dd                g125
                0x008153de                g77
                0x008153df                g32
                0x008153e0                PVARP_TO
                0x008153e1                g20b
                0x008153e2                g88
                0x008153e3                g45
                0x008153e4                _cg103
                0x008153e5                _cg18
                0x008153e6                PRE_g45
                0x008153e7                g130
                0x008153e8                g49b
                0x008153e9                _DDDPacemaker_local_LRI_start
                0x008153ea                g121
                0x008153eb                _cg109
                0x008153ec                VPace
                0x008153ed                g12b
                0x008153ee                g39
                0x008153ef                _cg88
                0x008153f0                _cg49
                0x008153f1                g120
                0x008153f2                PRE_g108
                0x008153f3                PRE_g105
                0x008153f4                g29
                0x008153f5                g67
                0x008153f6                g24
                0x008153f7                _cg4
                0x008153f8                URI_TO
                0x008153f9                g133
                0x008153fa                g109
                0x008153fb                g100_e10
                0x008153fc                _cg32
                0x008153fd                _DDDPacemaker_local_AEI_start
                0x008153fe                g4b
                0x008153ff                _cg67
                0x00815400                g106
                0x00815401                g10
                0x00815402                PRE_g117
                0x00815403                g69
                0x00815404                g26
                0x00815405                g23_e2
                0x00815406                _cg39
                0x00815407                _DDDPacemaker_local_AVI_stop
                0x00815408                g74
                0x00815409                _DDDPacemaker_local_idleURI
 *fill*         0x0081540a        0x2 00
 .sbss          0x0081540c        0xc c:/altera/13.0/nios2eds/bin/gnu/h-i686-mingw32/bin/../lib/gcc/nios2-elf/4.1.2/../../../../nios2-elf/lib\libc.a(lib_a-locale.o)
                0x0081540c                __nlocale_changed
                0x00815410                __mlocale_changed
                0x00815414                _PathLocale
 .sbss          0x00815418        0xc c:/altera/13.0/nios2eds/bin/gnu/h-i686-mingw32/bin/../lib/gcc/nios2-elf/4.1.2/../../../../nios2-elf/lib\libc.a(lib_a-mallocr.o)
                0x00815418                __malloc_top_pad
                0x0081541c                __malloc_max_sbrked_mem
                0x00815420                __malloc_max_total_mem
 .sbss          0x00815424        0x4 c:/altera/13.0/nios2eds/bin/gnu/h-i686-mingw32/bin/../lib/gcc/nios2-elf/4.1.2/../../../../nios2-elf/lib\libc.a(lib_a-int_errno.o)
                0x00815424                errno
 .sbss          0x00815428        0x4 ../cs303a2_bsp/\libhal_bsp.a(alt_irq_vars.o)
                0x00815428                alt_irq_active
 .sbss          0x0081542c        0xc ../cs303a2_bsp/\libhal_bsp.a(alt_main.o)
                0x0081542c                alt_argc
                0x00815430                alt_argv
                0x00815434                alt_envp
 .sbss          0x00815438        0x8 ../cs303a2_bsp/\libhal_bsp.a(alt_tick.o)
                0x00815438                _alt_tick_rate
                0x0081543c                _alt_nticks
 *(.sbss2 .sbss2.* .gnu.linkonce.sb2.*)
 *(.scommon)
                0x00815440                PROVIDE (__sbss_end, ABSOLUTE (.))
                0x00815440                PROVIDE (___sbss_end, ABSOLUTE (.))
 *(.dynbss)
 *(.bss .bss.* .gnu.linkonce.b.*)
 .bss           0x00815440        0x0 ../cs303a2_bsp//obj/HAL/src/crt0.o
 .bss           0x00815440       0xa8 obj/default/hello_world.o
 .bss           0x008154e8        0x0 obj/default/sccharts.o
 .bss           0x008154e8        0x0 c:/altera/13.0/nios2eds/bin/gnu/h-i686-mingw32/bin/../lib/gcc/nios2-elf/4.1.2/../../../../nios2-elf/lib\libc.a(lib_a-printf.o)
 .bss           0x008154e8        0x0 c:/altera/13.0/nios2eds/bin/gnu/h-i686-mingw32/bin/../lib/gcc/nios2-elf/4.1.2/../../../../nios2-elf/lib\libc.a(lib_a-vfprintf.o)
 .bss           0x008154e8        0x0 c:/altera/13.0/nios2eds/bin/gnu/h-i686-mingw32/bin/../lib/gcc/nios2-elf/4.1.2/../../../../nios2-elf/lib\libc.a(lib_a-wsetup.o)
 .bss           0x008154e8        0x0 c:/altera/13.0/nios2eds/bin/gnu/h-i686-mingw32/bin/../lib/gcc/nios2-elf/4.1.2/../../../../nios2-elf/lib\libc.a(lib_a-dtoa.o)
 .bss           0x008154e8        0x0 c:/altera/13.0/nios2eds/bin/gnu/h-i686-mingw32/bin/../lib/gcc/nios2-elf/4.1.2/../../../../nios2-elf/lib\libc.a(lib_a-fflush.o)
 .bss           0x008154e8        0x0 c:/altera/13.0/nios2eds/bin/gnu/h-i686-mingw32/bin/../lib/gcc/nios2-elf/4.1.2/../../../../nios2-elf/lib\libc.a(lib_a-findfp.o)
 .bss           0x008154e8        0x0 c:/altera/13.0/nios2eds/bin/gnu/h-i686-mingw32/bin/../lib/gcc/nios2-elf/4.1.2/../../../../nios2-elf/lib\libc.a(lib_a-freer.o)
 .bss           0x008154e8        0x0 c:/altera/13.0/nios2eds/bin/gnu/h-i686-mingw32/bin/../lib/gcc/nios2-elf/4.1.2/../../../../nios2-elf/lib\libc.a(lib_a-fvwrite.o)
 .bss           0x008154e8        0x0 c:/altera/13.0/nios2eds/bin/gnu/h-i686-mingw32/bin/../lib/gcc/nios2-elf/4.1.2/../../../../nios2-elf/lib\libc.a(lib_a-fwalk.o)
 .bss           0x008154e8        0x0 c:/altera/13.0/nios2eds/bin/gnu/h-i686-mingw32/bin/../lib/gcc/nios2-elf/4.1.2/../../../../nios2-elf/lib\libc.a(lib_a-impure.o)
 .bss           0x008154e8        0x0 c:/altera/13.0/nios2eds/bin/gnu/h-i686-mingw32/bin/../lib/gcc/nios2-elf/4.1.2/../../../../nios2-elf/lib\libc.a(lib_a-locale.o)
 .bss           0x008154e8        0x0 c:/altera/13.0/nios2eds/bin/gnu/h-i686-mingw32/bin/../lib/gcc/nios2-elf/4.1.2/../../../../nios2-elf/lib\libc.a(lib_a-makebuf.o)
 .bss           0x008154e8       0x28 c:/altera/13.0/nios2eds/bin/gnu/h-i686-mingw32/bin/../lib/gcc/nios2-elf/4.1.2/../../../../nios2-elf/lib\libc.a(lib_a-mallocr.o)
                0x008154e8                __malloc_current_mallinfo
 .bss           0x00815510        0x0 c:/altera/13.0/nios2eds/bin/gnu/h-i686-mingw32/bin/../lib/gcc/nios2-elf/4.1.2/../../../../nios2-elf/lib\libc.a(lib_a-memchr.o)
 .bss           0x00815510        0x0 c:/altera/13.0/nios2eds/bin/gnu/h-i686-mingw32/bin/../lib/gcc/nios2-elf/4.1.2/../../../../nios2-elf/lib\libc.a(lib_a-memcpy.o)
 .bss           0x00815510        0x0 c:/altera/13.0/nios2eds/bin/gnu/h-i686-mingw32/bin/../lib/gcc/nios2-elf/4.1.2/../../../../nios2-elf/lib\libc.a(lib_a-memmove.o)
 .bss           0x00815510        0x0 c:/altera/13.0/nios2eds/bin/gnu/h-i686-mingw32/bin/../lib/gcc/nios2-elf/4.1.2/../../../../nios2-elf/lib\libc.a(lib_a-memset.o)
 .bss           0x00815510        0x0 c:/altera/13.0/nios2eds/bin/gnu/h-i686-mingw32/bin/../lib/gcc/nios2-elf/4.1.2/../../../../nios2-elf/lib\libc.a(lib_a-mprec.o)
 .bss           0x00815510        0x0 c:/altera/13.0/nios2eds/bin/gnu/h-i686-mingw32/bin/../lib/gcc/nios2-elf/4.1.2/../../../../nios2-elf/lib\libc.a(lib_a-reallocr.o)
 .bss           0x00815510        0x0 c:/altera/13.0/nios2eds/bin/gnu/h-i686-mingw32/bin/../lib/gcc/nios2-elf/4.1.2/../../../../nios2-elf/lib\libc.a(lib_a-s_isinfd.o)
 .bss           0x00815510        0x0 c:/altera/13.0/nios2eds/bin/gnu/h-i686-mingw32/bin/../lib/gcc/nios2-elf/4.1.2/../../../../nios2-elf/lib\libc.a(lib_a-s_isnand.o)
 .bss           0x00815510        0x0 c:/altera/13.0/nios2eds/bin/gnu/h-i686-mingw32/bin/../lib/gcc/nios2-elf/4.1.2/../../../../nios2-elf/lib\libc.a(lib_a-sbrkr.o)
 .bss           0x00815510        0x0 c:/altera/13.0/nios2eds/bin/gnu/h-i686-mingw32/bin/../lib/gcc/nios2-elf/4.1.2/../../../../nios2-elf/lib\libc.a(lib_a-stdio.o)
 .bss           0x00815510        0x0 c:/altera/13.0/nios2eds/bin/gnu/h-i686-mingw32/bin/../lib/gcc/nios2-elf/4.1.2/../../../../nios2-elf/lib\libc.a(lib_a-strcmp.o)
 .bss           0x00815510        0x0 c:/altera/13.0/nios2eds/bin/gnu/h-i686-mingw32/bin/../lib/gcc/nios2-elf/4.1.2/../../../../nios2-elf/lib\libc.a(lib_a-strlen.o)
 .bss           0x00815510        0x0 c:/altera/13.0/nios2eds/bin/gnu/h-i686-mingw32/bin/../lib/gcc/nios2-elf/4.1.2/../../../../nios2-elf/lib\libc.a(lib_a-writer.o)
 .bss           0x00815510        0x0 c:/altera/13.0/nios2eds/bin/gnu/h-i686-mingw32/bin/../lib/gcc/nios2-elf/4.1.2/../../../../nios2-elf/lib\libc.a(lib_a-callocr.o)
 .bss           0x00815510        0x0 c:/altera/13.0/nios2eds/bin/gnu/h-i686-mingw32/bin/../lib/gcc/nios2-elf/4.1.2/../../../../nios2-elf/lib\libc.a(lib_a-closer.o)
 .bss           0x00815510        0x0 c:/altera/13.0/nios2eds/bin/gnu/h-i686-mingw32/bin/../lib/gcc/nios2-elf/4.1.2/../../../../nios2-elf/lib\libc.a(lib_a-fclose.o)
 .bss           0x00815510        0x0 c:/altera/13.0/nios2eds/bin/gnu/h-i686-mingw32/bin/../lib/gcc/nios2-elf/4.1.2/../../../../nios2-elf/lib\libc.a(lib_a-fstatr.o)
 .bss           0x00815510        0x0 c:/altera/13.0/nios2eds/bin/gnu/h-i686-mingw32/bin/../lib/gcc/nios2-elf/4.1.2/../../../../nios2-elf/lib\libc.a(lib_a-int_errno.o)
 .bss           0x00815510        0x0 c:/altera/13.0/nios2eds/bin/gnu/h-i686-mingw32/bin/../lib/gcc/nios2-elf/4.1.2/../../../../nios2-elf/lib\libc.a(lib_a-isattyr.o)
 .bss           0x00815510        0x0 c:/altera/13.0/nios2eds/bin/gnu/h-i686-mingw32/bin/../lib/gcc/nios2-elf/4.1.2/../../../../nios2-elf/lib\libc.a(lib_a-lseekr.o)
 .bss           0x00815510        0x0 c:/altera/13.0/nios2eds/bin/gnu/h-i686-mingw32/bin/../lib/gcc/nios2-elf/4.1.2/../../../../nios2-elf/lib\libc.a(lib_a-readr.o)
 .bss           0x00815510        0x0 c:/altera/13.0/nios2eds/bin/gnu/h-i686-mingw32/bin/../lib/gcc/nios2-elf/4.1.2\libgcc.a(_udivdi3.o)
 .bss           0x00815510        0x0 c:/altera/13.0/nios2eds/bin/gnu/h-i686-mingw32/bin/../lib/gcc/nios2-elf/4.1.2\libgcc.a(_umoddi3.o)
 .bss           0x00815510        0x0 c:/altera/13.0/nios2eds/bin/gnu/h-i686-mingw32/bin/../lib/gcc/nios2-elf/4.1.2\libgcc.a(_addsub_df.o)
 .bss           0x00815510        0x0 c:/altera/13.0/nios2eds/bin/gnu/h-i686-mingw32/bin/../lib/gcc/nios2-elf/4.1.2\libgcc.a(_mul_df.o)
 .bss           0x00815510        0x0 c:/altera/13.0/nios2eds/bin/gnu/h-i686-mingw32/bin/../lib/gcc/nios2-elf/4.1.2\libgcc.a(_div_df.o)
 .bss           0x00815510        0x0 c:/altera/13.0/nios2eds/bin/gnu/h-i686-mingw32/bin/../lib/gcc/nios2-elf/4.1.2\libgcc.a(_eq_df.o)
 .bss           0x00815510        0x0 c:/altera/13.0/nios2eds/bin/gnu/h-i686-mingw32/bin/../lib/gcc/nios2-elf/4.1.2\libgcc.a(_ne_df.o)
 .bss           0x00815510        0x0 c:/altera/13.0/nios2eds/bin/gnu/h-i686-mingw32/bin/../lib/gcc/nios2-elf/4.1.2\libgcc.a(_gt_df.o)
 .bss           0x00815510        0x0 c:/altera/13.0/nios2eds/bin/gnu/h-i686-mingw32/bin/../lib/gcc/nios2-elf/4.1.2\libgcc.a(_ge_df.o)
 .bss           0x00815510        0x0 c:/altera/13.0/nios2eds/bin/gnu/h-i686-mingw32/bin/../lib/gcc/nios2-elf/4.1.2\libgcc.a(_lt_df.o)
 .bss           0x00815510        0x0 c:/altera/13.0/nios2eds/bin/gnu/h-i686-mingw32/bin/../lib/gcc/nios2-elf/4.1.2\libgcc.a(_si_to_df.o)
 .bss           0x00815510        0x0 c:/altera/13.0/nios2eds/bin/gnu/h-i686-mingw32/bin/../lib/gcc/nios2-elf/4.1.2\libgcc.a(_df_to_si.o)
 .bss           0x00815510        0x0 c:/altera/13.0/nios2eds/bin/gnu/h-i686-mingw32/bin/../lib/gcc/nios2-elf/4.1.2\libgcc.a(_thenan_df.o)
 .bss           0x00815510        0x0 c:/altera/13.0/nios2eds/bin/gnu/h-i686-mingw32/bin/../lib/gcc/nios2-elf/4.1.2\libgcc.a(_usi_to_df.o)
 .bss           0x00815510        0x0 c:/altera/13.0/nios2eds/bin/gnu/h-i686-mingw32/bin/../lib/gcc/nios2-elf/4.1.2\libgcc.a(lib2-divmod.o)
 .bss           0x00815510        0x0 c:/altera/13.0/nios2eds/bin/gnu/h-i686-mingw32/bin/../lib/gcc/nios2-elf/4.1.2\libgcc.a(_muldi3.o)
 .bss           0x00815510        0x0 c:/altera/13.0/nios2eds/bin/gnu/h-i686-mingw32/bin/../lib/gcc/nios2-elf/4.1.2\libgcc.a(_clz.o)
 .bss           0x00815510        0x0 c:/altera/13.0/nios2eds/bin/gnu/h-i686-mingw32/bin/../lib/gcc/nios2-elf/4.1.2\libgcc.a(_clzsi2.o)
 .bss           0x00815510        0x0 c:/altera/13.0/nios2eds/bin/gnu/h-i686-mingw32/bin/../lib/gcc/nios2-elf/4.1.2\libgcc.a(_pack_df.o)
 .bss           0x00815510        0x0 c:/altera/13.0/nios2eds/bin/gnu/h-i686-mingw32/bin/../lib/gcc/nios2-elf/4.1.2\libgcc.a(_unpack_df.o)
 .bss           0x00815510        0x0 c:/altera/13.0/nios2eds/bin/gnu/h-i686-mingw32/bin/../lib/gcc/nios2-elf/4.1.2\libgcc.a(_fpcmp_parts_df.o)
 .bss           0x00815510        0x0 ../cs303a2_bsp/\libhal_bsp.a(alt_alarm_start.o)
 .bss           0x00815510        0x0 ../cs303a2_bsp/\libhal_bsp.a(alt_close.o)
 .bss           0x00815510        0x0 ../cs303a2_bsp/\libhal_bsp.a(alt_dev.o)
 .bss           0x00815510        0x0 ../cs303a2_bsp/\libhal_bsp.a(alt_errno.o)
 .bss           0x00815510        0x0 ../cs303a2_bsp/\libhal_bsp.a(alt_fstat.o)
 .bss           0x00815510        0x0 ../cs303a2_bsp/\libhal_bsp.a(alt_irq_register.o)
 .bss           0x00815510        0x0 ../cs303a2_bsp/\libhal_bsp.a(alt_irq_vars.o)
 .bss           0x00815510        0x0 ../cs303a2_bsp/\libhal_bsp.a(alt_isatty.o)
 .bss           0x00815510        0x0 ../cs303a2_bsp/\libhal_bsp.a(alt_load.o)
 .bss           0x00815510        0x0 ../cs303a2_bsp/\libhal_bsp.a(alt_lseek.o)
 .bss           0x00815510        0x0 ../cs303a2_bsp/\libhal_bsp.a(alt_main.o)
 .bss           0x00815510        0x0 ../cs303a2_bsp/\libhal_bsp.a(alt_malloc_lock.o)
 .bss           0x00815510        0x0 ../cs303a2_bsp/\libhal_bsp.a(alt_read.o)
 .bss           0x00815510        0x0 ../cs303a2_bsp/\libhal_bsp.a(alt_release_fd.o)
 .bss           0x00815510        0x0 ../cs303a2_bsp/\libhal_bsp.a(alt_sbrk.o)
 .bss           0x00815510        0x0 ../cs303a2_bsp/\libhal_bsp.a(alt_tick.o)
 .bss           0x00815510        0x0 ../cs303a2_bsp/\libhal_bsp.a(alt_write.o)
 .bss           0x00815510        0x0 ../cs303a2_bsp/\libhal_bsp.a(alt_sys_init.o)
 .bss           0x00815510        0x0 ../cs303a2_bsp/\libhal_bsp.a(altera_avalon_jtag_uart_fd.o)
 .bss           0x00815510        0x0 ../cs303a2_bsp/\libhal_bsp.a(altera_avalon_jtag_uart_init.o)
 .bss           0x00815510        0x0 ../cs303a2_bsp/\libhal_bsp.a(altera_avalon_jtag_uart_ioctl.o)
 .bss           0x00815510        0x0 ../cs303a2_bsp/\libhal_bsp.a(altera_avalon_jtag_uart_read.o)
 .bss           0x00815510        0x0 ../cs303a2_bsp/\libhal_bsp.a(altera_avalon_jtag_uart_write.o)
 .bss           0x00815510        0x0 ../cs303a2_bsp/\libhal_bsp.a(altera_avalon_lcd_16207.o)
 .bss           0x00815510        0x0 ../cs303a2_bsp/\libhal_bsp.a(altera_avalon_lcd_16207_fd.o)
 .bss           0x00815510        0x0 ../cs303a2_bsp/\libhal_bsp.a(altera_avalon_timer_sc.o)
 .bss           0x00815510        0x0 ../cs303a2_bsp/\libhal_bsp.a(altera_avalon_uart_fd.o)
 .bss           0x00815510        0x0 ../cs303a2_bsp/\libhal_bsp.a(altera_avalon_uart_init.o)
 .bss           0x00815510        0x0 ../cs303a2_bsp/\libhal_bsp.a(altera_avalon_uart_read.o)
 .bss           0x00815510        0x0 ../cs303a2_bsp/\libhal_bsp.a(altera_avalon_uart_write.o)
 .bss           0x00815510        0x0 ../cs303a2_bsp/\libhal_bsp.a(alt_dcache_flush_all.o)
 .bss           0x00815510        0x0 ../cs303a2_bsp/\libhal_bsp.a(alt_dev_llist_insert.o)
 .bss           0x00815510        0x0 ../cs303a2_bsp/\libhal_bsp.a(alt_do_ctors.o)
 .bss           0x00815510        0x0 ../cs303a2_bsp/\libhal_bsp.a(alt_do_dtors.o)
 .bss           0x00815510        0x0 ../cs303a2_bsp/\libhal_bsp.a(alt_icache_flush_all.o)
 .bss           0x00815510        0x0 ../cs303a2_bsp/\libhal_bsp.a(alt_iic.o)
 .bss           0x00815510        0x0 ../cs303a2_bsp/\libhal_bsp.a(alt_iic_isr_register.o)
 .bss           0x00815510        0x0 ../cs303a2_bsp/\libhal_bsp.a(alt_io_redirect.o)
 .bss           0x00815510        0x0 ../cs303a2_bsp/\libhal_bsp.a(alt_irq_entry.o)
 .bss           0x00815510        0x0 ../cs303a2_bsp/\libhal_bsp.a(alt_irq_handler.o)
 .bss           0x00815510        0x0 ../cs303a2_bsp/\libhal_bsp.a(alt_open.o)
 .bss           0x00815510        0x0 ../cs303a2_bsp/\libhal_bsp.a(alt_usleep.o)
 .bss           0x00815510        0x0 ../cs303a2_bsp/\libhal_bsp.a(altera_nios2_qsys_irq.o)
 .bss           0x00815510        0x0 ../cs303a2_bsp/\libhal_bsp.a(alt_busy_sleep.o)
 .bss           0x00815510        0x0 ../cs303a2_bsp/\libhal_bsp.a(alt_exception_entry.o)
 .bss           0x00815510        0x0 ../cs303a2_bsp/\libhal_bsp.a(alt_find_dev.o)
 .bss           0x00815510        0x0 ../cs303a2_bsp/\libhal_bsp.a(alt_find_file.o)
 .bss           0x00815510        0x0 ../cs303a2_bsp/\libhal_bsp.a(alt_get_fd.o)
 .bss           0x00815510        0x0 ../cs303a2_bsp/\libhal_bsp.a(alt_icache_flush.o)
 .bss           0x00815510        0x0 c:/altera/13.0/nios2eds/bin/gnu/h-i686-mingw32/bin/../lib/gcc/nios2-elf/4.1.2/../../../../nios2-elf/lib\libc.a(lib_a-atexit.o)
 .bss           0x00815510        0x0 c:/altera/13.0/nios2eds/bin/gnu/h-i686-mingw32/bin/../lib/gcc/nios2-elf/4.1.2/../../../../nios2-elf/lib\libc.a(lib_a-ctype_.o)
 .bss           0x00815510        0x0 c:/altera/13.0/nios2eds/bin/gnu/h-i686-mingw32/bin/../lib/gcc/nios2-elf/4.1.2/../../../../nios2-elf/lib\libc.a(lib_a-exit.o)
 .bss           0x00815510        0x0 c:/altera/13.0/nios2eds/bin/gnu/h-i686-mingw32/bin/../lib/gcc/nios2-elf/4.1.2/../../../../nios2-elf/lib\libc.a(lib_a-memcmp.o)
 .bss           0x00815510        0x0 c:/altera/13.0/nios2eds/bin/gnu/h-i686-mingw32/bin/../lib/gcc/nios2-elf/4.1.2/../../../../nios2-elf/lib\libc.a(lib_a-__atexit.o)
 .bss           0x00815510        0x0 c:/altera/13.0/nios2eds/bin/gnu/h-i686-mingw32/bin/../lib/gcc/nios2-elf/4.1.2/../../../../nios2-elf/lib\libc.a(lib_a-__call_atexit.o)
 .bss           0x00815510        0x0 ../cs303a2_bsp/\libhal_bsp.a(alt_exit.o)
 *(COMMON)
 COMMON         0x00815510      0x100 ../cs303a2_bsp/\libhal_bsp.a(alt_irq_handler.o)
                0x00815510                alt_irq
 COMMON         0x00815610      0x190 c:/altera/13.0/nios2eds/bin/gnu/h-i686-mingw32/bin/../lib/gcc/nios2-elf/4.1.2/../../../../nios2-elf/lib\libc.a(lib_a-atexit.o)
                0x00815610                _atexit0
                0x008157a0                . = ALIGN (0x4)
                0x008157a0                __bss_end = ABSOLUTE (.)

.sdram_controller
                0x008157a0        0x0
                0x008157a0                PROVIDE (_alt_partition_sdram_controller_start, ABSOLUTE (.))
 *(.sdram_controller. sdram_controller.*)
                0x008157a0                . = ALIGN (0x4)
                0x008157a0                PROVIDE (_alt_partition_sdram_controller_end, ABSOLUTE (.))
                0x008157a0                _end = ABSOLUTE (.)
                0x008157a0                end = ABSOLUTE (.)
                0x008157a0                __alt_stack_base = ABSOLUTE (.)
                0x008157a0                PROVIDE (_alt_partition_sdram_controller_load_addr, LOADADDR (.sdram_controller))

.onchip_mem     0x01008000        0x0 load address 0x008157a0
                0x01008000                PROVIDE (_alt_partition_onchip_mem_start, ABSOLUTE (.))
 *(.onchip_mem. onchip_mem.*)
                0x01008000                . = ALIGN (0x4)
                0x01008000                PROVIDE (_alt_partition_onchip_mem_end, ABSOLUTE (.))
                0x008157a0                PROVIDE (_alt_partition_onchip_mem_load_addr, LOADADDR (.onchip_mem))

.stab
 *(.stab)

.stabstr
 *(.stabstr)

.stab.excl
 *(.stab.excl)

.stab.exclstr
 *(.stab.exclstr)

.stab.index
 *(.stab.index)

.stab.indexstr
 *(.stab.indexstr)

.comment        0x00000000       0x23
 *(.comment)
 .comment       0x00000000       0x23 obj/default/hello_world.o
                                 0x24 (size before relaxing)
 .comment       0x00000000       0x24 obj/default/sccharts.o
 .comment       0x00000000       0x24 c:/altera/13.0/nios2eds/bin/gnu/h-i686-mingw32/bin/../lib/gcc/nios2-elf/4.1.2/../../../../nios2-elf/lib\libc.a(lib_a-printf.o)
 .comment       0x00000000       0x24 c:/altera/13.0/nios2eds/bin/gnu/h-i686-mingw32/bin/../lib/gcc/nios2-elf/4.1.2/../../../../nios2-elf/lib\libc.a(lib_a-vfprintf.o)
 .comment       0x00000000       0x24 c:/altera/13.0/nios2eds/bin/gnu/h-i686-mingw32/bin/../lib/gcc/nios2-elf/4.1.2/../../../../nios2-elf/lib\libc.a(lib_a-wsetup.o)
 .comment       0x00000000       0x24 c:/altera/13.0/nios2eds/bin/gnu/h-i686-mingw32/bin/../lib/gcc/nios2-elf/4.1.2/../../../../nios2-elf/lib\libc.a(lib_a-dtoa.o)
 .comment       0x00000000       0x24 c:/altera/13.0/nios2eds/bin/gnu/h-i686-mingw32/bin/../lib/gcc/nios2-elf/4.1.2/../../../../nios2-elf/lib\libc.a(lib_a-fflush.o)
 .comment       0x00000000       0x24 c:/altera/13.0/nios2eds/bin/gnu/h-i686-mingw32/bin/../lib/gcc/nios2-elf/4.1.2/../../../../nios2-elf/lib\libc.a(lib_a-findfp.o)
 .comment       0x00000000       0x24 c:/altera/13.0/nios2eds/bin/gnu/h-i686-mingw32/bin/../lib/gcc/nios2-elf/4.1.2/../../../../nios2-elf/lib\libc.a(lib_a-freer.o)
 .comment       0x00000000       0x24 c:/altera/13.0/nios2eds/bin/gnu/h-i686-mingw32/bin/../lib/gcc/nios2-elf/4.1.2/../../../../nios2-elf/lib\libc.a(lib_a-fvwrite.o)
 .comment       0x00000000       0x24 c:/altera/13.0/nios2eds/bin/gnu/h-i686-mingw32/bin/../lib/gcc/nios2-elf/4.1.2/../../../../nios2-elf/lib\libc.a(lib_a-fwalk.o)
 .comment       0x00000000       0x24 c:/altera/13.0/nios2eds/bin/gnu/h-i686-mingw32/bin/../lib/gcc/nios2-elf/4.1.2/../../../../nios2-elf/lib\libc.a(lib_a-impure.o)
 .comment       0x00000000       0x24 c:/altera/13.0/nios2eds/bin/gnu/h-i686-mingw32/bin/../lib/gcc/nios2-elf/4.1.2/../../../../nios2-elf/lib\libc.a(lib_a-locale.o)
 .comment       0x00000000       0x24 c:/altera/13.0/nios2eds/bin/gnu/h-i686-mingw32/bin/../lib/gcc/nios2-elf/4.1.2/../../../../nios2-elf/lib\libc.a(lib_a-makebuf.o)
 .comment       0x00000000       0x24 c:/altera/13.0/nios2eds/bin/gnu/h-i686-mingw32/bin/../lib/gcc/nios2-elf/4.1.2/../../../../nios2-elf/lib\libc.a(lib_a-mallocr.o)
 .comment       0x00000000       0x24 c:/altera/13.0/nios2eds/bin/gnu/h-i686-mingw32/bin/../lib/gcc/nios2-elf/4.1.2/../../../../nios2-elf/lib\libc.a(lib_a-memchr.o)
 .comment       0x00000000       0x24 c:/altera/13.0/nios2eds/bin/gnu/h-i686-mingw32/bin/../lib/gcc/nios2-elf/4.1.2/../../../../nios2-elf/lib\libc.a(lib_a-memcpy.o)
 .comment       0x00000000       0x24 c:/altera/13.0/nios2eds/bin/gnu/h-i686-mingw32/bin/../lib/gcc/nios2-elf/4.1.2/../../../../nios2-elf/lib\libc.a(lib_a-memmove.o)
 .comment       0x00000000       0x24 c:/altera/13.0/nios2eds/bin/gnu/h-i686-mingw32/bin/../lib/gcc/nios2-elf/4.1.2/../../../../nios2-elf/lib\libc.a(lib_a-memset.o)
 .comment       0x00000000       0x24 c:/altera/13.0/nios2eds/bin/gnu/h-i686-mingw32/bin/../lib/gcc/nios2-elf/4.1.2/../../../../nios2-elf/lib\libc.a(lib_a-mprec.o)
 .comment       0x00000000       0x24 c:/altera/13.0/nios2eds/bin/gnu/h-i686-mingw32/bin/../lib/gcc/nios2-elf/4.1.2/../../../../nios2-elf/lib\libc.a(lib_a-reallocr.o)
 .comment       0x00000000       0x24 c:/altera/13.0/nios2eds/bin/gnu/h-i686-mingw32/bin/../lib/gcc/nios2-elf/4.1.2/../../../../nios2-elf/lib\libc.a(lib_a-s_isinfd.o)
 .comment       0x00000000       0x24 c:/altera/13.0/nios2eds/bin/gnu/h-i686-mingw32/bin/../lib/gcc/nios2-elf/4.1.2/../../../../nios2-elf/lib\libc.a(lib_a-s_isnand.o)
 .comment       0x00000000       0x24 c:/altera/13.0/nios2eds/bin/gnu/h-i686-mingw32/bin/../lib/gcc/nios2-elf/4.1.2/../../../../nios2-elf/lib\libc.a(lib_a-sbrkr.o)
 .comment       0x00000000       0x24 c:/altera/13.0/nios2eds/bin/gnu/h-i686-mingw32/bin/../lib/gcc/nios2-elf/4.1.2/../../../../nios2-elf/lib\libc.a(lib_a-stdio.o)
 .comment       0x00000000       0x24 c:/altera/13.0/nios2eds/bin/gnu/h-i686-mingw32/bin/../lib/gcc/nios2-elf/4.1.2/../../../../nios2-elf/lib\libc.a(lib_a-strcmp.o)
 .comment       0x00000000       0x24 c:/altera/13.0/nios2eds/bin/gnu/h-i686-mingw32/bin/../lib/gcc/nios2-elf/4.1.2/../../../../nios2-elf/lib\libc.a(lib_a-strlen.o)
 .comment       0x00000000       0x24 c:/altera/13.0/nios2eds/bin/gnu/h-i686-mingw32/bin/../lib/gcc/nios2-elf/4.1.2/../../../../nios2-elf/lib\libc.a(lib_a-writer.o)
 .comment       0x00000000       0x24 c:/altera/13.0/nios2eds/bin/gnu/h-i686-mingw32/bin/../lib/gcc/nios2-elf/4.1.2/../../../../nios2-elf/lib\libc.a(lib_a-callocr.o)
 .comment       0x00000000       0x24 c:/altera/13.0/nios2eds/bin/gnu/h-i686-mingw32/bin/../lib/gcc/nios2-elf/4.1.2/../../../../nios2-elf/lib\libc.a(lib_a-closer.o)
 .comment       0x00000000       0x24 c:/altera/13.0/nios2eds/bin/gnu/h-i686-mingw32/bin/../lib/gcc/nios2-elf/4.1.2/../../../../nios2-elf/lib\libc.a(lib_a-fclose.o)
 .comment       0x00000000       0x24 c:/altera/13.0/nios2eds/bin/gnu/h-i686-mingw32/bin/../lib/gcc/nios2-elf/4.1.2/../../../../nios2-elf/lib\libc.a(lib_a-fstatr.o)
 .comment       0x00000000       0x24 c:/altera/13.0/nios2eds/bin/gnu/h-i686-mingw32/bin/../lib/gcc/nios2-elf/4.1.2/../../../../nios2-elf/lib\libc.a(lib_a-int_errno.o)
 .comment       0x00000000       0x24 c:/altera/13.0/nios2eds/bin/gnu/h-i686-mingw32/bin/../lib/gcc/nios2-elf/4.1.2/../../../../nios2-elf/lib\libc.a(lib_a-isattyr.o)
 .comment       0x00000000       0x24 c:/altera/13.0/nios2eds/bin/gnu/h-i686-mingw32/bin/../lib/gcc/nios2-elf/4.1.2/../../../../nios2-elf/lib\libc.a(lib_a-lseekr.o)
 .comment       0x00000000       0x24 c:/altera/13.0/nios2eds/bin/gnu/h-i686-mingw32/bin/../lib/gcc/nios2-elf/4.1.2/../../../../nios2-elf/lib\libc.a(lib_a-readr.o)
 .comment       0x00000000       0x24 c:/altera/13.0/nios2eds/bin/gnu/h-i686-mingw32/bin/../lib/gcc/nios2-elf/4.1.2\libgcc.a(_udivdi3.o)
 .comment       0x00000000       0x24 c:/altera/13.0/nios2eds/bin/gnu/h-i686-mingw32/bin/../lib/gcc/nios2-elf/4.1.2\libgcc.a(_umoddi3.o)
 .comment       0x00000000       0x24 c:/altera/13.0/nios2eds/bin/gnu/h-i686-mingw32/bin/../lib/gcc/nios2-elf/4.1.2\libgcc.a(_addsub_df.o)
 .comment       0x00000000       0x24 c:/altera/13.0/nios2eds/bin/gnu/h-i686-mingw32/bin/../lib/gcc/nios2-elf/4.1.2\libgcc.a(_mul_df.o)
 .comment       0x00000000       0x24 c:/altera/13.0/nios2eds/bin/gnu/h-i686-mingw32/bin/../lib/gcc/nios2-elf/4.1.2\libgcc.a(_div_df.o)
 .comment       0x00000000       0x24 c:/altera/13.0/nios2eds/bin/gnu/h-i686-mingw32/bin/../lib/gcc/nios2-elf/4.1.2\libgcc.a(_eq_df.o)
 .comment       0x00000000       0x24 c:/altera/13.0/nios2eds/bin/gnu/h-i686-mingw32/bin/../lib/gcc/nios2-elf/4.1.2\libgcc.a(_ne_df.o)
 .comment       0x00000000       0x24 c:/altera/13.0/nios2eds/bin/gnu/h-i686-mingw32/bin/../lib/gcc/nios2-elf/4.1.2\libgcc.a(_gt_df.o)
 .comment       0x00000000       0x24 c:/altera/13.0/nios2eds/bin/gnu/h-i686-mingw32/bin/../lib/gcc/nios2-elf/4.1.2\libgcc.a(_ge_df.o)
 .comment       0x00000000       0x24 c:/altera/13.0/nios2eds/bin/gnu/h-i686-mingw32/bin/../lib/gcc/nios2-elf/4.1.2\libgcc.a(_lt_df.o)
 .comment       0x00000000       0x24 c:/altera/13.0/nios2eds/bin/gnu/h-i686-mingw32/bin/../lib/gcc/nios2-elf/4.1.2\libgcc.a(_si_to_df.o)
 .comment       0x00000000       0x24 c:/altera/13.0/nios2eds/bin/gnu/h-i686-mingw32/bin/../lib/gcc/nios2-elf/4.1.2\libgcc.a(_df_to_si.o)
 .comment       0x00000000       0x24 c:/altera/13.0/nios2eds/bin/gnu/h-i686-mingw32/bin/../lib/gcc/nios2-elf/4.1.2\libgcc.a(_thenan_df.o)
 .comment       0x00000000       0x24 c:/altera/13.0/nios2eds/bin/gnu/h-i686-mingw32/bin/../lib/gcc/nios2-elf/4.1.2\libgcc.a(_usi_to_df.o)
 .comment       0x00000000       0x24 c:/altera/13.0/nios2eds/bin/gnu/h-i686-mingw32/bin/../lib/gcc/nios2-elf/4.1.2\libgcc.a(lib2-divmod.o)
 .comment       0x00000000       0x24 c:/altera/13.0/nios2eds/bin/gnu/h-i686-mingw32/bin/../lib/gcc/nios2-elf/4.1.2\libgcc.a(_muldi3.o)
 .comment       0x00000000       0x24 c:/altera/13.0/nios2eds/bin/gnu/h-i686-mingw32/bin/../lib/gcc/nios2-elf/4.1.2\libgcc.a(_clz.o)
 .comment       0x00000000       0x24 c:/altera/13.0/nios2eds/bin/gnu/h-i686-mingw32/bin/../lib/gcc/nios2-elf/4.1.2\libgcc.a(_clzsi2.o)
 .comment       0x00000000       0x24 c:/altera/13.0/nios2eds/bin/gnu/h-i686-mingw32/bin/../lib/gcc/nios2-elf/4.1.2\libgcc.a(_pack_df.o)
 .comment       0x00000000       0x24 c:/altera/13.0/nios2eds/bin/gnu/h-i686-mingw32/bin/../lib/gcc/nios2-elf/4.1.2\libgcc.a(_unpack_df.o)
 .comment       0x00000000       0x24 c:/altera/13.0/nios2eds/bin/gnu/h-i686-mingw32/bin/../lib/gcc/nios2-elf/4.1.2\libgcc.a(_fpcmp_parts_df.o)
 .comment       0x00000000       0x24 ../cs303a2_bsp/\libhal_bsp.a(alt_alarm_start.o)
 .comment       0x00000000       0x24 ../cs303a2_bsp/\libhal_bsp.a(alt_close.o)
 .comment       0x00000000       0x24 ../cs303a2_bsp/\libhal_bsp.a(alt_dev.o)
 .comment       0x00000000       0x24 ../cs303a2_bsp/\libhal_bsp.a(alt_errno.o)
 .comment       0x00000000       0x24 ../cs303a2_bsp/\libhal_bsp.a(alt_fstat.o)
 .comment       0x00000000       0x24 ../cs303a2_bsp/\libhal_bsp.a(alt_irq_register.o)
 .comment       0x00000000       0x24 ../cs303a2_bsp/\libhal_bsp.a(alt_irq_vars.o)
 .comment       0x00000000       0x24 ../cs303a2_bsp/\libhal_bsp.a(alt_isatty.o)
 .comment       0x00000000       0x24 ../cs303a2_bsp/\libhal_bsp.a(alt_load.o)
 .comment       0x00000000       0x24 ../cs303a2_bsp/\libhal_bsp.a(alt_lseek.o)
 .comment       0x00000000       0x24 ../cs303a2_bsp/\libhal_bsp.a(alt_main.o)
 .comment       0x00000000       0x24 ../cs303a2_bsp/\libhal_bsp.a(alt_malloc_lock.o)
 .comment       0x00000000       0x24 ../cs303a2_bsp/\libhal_bsp.a(alt_read.o)
 .comment       0x00000000       0x24 ../cs303a2_bsp/\libhal_bsp.a(alt_release_fd.o)
 .comment       0x00000000       0x24 ../cs303a2_bsp/\libhal_bsp.a(alt_sbrk.o)
 .comment       0x00000000       0x24 ../cs303a2_bsp/\libhal_bsp.a(alt_tick.o)
 .comment       0x00000000       0x24 ../cs303a2_bsp/\libhal_bsp.a(alt_write.o)
 .comment       0x00000000       0x24 ../cs303a2_bsp/\libhal_bsp.a(alt_sys_init.o)
 .comment       0x00000000       0x24 ../cs303a2_bsp/\libhal_bsp.a(altera_avalon_jtag_uart_fd.o)
 .comment       0x00000000       0x24 ../cs303a2_bsp/\libhal_bsp.a(altera_avalon_jtag_uart_init.o)
 .comment       0x00000000       0x24 ../cs303a2_bsp/\libhal_bsp.a(altera_avalon_jtag_uart_ioctl.o)
 .comment       0x00000000       0x24 ../cs303a2_bsp/\libhal_bsp.a(altera_avalon_jtag_uart_read.o)
 .comment       0x00000000       0x24 ../cs303a2_bsp/\libhal_bsp.a(altera_avalon_jtag_uart_write.o)
 .comment       0x00000000       0x24 ../cs303a2_bsp/\libhal_bsp.a(altera_avalon_lcd_16207.o)
 .comment       0x00000000       0x24 ../cs303a2_bsp/\libhal_bsp.a(altera_avalon_lcd_16207_fd.o)
 .comment       0x00000000       0x24 ../cs303a2_bsp/\libhal_bsp.a(altera_avalon_timer_sc.o)
 .comment       0x00000000       0x24 ../cs303a2_bsp/\libhal_bsp.a(altera_avalon_uart_fd.o)
 .comment       0x00000000       0x24 ../cs303a2_bsp/\libhal_bsp.a(altera_avalon_uart_init.o)
 .comment       0x00000000       0x24 ../cs303a2_bsp/\libhal_bsp.a(altera_avalon_uart_read.o)
 .comment       0x00000000       0x24 ../cs303a2_bsp/\libhal_bsp.a(altera_avalon_uart_write.o)
 .comment       0x00000000       0x24 ../cs303a2_bsp/\libhal_bsp.a(alt_dcache_flush_all.o)
 .comment       0x00000000       0x24 ../cs303a2_bsp/\libhal_bsp.a(alt_dev_llist_insert.o)
 .comment       0x00000000       0x24 ../cs303a2_bsp/\libhal_bsp.a(alt_do_ctors.o)
 .comment       0x00000000       0x24 ../cs303a2_bsp/\libhal_bsp.a(alt_do_dtors.o)
 .comment       0x00000000       0x24 ../cs303a2_bsp/\libhal_bsp.a(alt_icache_flush_all.o)
 .comment       0x00000000       0x24 ../cs303a2_bsp/\libhal_bsp.a(alt_iic.o)
 .comment       0x00000000       0x24 ../cs303a2_bsp/\libhal_bsp.a(alt_iic_isr_register.o)
 .comment       0x00000000       0x24 ../cs303a2_bsp/\libhal_bsp.a(alt_io_redirect.o)
 .comment       0x00000000       0x24 ../cs303a2_bsp/\libhal_bsp.a(alt_irq_handler.o)
 .comment       0x00000000       0x24 ../cs303a2_bsp/\libhal_bsp.a(alt_open.o)
 .comment       0x00000000       0x24 ../cs303a2_bsp/\libhal_bsp.a(alt_usleep.o)
 .comment       0x00000000       0x24 ../cs303a2_bsp/\libhal_bsp.a(altera_nios2_qsys_irq.o)
 .comment       0x00000000       0x24 ../cs303a2_bsp/\libhal_bsp.a(alt_busy_sleep.o)
 .comment       0x00000000       0x24 ../cs303a2_bsp/\libhal_bsp.a(alt_find_dev.o)
 .comment       0x00000000       0x24 ../cs303a2_bsp/\libhal_bsp.a(alt_find_file.o)
 .comment       0x00000000       0x24 ../cs303a2_bsp/\libhal_bsp.a(alt_get_fd.o)
 .comment       0x00000000       0x24 ../cs303a2_bsp/\libhal_bsp.a(alt_icache_flush.o)
 .comment       0x00000000       0x24 c:/altera/13.0/nios2eds/bin/gnu/h-i686-mingw32/bin/../lib/gcc/nios2-elf/4.1.2/../../../../nios2-elf/lib\libc.a(lib_a-atexit.o)
 .comment       0x00000000       0x24 c:/altera/13.0/nios2eds/bin/gnu/h-i686-mingw32/bin/../lib/gcc/nios2-elf/4.1.2/../../../../nios2-elf/lib\libc.a(lib_a-ctype_.o)
 .comment       0x00000000       0x24 c:/altera/13.0/nios2eds/bin/gnu/h-i686-mingw32/bin/../lib/gcc/nios2-elf/4.1.2/../../../../nios2-elf/lib\libc.a(lib_a-exit.o)
 .comment       0x00000000       0x24 c:/altera/13.0/nios2eds/bin/gnu/h-i686-mingw32/bin/../lib/gcc/nios2-elf/4.1.2/../../../../nios2-elf/lib\libc.a(lib_a-memcmp.o)
 .comment       0x00000000       0x24 c:/altera/13.0/nios2eds/bin/gnu/h-i686-mingw32/bin/../lib/gcc/nios2-elf/4.1.2/../../../../nios2-elf/lib\libc.a(lib_a-__atexit.o)
 .comment       0x00000000       0x24 c:/altera/13.0/nios2eds/bin/gnu/h-i686-mingw32/bin/../lib/gcc/nios2-elf/4.1.2/../../../../nios2-elf/lib\libc.a(lib_a-__call_atexit.o)
 .comment       0x00000000       0x24 ../cs303a2_bsp/\libhal_bsp.a(alt_exit.o)

.debug
 *(.debug)

.line
 *(.line)

.debug_srcinfo
 *(.debug_srcinfo)

.debug_sfnames
 *(.debug_sfnames)

.debug_aranges  0x00000000      0xd98
 *(.debug_aranges)
 .debug_aranges
                0x00000000       0x28 ../cs303a2_bsp//obj/HAL/src/crt0.o
 .debug_aranges
                0x00000028       0x20 obj/default/hello_world.o
 .debug_aranges
                0x00000048       0x20 obj/default/sccharts.o
 .debug_aranges
                0x00000068       0x20 c:/altera/13.0/nios2eds/bin/gnu/h-i686-mingw32/bin/../lib/gcc/nios2-elf/4.1.2/../../../../nios2-elf/lib\libc.a(lib_a-printf.o)
 .debug_aranges
                0x00000088       0x20 c:/altera/13.0/nios2eds/bin/gnu/h-i686-mingw32/bin/../lib/gcc/nios2-elf/4.1.2/../../../../nios2-elf/lib\libc.a(lib_a-vfprintf.o)
 .debug_aranges
                0x000000a8       0x20 c:/altera/13.0/nios2eds/bin/gnu/h-i686-mingw32/bin/../lib/gcc/nios2-elf/4.1.2/../../../../nios2-elf/lib\libc.a(lib_a-wsetup.o)
 .debug_aranges
                0x000000c8       0x20 c:/altera/13.0/nios2eds/bin/gnu/h-i686-mingw32/bin/../lib/gcc/nios2-elf/4.1.2/../../../../nios2-elf/lib\libc.a(lib_a-dtoa.o)
 .debug_aranges
                0x000000e8       0x20 c:/altera/13.0/nios2eds/bin/gnu/h-i686-mingw32/bin/../lib/gcc/nios2-elf/4.1.2/../../../../nios2-elf/lib\libc.a(lib_a-fflush.o)
 .debug_aranges
                0x00000108       0x20 c:/altera/13.0/nios2eds/bin/gnu/h-i686-mingw32/bin/../lib/gcc/nios2-elf/4.1.2/../../../../nios2-elf/lib\libc.a(lib_a-findfp.o)
 .debug_aranges
                0x00000128       0x20 c:/altera/13.0/nios2eds/bin/gnu/h-i686-mingw32/bin/../lib/gcc/nios2-elf/4.1.2/../../../../nios2-elf/lib\libc.a(lib_a-freer.o)
 .debug_aranges
                0x00000148       0x20 c:/altera/13.0/nios2eds/bin/gnu/h-i686-mingw32/bin/../lib/gcc/nios2-elf/4.1.2/../../../../nios2-elf/lib\libc.a(lib_a-fvwrite.o)
 .debug_aranges
                0x00000168       0x20 c:/altera/13.0/nios2eds/bin/gnu/h-i686-mingw32/bin/../lib/gcc/nios2-elf/4.1.2/../../../../nios2-elf/lib\libc.a(lib_a-fwalk.o)
 .debug_aranges
                0x00000188       0x20 c:/altera/13.0/nios2eds/bin/gnu/h-i686-mingw32/bin/../lib/gcc/nios2-elf/4.1.2/../../../../nios2-elf/lib\libc.a(lib_a-locale.o)
 .debug_aranges
                0x000001a8       0x20 c:/altera/13.0/nios2eds/bin/gnu/h-i686-mingw32/bin/../lib/gcc/nios2-elf/4.1.2/../../../../nios2-elf/lib\libc.a(lib_a-makebuf.o)
 .debug_aranges
                0x000001c8       0x20 c:/altera/13.0/nios2eds/bin/gnu/h-i686-mingw32/bin/../lib/gcc/nios2-elf/4.1.2/../../../../nios2-elf/lib\libc.a(lib_a-mallocr.o)
 .debug_aranges
                0x000001e8       0x20 c:/altera/13.0/nios2eds/bin/gnu/h-i686-mingw32/bin/../lib/gcc/nios2-elf/4.1.2/../../../../nios2-elf/lib\libc.a(lib_a-memchr.o)
 .debug_aranges
                0x00000208       0x20 c:/altera/13.0/nios2eds/bin/gnu/h-i686-mingw32/bin/../lib/gcc/nios2-elf/4.1.2/../../../../nios2-elf/lib\libc.a(lib_a-memcpy.o)
 .debug_aranges
                0x00000228       0x20 c:/altera/13.0/nios2eds/bin/gnu/h-i686-mingw32/bin/../lib/gcc/nios2-elf/4.1.2/../../../../nios2-elf/lib\libc.a(lib_a-memmove.o)
 .debug_aranges
                0x00000248       0x20 c:/altera/13.0/nios2eds/bin/gnu/h-i686-mingw32/bin/../lib/gcc/nios2-elf/4.1.2/../../../../nios2-elf/lib\libc.a(lib_a-memset.o)
 .debug_aranges
                0x00000268       0x20 c:/altera/13.0/nios2eds/bin/gnu/h-i686-mingw32/bin/../lib/gcc/nios2-elf/4.1.2/../../../../nios2-elf/lib\libc.a(lib_a-mprec.o)
 .debug_aranges
                0x00000288       0x20 c:/altera/13.0/nios2eds/bin/gnu/h-i686-mingw32/bin/../lib/gcc/nios2-elf/4.1.2/../../../../nios2-elf/lib\libc.a(lib_a-reallocr.o)
 .debug_aranges
                0x000002a8       0x20 c:/altera/13.0/nios2eds/bin/gnu/h-i686-mingw32/bin/../lib/gcc/nios2-elf/4.1.2/../../../../nios2-elf/lib\libc.a(lib_a-s_isinfd.o)
 .debug_aranges
                0x000002c8       0x20 c:/altera/13.0/nios2eds/bin/gnu/h-i686-mingw32/bin/../lib/gcc/nios2-elf/4.1.2/../../../../nios2-elf/lib\libc.a(lib_a-s_isnand.o)
 .debug_aranges
                0x000002e8       0x20 c:/altera/13.0/nios2eds/bin/gnu/h-i686-mingw32/bin/../lib/gcc/nios2-elf/4.1.2/../../../../nios2-elf/lib\libc.a(lib_a-sbrkr.o)
 .debug_aranges
                0x00000308       0x20 c:/altera/13.0/nios2eds/bin/gnu/h-i686-mingw32/bin/../lib/gcc/nios2-elf/4.1.2/../../../../nios2-elf/lib\libc.a(lib_a-stdio.o)
 .debug_aranges
                0x00000328       0x20 c:/altera/13.0/nios2eds/bin/gnu/h-i686-mingw32/bin/../lib/gcc/nios2-elf/4.1.2/../../../../nios2-elf/lib\libc.a(lib_a-strcmp.o)
 .debug_aranges
                0x00000348       0x20 c:/altera/13.0/nios2eds/bin/gnu/h-i686-mingw32/bin/../lib/gcc/nios2-elf/4.1.2/../../../../nios2-elf/lib\libc.a(lib_a-strlen.o)
 .debug_aranges
                0x00000368       0x20 c:/altera/13.0/nios2eds/bin/gnu/h-i686-mingw32/bin/../lib/gcc/nios2-elf/4.1.2/../../../../nios2-elf/lib\libc.a(lib_a-writer.o)
 .debug_aranges
                0x00000388       0x20 c:/altera/13.0/nios2eds/bin/gnu/h-i686-mingw32/bin/../lib/gcc/nios2-elf/4.1.2/../../../../nios2-elf/lib\libc.a(lib_a-callocr.o)
 .debug_aranges
                0x000003a8       0x20 c:/altera/13.0/nios2eds/bin/gnu/h-i686-mingw32/bin/../lib/gcc/nios2-elf/4.1.2/../../../../nios2-elf/lib\libc.a(lib_a-closer.o)
 .debug_aranges
                0x000003c8       0x20 c:/altera/13.0/nios2eds/bin/gnu/h-i686-mingw32/bin/../lib/gcc/nios2-elf/4.1.2/../../../../nios2-elf/lib\libc.a(lib_a-fclose.o)
 .debug_aranges
                0x000003e8       0x20 c:/altera/13.0/nios2eds/bin/gnu/h-i686-mingw32/bin/../lib/gcc/nios2-elf/4.1.2/../../../../nios2-elf/lib\libc.a(lib_a-fstatr.o)
 .debug_aranges
                0x00000408       0x20 c:/altera/13.0/nios2eds/bin/gnu/h-i686-mingw32/bin/../lib/gcc/nios2-elf/4.1.2/../../../../nios2-elf/lib\libc.a(lib_a-isattyr.o)
 .debug_aranges
                0x00000428       0x20 c:/altera/13.0/nios2eds/bin/gnu/h-i686-mingw32/bin/../lib/gcc/nios2-elf/4.1.2/../../../../nios2-elf/lib\libc.a(lib_a-lseekr.o)
 .debug_aranges
                0x00000448       0x20 c:/altera/13.0/nios2eds/bin/gnu/h-i686-mingw32/bin/../lib/gcc/nios2-elf/4.1.2/../../../../nios2-elf/lib\libc.a(lib_a-readr.o)
 .debug_aranges
                0x00000468       0x20 c:/altera/13.0/nios2eds/bin/gnu/h-i686-mingw32/bin/../lib/gcc/nios2-elf/4.1.2\libgcc.a(_udivdi3.o)
 .debug_aranges
                0x00000488       0x20 c:/altera/13.0/nios2eds/bin/gnu/h-i686-mingw32/bin/../lib/gcc/nios2-elf/4.1.2\libgcc.a(_umoddi3.o)
 .debug_aranges
                0x000004a8       0x20 c:/altera/13.0/nios2eds/bin/gnu/h-i686-mingw32/bin/../lib/gcc/nios2-elf/4.1.2\libgcc.a(_addsub_df.o)
 .debug_aranges
                0x000004c8       0x20 c:/altera/13.0/nios2eds/bin/gnu/h-i686-mingw32/bin/../lib/gcc/nios2-elf/4.1.2\libgcc.a(_mul_df.o)
 .debug_aranges
                0x000004e8       0x20 c:/altera/13.0/nios2eds/bin/gnu/h-i686-mingw32/bin/../lib/gcc/nios2-elf/4.1.2\libgcc.a(_div_df.o)
 .debug_aranges
                0x00000508       0x20 c:/altera/13.0/nios2eds/bin/gnu/h-i686-mingw32/bin/../lib/gcc/nios2-elf/4.1.2\libgcc.a(_eq_df.o)
 .debug_aranges
                0x00000528       0x20 c:/altera/13.0/nios2eds/bin/gnu/h-i686-mingw32/bin/../lib/gcc/nios2-elf/4.1.2\libgcc.a(_ne_df.o)
 .debug_aranges
                0x00000548       0x20 c:/altera/13.0/nios2eds/bin/gnu/h-i686-mingw32/bin/../lib/gcc/nios2-elf/4.1.2\libgcc.a(_gt_df.o)
 .debug_aranges
                0x00000568       0x20 c:/altera/13.0/nios2eds/bin/gnu/h-i686-mingw32/bin/../lib/gcc/nios2-elf/4.1.2\libgcc.a(_ge_df.o)
 .debug_aranges
                0x00000588       0x20 c:/altera/13.0/nios2eds/bin/gnu/h-i686-mingw32/bin/../lib/gcc/nios2-elf/4.1.2\libgcc.a(_lt_df.o)
 .debug_aranges
                0x000005a8       0x20 c:/altera/13.0/nios2eds/bin/gnu/h-i686-mingw32/bin/../lib/gcc/nios2-elf/4.1.2\libgcc.a(_si_to_df.o)
 .debug_aranges
                0x000005c8       0x20 c:/altera/13.0/nios2eds/bin/gnu/h-i686-mingw32/bin/../lib/gcc/nios2-elf/4.1.2\libgcc.a(_df_to_si.o)
 .debug_aranges
                0x000005e8       0x20 c:/altera/13.0/nios2eds/bin/gnu/h-i686-mingw32/bin/../lib/gcc/nios2-elf/4.1.2\libgcc.a(_usi_to_df.o)
 .debug_aranges
                0x00000608       0x20 c:/altera/13.0/nios2eds/bin/gnu/h-i686-mingw32/bin/../lib/gcc/nios2-elf/4.1.2\libgcc.a(lib2-divmod.o)
 .debug_aranges
                0x00000628       0x20 c:/altera/13.0/nios2eds/bin/gnu/h-i686-mingw32/bin/../lib/gcc/nios2-elf/4.1.2\libgcc.a(_muldi3.o)
 .debug_aranges
                0x00000648       0x20 c:/altera/13.0/nios2eds/bin/gnu/h-i686-mingw32/bin/../lib/gcc/nios2-elf/4.1.2\libgcc.a(_clzsi2.o)
 .debug_aranges
                0x00000668       0x20 c:/altera/13.0/nios2eds/bin/gnu/h-i686-mingw32/bin/../lib/gcc/nios2-elf/4.1.2\libgcc.a(_pack_df.o)
 .debug_aranges
                0x00000688       0x20 c:/altera/13.0/nios2eds/bin/gnu/h-i686-mingw32/bin/../lib/gcc/nios2-elf/4.1.2\libgcc.a(_unpack_df.o)
 .debug_aranges
                0x000006a8       0x20 c:/altera/13.0/nios2eds/bin/gnu/h-i686-mingw32/bin/../lib/gcc/nios2-elf/4.1.2\libgcc.a(_fpcmp_parts_df.o)
 .debug_aranges
                0x000006c8       0x20 ../cs303a2_bsp/\libhal_bsp.a(alt_alarm_start.o)
 .debug_aranges
                0x000006e8       0x20 ../cs303a2_bsp/\libhal_bsp.a(alt_close.o)
 .debug_aranges
                0x00000708       0x20 ../cs303a2_bsp/\libhal_bsp.a(alt_dev.o)
 .debug_aranges
                0x00000728       0x20 ../cs303a2_bsp/\libhal_bsp.a(alt_fstat.o)
 .debug_aranges
                0x00000748       0x20 ../cs303a2_bsp/\libhal_bsp.a(alt_irq_register.o)
 .debug_aranges
                0x00000768       0x20 ../cs303a2_bsp/\libhal_bsp.a(alt_isatty.o)
 .debug_aranges
                0x00000788       0x20 ../cs303a2_bsp/\libhal_bsp.a(alt_load.o)
 .debug_aranges
                0x000007a8       0x20 ../cs303a2_bsp/\libhal_bsp.a(alt_lseek.o)
 .debug_aranges
                0x000007c8       0x20 ../cs303a2_bsp/\libhal_bsp.a(alt_main.o)
 .debug_aranges
                0x000007e8       0x20 ../cs303a2_bsp/\libhal_bsp.a(alt_malloc_lock.o)
 .debug_aranges
                0x00000808       0x20 ../cs303a2_bsp/\libhal_bsp.a(alt_read.o)
 .debug_aranges
                0x00000828       0x20 ../cs303a2_bsp/\libhal_bsp.a(alt_release_fd.o)
 .debug_aranges
                0x00000848       0x20 ../cs303a2_bsp/\libhal_bsp.a(alt_sbrk.o)
 .debug_aranges
                0x00000868       0x20 ../cs303a2_bsp/\libhal_bsp.a(alt_tick.o)
 .debug_aranges
                0x00000888       0x20 ../cs303a2_bsp/\libhal_bsp.a(alt_write.o)
 .debug_aranges
                0x000008a8       0x20 ../cs303a2_bsp/\libhal_bsp.a(alt_sys_init.o)
 .debug_aranges
                0x000008c8       0x20 ../cs303a2_bsp/\libhal_bsp.a(altera_avalon_jtag_uart_fd.o)
 .debug_aranges
                0x000008e8       0x20 ../cs303a2_bsp/\libhal_bsp.a(altera_avalon_jtag_uart_init.o)
 .debug_aranges
                0x00000908       0x20 ../cs303a2_bsp/\libhal_bsp.a(altera_avalon_jtag_uart_ioctl.o)
 .debug_aranges
                0x00000928       0x20 ../cs303a2_bsp/\libhal_bsp.a(altera_avalon_jtag_uart_read.o)
 .debug_aranges
                0x00000948       0x20 ../cs303a2_bsp/\libhal_bsp.a(altera_avalon_jtag_uart_write.o)
 .debug_aranges
                0x00000968       0x20 ../cs303a2_bsp/\libhal_bsp.a(altera_avalon_lcd_16207.o)
 .debug_aranges
                0x00000988       0x20 ../cs303a2_bsp/\libhal_bsp.a(altera_avalon_lcd_16207_fd.o)
 .debug_aranges
                0x000009a8       0x20 ../cs303a2_bsp/\libhal_bsp.a(altera_avalon_timer_sc.o)
 .debug_aranges
                0x000009c8       0x20 ../cs303a2_bsp/\libhal_bsp.a(altera_avalon_uart_fd.o)
 .debug_aranges
                0x000009e8       0x20 ../cs303a2_bsp/\libhal_bsp.a(altera_avalon_uart_init.o)
 .debug_aranges
                0x00000a08       0x20 ../cs303a2_bsp/\libhal_bsp.a(altera_avalon_uart_read.o)
 .debug_aranges
                0x00000a28       0x20 ../cs303a2_bsp/\libhal_bsp.a(altera_avalon_uart_write.o)
 .debug_aranges
                0x00000a48       0x20 ../cs303a2_bsp/\libhal_bsp.a(alt_dcache_flush_all.o)
 .debug_aranges
                0x00000a68       0x20 ../cs303a2_bsp/\libhal_bsp.a(alt_dev_llist_insert.o)
 .debug_aranges
                0x00000a88       0x20 ../cs303a2_bsp/\libhal_bsp.a(alt_do_ctors.o)
 .debug_aranges
                0x00000aa8       0x20 ../cs303a2_bsp/\libhal_bsp.a(alt_do_dtors.o)
 .debug_aranges
                0x00000ac8       0x20 ../cs303a2_bsp/\libhal_bsp.a(alt_icache_flush_all.o)
 .debug_aranges
                0x00000ae8       0x20 ../cs303a2_bsp/\libhal_bsp.a(alt_iic.o)
 .debug_aranges
                0x00000b08       0x20 ../cs303a2_bsp/\libhal_bsp.a(alt_iic_isr_register.o)
 .debug_aranges
                0x00000b28       0x20 ../cs303a2_bsp/\libhal_bsp.a(alt_io_redirect.o)
 .debug_aranges
                0x00000b48       0x30 ../cs303a2_bsp/\libhal_bsp.a(alt_irq_entry.o)
 .debug_aranges
                0x00000b78       0x28 ../cs303a2_bsp/\libhal_bsp.a(alt_irq_handler.o)
 .debug_aranges
                0x00000ba0       0x20 ../cs303a2_bsp/\libhal_bsp.a(alt_open.o)
 .debug_aranges
                0x00000bc0       0x20 ../cs303a2_bsp/\libhal_bsp.a(alt_usleep.o)
 .debug_aranges
                0x00000be0       0x20 ../cs303a2_bsp/\libhal_bsp.a(altera_nios2_qsys_irq.o)
 .debug_aranges
                0x00000c00       0x20 ../cs303a2_bsp/\libhal_bsp.a(alt_busy_sleep.o)
 .debug_aranges
                0x00000c20       0x38 ../cs303a2_bsp/\libhal_bsp.a(alt_exception_entry.o)
 .debug_aranges
                0x00000c58       0x20 ../cs303a2_bsp/\libhal_bsp.a(alt_find_dev.o)
 .debug_aranges
                0x00000c78       0x20 ../cs303a2_bsp/\libhal_bsp.a(alt_find_file.o)
 .debug_aranges
                0x00000c98       0x20 ../cs303a2_bsp/\libhal_bsp.a(alt_get_fd.o)
 .debug_aranges
                0x00000cb8       0x20 ../cs303a2_bsp/\libhal_bsp.a(alt_icache_flush.o)
 .debug_aranges
                0x00000cd8       0x20 c:/altera/13.0/nios2eds/bin/gnu/h-i686-mingw32/bin/../lib/gcc/nios2-elf/4.1.2/../../../../nios2-elf/lib\libc.a(lib_a-atexit.o)
 .debug_aranges
                0x00000cf8       0x20 c:/altera/13.0/nios2eds/bin/gnu/h-i686-mingw32/bin/../lib/gcc/nios2-elf/4.1.2/../../../../nios2-elf/lib\libc.a(lib_a-exit.o)
 .debug_aranges
                0x00000d18       0x20 c:/altera/13.0/nios2eds/bin/gnu/h-i686-mingw32/bin/../lib/gcc/nios2-elf/4.1.2/../../../../nios2-elf/lib\libc.a(lib_a-memcmp.o)
 .debug_aranges
                0x00000d38       0x20 c:/altera/13.0/nios2eds/bin/gnu/h-i686-mingw32/bin/../lib/gcc/nios2-elf/4.1.2/../../../../nios2-elf/lib\libc.a(lib_a-__atexit.o)
 .debug_aranges
                0x00000d58       0x20 c:/altera/13.0/nios2eds/bin/gnu/h-i686-mingw32/bin/../lib/gcc/nios2-elf/4.1.2/../../../../nios2-elf/lib\libc.a(lib_a-__call_atexit.o)
 .debug_aranges
                0x00000d78       0x20 ../cs303a2_bsp/\libhal_bsp.a(alt_exit.o)

.debug_pubnames
                0x00000000     0x21fb
 *(.debug_pubnames)
 .debug_pubnames
                0x00000000       0x63 obj/default/hello_world.o
 .debug_pubnames
                0x00000063      0xc73 obj/default/sccharts.o
 .debug_pubnames
                0x00000cd6       0x2b c:/altera/13.0/nios2eds/bin/gnu/h-i686-mingw32/bin/../lib/gcc/nios2-elf/4.1.2/../../../../nios2-elf/lib\libc.a(lib_a-printf.o)
 .debug_pubnames
                0x00000d01       0x45 c:/altera/13.0/nios2eds/bin/gnu/h-i686-mingw32/bin/../lib/gcc/nios2-elf/4.1.2/../../../../nios2-elf/lib\libc.a(lib_a-vfprintf.o)
 .debug_pubnames
                0x00000d46       0x22 c:/altera/13.0/nios2eds/bin/gnu/h-i686-mingw32/bin/../lib/gcc/nios2-elf/4.1.2/../../../../nios2-elf/lib\libc.a(lib_a-wsetup.o)
 .debug_pubnames
                0x00000d68       0x1e c:/altera/13.0/nios2eds/bin/gnu/h-i686-mingw32/bin/../lib/gcc/nios2-elf/4.1.2/../../../../nios2-elf/lib\libc.a(lib_a-dtoa.o)
 .debug_pubnames
                0x00000d86       0x2b c:/altera/13.0/nios2eds/bin/gnu/h-i686-mingw32/bin/../lib/gcc/nios2-elf/4.1.2/../../../../nios2-elf/lib\libc.a(lib_a-fflush.o)
 .debug_pubnames
                0x00000db1       0xdb c:/altera/13.0/nios2eds/bin/gnu/h-i686-mingw32/bin/../lib/gcc/nios2-elf/4.1.2/../../../../nios2-elf/lib\libc.a(lib_a-findfp.o)
 .debug_pubnames
                0x00000e8c       0x31 c:/altera/13.0/nios2eds/bin/gnu/h-i686-mingw32/bin/../lib/gcc/nios2-elf/4.1.2/../../../../nios2-elf/lib\libc.a(lib_a-freer.o)
 .debug_pubnames
                0x00000ebd       0x23 c:/altera/13.0/nios2eds/bin/gnu/h-i686-mingw32/bin/../lib/gcc/nios2-elf/4.1.2/../../../../nios2-elf/lib\libc.a(lib_a-fvwrite.o)
 .debug_pubnames
                0x00000ee0       0x2e c:/altera/13.0/nios2eds/bin/gnu/h-i686-mingw32/bin/../lib/gcc/nios2-elf/4.1.2/../../../../nios2-elf/lib\libc.a(lib_a-fwalk.o)
 .debug_pubnames
                0x00000f0e       0x39 c:/altera/13.0/nios2eds/bin/gnu/h-i686-mingw32/bin/../lib/gcc/nios2-elf/4.1.2/../../../../nios2-elf/lib\libc.a(lib_a-impure.o)
 .debug_pubnames
                0x00000f47       0xc3 c:/altera/13.0/nios2eds/bin/gnu/h-i686-mingw32/bin/../lib/gcc/nios2-elf/4.1.2/../../../../nios2-elf/lib\libc.a(lib_a-locale.o)
 .debug_pubnames
                0x0000100a       0x23 c:/altera/13.0/nios2eds/bin/gnu/h-i686-mingw32/bin/../lib/gcc/nios2-elf/4.1.2/../../../../nios2-elf/lib\libc.a(lib_a-makebuf.o)
 .debug_pubnames
                0x0000102d       0xce c:/altera/13.0/nios2eds/bin/gnu/h-i686-mingw32/bin/../lib/gcc/nios2-elf/4.1.2/../../../../nios2-elf/lib\libc.a(lib_a-mallocr.o)
 .debug_pubnames
                0x000010fb       0x1d c:/altera/13.0/nios2eds/bin/gnu/h-i686-mingw32/bin/../lib/gcc/nios2-elf/4.1.2/../../../../nios2-elf/lib\libc.a(lib_a-memchr.o)
 .debug_pubnames
                0x00001118       0x1d c:/altera/13.0/nios2eds/bin/gnu/h-i686-mingw32/bin/../lib/gcc/nios2-elf/4.1.2/../../../../nios2-elf/lib\libc.a(lib_a-memcpy.o)
 .debug_pubnames
                0x00001135       0x1e c:/altera/13.0/nios2eds/bin/gnu/h-i686-mingw32/bin/../lib/gcc/nios2-elf/4.1.2/../../../../nios2-elf/lib\libc.a(lib_a-memmove.o)
 .debug_pubnames
                0x00001153       0x1d c:/altera/13.0/nios2eds/bin/gnu/h-i686-mingw32/bin/../lib/gcc/nios2-elf/4.1.2/../../../../nios2-elf/lib\libc.a(lib_a-memset.o)
 .debug_pubnames
                0x00001170      0x13a c:/altera/13.0/nios2eds/bin/gnu/h-i686-mingw32/bin/../lib/gcc/nios2-elf/4.1.2/../../../../nios2-elf/lib\libc.a(lib_a-mprec.o)
 .debug_pubnames
                0x000012aa       0x21 c:/altera/13.0/nios2eds/bin/gnu/h-i686-mingw32/bin/../lib/gcc/nios2-elf/4.1.2/../../../../nios2-elf/lib\libc.a(lib_a-reallocr.o)
 .debug_pubnames
                0x000012cb       0x1f c:/altera/13.0/nios2eds/bin/gnu/h-i686-mingw32/bin/../lib/gcc/nios2-elf/4.1.2/../../../../nios2-elf/lib\libc.a(lib_a-s_isinfd.o)
 .debug_pubnames
                0x000012ea       0x1f c:/altera/13.0/nios2eds/bin/gnu/h-i686-mingw32/bin/../lib/gcc/nios2-elf/4.1.2/../../../../nios2-elf/lib\libc.a(lib_a-s_isnand.o)
 .debug_pubnames
                0x00001309       0x1e c:/altera/13.0/nios2eds/bin/gnu/h-i686-mingw32/bin/../lib/gcc/nios2-elf/4.1.2/../../../../nios2-elf/lib\libc.a(lib_a-sbrkr.o)
 .debug_pubnames
                0x00001327       0x44 c:/altera/13.0/nios2eds/bin/gnu/h-i686-mingw32/bin/../lib/gcc/nios2-elf/4.1.2/../../../../nios2-elf/lib\libc.a(lib_a-stdio.o)
 .debug_pubnames
                0x0000136b       0x1d c:/altera/13.0/nios2eds/bin/gnu/h-i686-mingw32/bin/../lib/gcc/nios2-elf/4.1.2/../../../../nios2-elf/lib\libc.a(lib_a-strcmp.o)
 .debug_pubnames
                0x00001388       0x1d c:/altera/13.0/nios2eds/bin/gnu/h-i686-mingw32/bin/../lib/gcc/nios2-elf/4.1.2/../../../../nios2-elf/lib\libc.a(lib_a-strlen.o)
 .debug_pubnames
                0x000013a5       0x1f c:/altera/13.0/nios2eds/bin/gnu/h-i686-mingw32/bin/../lib/gcc/nios2-elf/4.1.2/../../../../nios2-elf/lib\libc.a(lib_a-writer.o)
 .debug_pubnames
                0x000013c4       0x20 c:/altera/13.0/nios2eds/bin/gnu/h-i686-mingw32/bin/../lib/gcc/nios2-elf/4.1.2/../../../../nios2-elf/lib\libc.a(lib_a-callocr.o)
 .debug_pubnames
                0x000013e4       0x1f c:/altera/13.0/nios2eds/bin/gnu/h-i686-mingw32/bin/../lib/gcc/nios2-elf/4.1.2/../../../../nios2-elf/lib\libc.a(lib_a-closer.o)
 .debug_pubnames
                0x00001403       0x2b c:/altera/13.0/nios2eds/bin/gnu/h-i686-mingw32/bin/../lib/gcc/nios2-elf/4.1.2/../../../../nios2-elf/lib\libc.a(lib_a-fclose.o)
 .debug_pubnames
                0x0000142e       0x1f c:/altera/13.0/nios2eds/bin/gnu/h-i686-mingw32/bin/../lib/gcc/nios2-elf/4.1.2/../../../../nios2-elf/lib\libc.a(lib_a-fstatr.o)
 .debug_pubnames
                0x0000144d       0x1c c:/altera/13.0/nios2eds/bin/gnu/h-i686-mingw32/bin/../lib/gcc/nios2-elf/4.1.2/../../../../nios2-elf/lib\libc.a(lib_a-int_errno.o)
 .debug_pubnames
                0x00001469       0x20 c:/altera/13.0/nios2eds/bin/gnu/h-i686-mingw32/bin/../lib/gcc/nios2-elf/4.1.2/../../../../nios2-elf/lib\libc.a(lib_a-isattyr.o)
 .debug_pubnames
                0x00001489       0x1f c:/altera/13.0/nios2eds/bin/gnu/h-i686-mingw32/bin/../lib/gcc/nios2-elf/4.1.2/../../../../nios2-elf/lib\libc.a(lib_a-lseekr.o)
 .debug_pubnames
                0x000014a8       0x1e c:/altera/13.0/nios2eds/bin/gnu/h-i686-mingw32/bin/../lib/gcc/nios2-elf/4.1.2/../../../../nios2-elf/lib\libc.a(lib_a-readr.o)
 .debug_pubnames
                0x000014c6       0x20 c:/altera/13.0/nios2eds/bin/gnu/h-i686-mingw32/bin/../lib/gcc/nios2-elf/4.1.2\libgcc.a(_udivdi3.o)
 .debug_pubnames
                0x000014e6       0x20 c:/altera/13.0/nios2eds/bin/gnu/h-i686-mingw32/bin/../lib/gcc/nios2-elf/4.1.2\libgcc.a(_umoddi3.o)
 .debug_pubnames
                0x00001506       0x2c c:/altera/13.0/nios2eds/bin/gnu/h-i686-mingw32/bin/../lib/gcc/nios2-elf/4.1.2\libgcc.a(_addsub_df.o)
 .debug_pubnames
                0x00001532       0x1f c:/altera/13.0/nios2eds/bin/gnu/h-i686-mingw32/bin/../lib/gcc/nios2-elf/4.1.2\libgcc.a(_mul_df.o)
 .debug_pubnames
                0x00001551       0x1f c:/altera/13.0/nios2eds/bin/gnu/h-i686-mingw32/bin/../lib/gcc/nios2-elf/4.1.2\libgcc.a(_div_df.o)
 .debug_pubnames
                0x00001570       0x1e c:/altera/13.0/nios2eds/bin/gnu/h-i686-mingw32/bin/../lib/gcc/nios2-elf/4.1.2\libgcc.a(_eq_df.o)
 .debug_pubnames
                0x0000158e       0x1e c:/altera/13.0/nios2eds/bin/gnu/h-i686-mingw32/bin/../lib/gcc/nios2-elf/4.1.2\libgcc.a(_ne_df.o)
 .debug_pubnames
                0x000015ac       0x1e c:/altera/13.0/nios2eds/bin/gnu/h-i686-mingw32/bin/../lib/gcc/nios2-elf/4.1.2\libgcc.a(_gt_df.o)
 .debug_pubnames
                0x000015ca       0x1e c:/altera/13.0/nios2eds/bin/gnu/h-i686-mingw32/bin/../lib/gcc/nios2-elf/4.1.2\libgcc.a(_ge_df.o)
 .debug_pubnames
                0x000015e8       0x1e c:/altera/13.0/nios2eds/bin/gnu/h-i686-mingw32/bin/../lib/gcc/nios2-elf/4.1.2\libgcc.a(_lt_df.o)
 .debug_pubnames
                0x00001606       0x22 c:/altera/13.0/nios2eds/bin/gnu/h-i686-mingw32/bin/../lib/gcc/nios2-elf/4.1.2\libgcc.a(_si_to_df.o)
 .debug_pubnames
                0x00001628       0x20 c:/altera/13.0/nios2eds/bin/gnu/h-i686-mingw32/bin/../lib/gcc/nios2-elf/4.1.2\libgcc.a(_df_to_si.o)
 .debug_pubnames
                0x00001648       0x22 c:/altera/13.0/nios2eds/bin/gnu/h-i686-mingw32/bin/../lib/gcc/nios2-elf/4.1.2\libgcc.a(_thenan_df.o)
 .debug_pubnames
                0x0000166a       0x24 c:/altera/13.0/nios2eds/bin/gnu/h-i686-mingw32/bin/../lib/gcc/nios2-elf/4.1.2\libgcc.a(_usi_to_df.o)
 .debug_pubnames
                0x0000168e       0x48 c:/altera/13.0/nios2eds/bin/gnu/h-i686-mingw32/bin/../lib/gcc/nios2-elf/4.1.2\libgcc.a(lib2-divmod.o)
 .debug_pubnames
                0x000016d6       0x1f c:/altera/13.0/nios2eds/bin/gnu/h-i686-mingw32/bin/../lib/gcc/nios2-elf/4.1.2\libgcc.a(_muldi3.o)
 .debug_pubnames
                0x000016f5       0x20 c:/altera/13.0/nios2eds/bin/gnu/h-i686-mingw32/bin/../lib/gcc/nios2-elf/4.1.2\libgcc.a(_clz.o)
 .debug_pubnames
                0x00001715       0x1f c:/altera/13.0/nios2eds/bin/gnu/h-i686-mingw32/bin/../lib/gcc/nios2-elf/4.1.2\libgcc.a(_clzsi2.o)
 .debug_pubnames
                0x00001734       0x1f c:/altera/13.0/nios2eds/bin/gnu/h-i686-mingw32/bin/../lib/gcc/nios2-elf/4.1.2\libgcc.a(_pack_df.o)
 .debug_pubnames
                0x00001753       0x21 c:/altera/13.0/nios2eds/bin/gnu/h-i686-mingw32/bin/../lib/gcc/nios2-elf/4.1.2\libgcc.a(_unpack_df.o)
 .debug_pubnames
                0x00001774       0x26 c:/altera/13.0/nios2eds/bin/gnu/h-i686-mingw32/bin/../lib/gcc/nios2-elf/4.1.2\libgcc.a(_fpcmp_parts_df.o)
 .debug_pubnames
                0x0000179a       0x26 ../cs303a2_bsp/\libhal_bsp.a(alt_alarm_start.o)
 .debug_pubnames
                0x000017c0       0x1c ../cs303a2_bsp/\libhal_bsp.a(alt_close.o)
 .debug_pubnames
                0x000017dc       0x63 ../cs303a2_bsp/\libhal_bsp.a(alt_dev.o)
 .debug_pubnames
                0x0000183f       0x20 ../cs303a2_bsp/\libhal_bsp.a(alt_errno.o)
 .debug_pubnames
                0x0000185f       0x1c ../cs303a2_bsp/\libhal_bsp.a(alt_fstat.o)
 .debug_pubnames
                0x0000187b       0x27 ../cs303a2_bsp/\libhal_bsp.a(alt_irq_register.o)
 .debug_pubnames
                0x000018a2       0x3b ../cs303a2_bsp/\libhal_bsp.a(alt_irq_vars.o)
 .debug_pubnames
                0x000018dd       0x1d ../cs303a2_bsp/\libhal_bsp.a(alt_isatty.o)
 .debug_pubnames
                0x000018fa       0x1f ../cs303a2_bsp/\libhal_bsp.a(alt_load.o)
 .debug_pubnames
                0x00001919       0x1c ../cs303a2_bsp/\libhal_bsp.a(alt_lseek.o)
 .debug_pubnames
                0x00001935       0x46 ../cs303a2_bsp/\libhal_bsp.a(alt_main.o)
 .debug_pubnames
                0x0000197b       0x38 ../cs303a2_bsp/\libhal_bsp.a(alt_malloc_lock.o)
 .debug_pubnames
                0x000019b3       0x1b ../cs303a2_bsp/\libhal_bsp.a(alt_read.o)
 .debug_pubnames
                0x000019ce       0x25 ../cs303a2_bsp/\libhal_bsp.a(alt_release_fd.o)
 .debug_pubnames
                0x000019f3       0x1b ../cs303a2_bsp/\libhal_bsp.a(alt_sbrk.o)
 .debug_pubnames
                0x00001a0e       0x68 ../cs303a2_bsp/\libhal_bsp.a(alt_tick.o)
 .debug_pubnames
                0x00001a76       0x1c ../cs303a2_bsp/\libhal_bsp.a(alt_write.o)
 .debug_pubnames
                0x00001a92       0x34 ../cs303a2_bsp/\libhal_bsp.a(alt_sys_init.o)
 .debug_pubnames
                0x00001ac6       0xa5 ../cs303a2_bsp/\libhal_bsp.a(altera_avalon_jtag_uart_fd.o)
 .debug_pubnames
                0x00001b6b       0x55 ../cs303a2_bsp/\libhal_bsp.a(altera_avalon_jtag_uart_init.o)
 .debug_pubnames
                0x00001bc0       0x34 ../cs303a2_bsp/\libhal_bsp.a(altera_avalon_jtag_uart_ioctl.o)
 .debug_pubnames
                0x00001bf4       0x33 ../cs303a2_bsp/\libhal_bsp.a(altera_avalon_jtag_uart_read.o)
 .debug_pubnames
                0x00001c27       0x34 ../cs303a2_bsp/\libhal_bsp.a(altera_avalon_jtag_uart_write.o)
 .debug_pubnames
                0x00001c5b       0x55 ../cs303a2_bsp/\libhal_bsp.a(altera_avalon_lcd_16207.o)
 .debug_pubnames
                0x00001cb0       0x37 ../cs303a2_bsp/\libhal_bsp.a(altera_avalon_lcd_16207_fd.o)
 .debug_pubnames
                0x00001ce7       0x2f ../cs303a2_bsp/\libhal_bsp.a(altera_avalon_timer_sc.o)
 .debug_pubnames
                0x00001d16       0x71 ../cs303a2_bsp/\libhal_bsp.a(altera_avalon_uart_fd.o)
 .debug_pubnames
                0x00001d87       0x4b ../cs303a2_bsp/\libhal_bsp.a(altera_avalon_uart_init.o)
 .debug_pubnames
                0x00001dd2       0x2e ../cs303a2_bsp/\libhal_bsp.a(altera_avalon_uart_read.o)
 .debug_pubnames
                0x00001e00       0x2f ../cs303a2_bsp/\libhal_bsp.a(altera_avalon_uart_write.o)
 .debug_pubnames
                0x00001e2f       0x2b ../cs303a2_bsp/\libhal_bsp.a(alt_dcache_flush_all.o)
 .debug_pubnames
                0x00001e5a       0x2b ../cs303a2_bsp/\libhal_bsp.a(alt_dev_llist_insert.o)
 .debug_pubnames
                0x00001e85       0x20 ../cs303a2_bsp/\libhal_bsp.a(alt_do_ctors.o)
 .debug_pubnames
                0x00001ea5       0x20 ../cs303a2_bsp/\libhal_bsp.a(alt_do_dtors.o)
 .debug_pubnames
                0x00001ec5       0x2b ../cs303a2_bsp/\libhal_bsp.a(alt_icache_flush_all.o)
 .debug_pubnames
                0x00001ef0       0x6e ../cs303a2_bsp/\libhal_bsp.a(alt_iic.o)
 .debug_pubnames
                0x00001f5e       0x2b ../cs303a2_bsp/\libhal_bsp.a(alt_iic_isr_register.o)
 .debug_pubnames
                0x00001f89       0x26 ../cs303a2_bsp/\libhal_bsp.a(alt_io_redirect.o)
 .debug_pubnames
                0x00001faf       0x32 ../cs303a2_bsp/\libhal_bsp.a(alt_irq_handler.o)
 .debug_pubnames
                0x00001fe1       0x1b ../cs303a2_bsp/\libhal_bsp.a(alt_open.o)
 .debug_pubnames
                0x00001ffc       0x1d ../cs303a2_bsp/\libhal_bsp.a(alt_usleep.o)
 .debug_pubnames
                0x00002019       0x31 ../cs303a2_bsp/\libhal_bsp.a(altera_nios2_qsys_irq.o)
 .debug_pubnames
                0x0000204a       0x25 ../cs303a2_bsp/\libhal_bsp.a(alt_busy_sleep.o)
 .debug_pubnames
                0x0000206f       0x23 ../cs303a2_bsp/\libhal_bsp.a(alt_find_dev.o)
 .debug_pubnames
                0x00002092       0x24 ../cs303a2_bsp/\libhal_bsp.a(alt_find_file.o)
 .debug_pubnames
                0x000020b6       0x21 ../cs303a2_bsp/\libhal_bsp.a(alt_get_fd.o)
 .debug_pubnames
                0x000020d7       0x27 ../cs303a2_bsp/\libhal_bsp.a(alt_icache_flush.o)
 .debug_pubnames
                0x000020fe       0x2a c:/altera/13.0/nios2eds/bin/gnu/h-i686-mingw32/bin/../lib/gcc/nios2-elf/4.1.2/../../../../nios2-elf/lib\libc.a(lib_a-atexit.o)
 .debug_pubnames
                0x00002128       0x2e c:/altera/13.0/nios2eds/bin/gnu/h-i686-mingw32/bin/../lib/gcc/nios2-elf/4.1.2/../../../../nios2-elf/lib\libc.a(lib_a-ctype_.o)
 .debug_pubnames
                0x00002156       0x1b c:/altera/13.0/nios2eds/bin/gnu/h-i686-mingw32/bin/../lib/gcc/nios2-elf/4.1.2/../../../../nios2-elf/lib\libc.a(lib_a-exit.o)
 .debug_pubnames
                0x00002171       0x1d c:/altera/13.0/nios2eds/bin/gnu/h-i686-mingw32/bin/../lib/gcc/nios2-elf/4.1.2/../../../../nios2-elf/lib\libc.a(lib_a-memcmp.o)
 .debug_pubnames
                0x0000218e       0x2a c:/altera/13.0/nios2eds/bin/gnu/h-i686-mingw32/bin/../lib/gcc/nios2-elf/4.1.2/../../../../nios2-elf/lib\libc.a(lib_a-__atexit.o)
 .debug_pubnames
                0x000021b8       0x27 c:/altera/13.0/nios2eds/bin/gnu/h-i686-mingw32/bin/../lib/gcc/nios2-elf/4.1.2/../../../../nios2-elf/lib\libc.a(lib_a-__call_atexit.o)
 .debug_pubnames
                0x000021df       0x1c ../cs303a2_bsp/\libhal_bsp.a(alt_exit.o)

.debug_info     0x00000000    0x26c53
 *(.debug_info .gnu.linkonce.wi.*)
 .debug_info    0x00000000       0x6d ../cs303a2_bsp//obj/HAL/src/crt0.o
 .debug_info    0x0000006d      0x67d obj/default/hello_world.o
 .debug_info    0x000006ea     0x1814 obj/default/sccharts.o
 .debug_info    0x00001efe      0x9d1 c:/altera/13.0/nios2eds/bin/gnu/h-i686-mingw32/bin/../lib/gcc/nios2-elf/4.1.2/../../../../nios2-elf/lib\libc.a(lib_a-printf.o)
 .debug_info    0x000028cf     0x10d5 c:/altera/13.0/nios2eds/bin/gnu/h-i686-mingw32/bin/../lib/gcc/nios2-elf/4.1.2/../../../../nios2-elf/lib\libc.a(lib_a-vfprintf.o)
 .debug_info    0x000039a4      0x95d c:/altera/13.0/nios2eds/bin/gnu/h-i686-mingw32/bin/../lib/gcc/nios2-elf/4.1.2/../../../../nios2-elf/lib\libc.a(lib_a-wsetup.o)
 .debug_info    0x00004301      0xd6f c:/altera/13.0/nios2eds/bin/gnu/h-i686-mingw32/bin/../lib/gcc/nios2-elf/4.1.2/../../../../nios2-elf/lib\libc.a(lib_a-dtoa.o)
 .debug_info    0x00005070      0x9fe c:/altera/13.0/nios2eds/bin/gnu/h-i686-mingw32/bin/../lib/gcc/nios2-elf/4.1.2/../../../../nios2-elf/lib\libc.a(lib_a-fflush.o)
 .debug_info    0x00005a6e      0xb72 c:/altera/13.0/nios2eds/bin/gnu/h-i686-mingw32/bin/../lib/gcc/nios2-elf/4.1.2/../../../../nios2-elf/lib\libc.a(lib_a-findfp.o)
 .debug_info    0x000065e0      0xbc9 c:/altera/13.0/nios2eds/bin/gnu/h-i686-mingw32/bin/../lib/gcc/nios2-elf/4.1.2/../../../../nios2-elf/lib\libc.a(lib_a-freer.o)
 .debug_info    0x000071a9      0xa88 c:/altera/13.0/nios2eds/bin/gnu/h-i686-mingw32/bin/../lib/gcc/nios2-elf/4.1.2/../../../../nios2-elf/lib\libc.a(lib_a-fvwrite.o)
 .debug_info    0x00007c31      0xaed c:/altera/13.0/nios2eds/bin/gnu/h-i686-mingw32/bin/../lib/gcc/nios2-elf/4.1.2/../../../../nios2-elf/lib\libc.a(lib_a-fwalk.o)
 .debug_info    0x0000871e      0x93d c:/altera/13.0/nios2eds/bin/gnu/h-i686-mingw32/bin/../lib/gcc/nios2-elf/4.1.2/../../../../nios2-elf/lib\libc.a(lib_a-impure.o)
 .debug_info    0x0000905b      0xb97 c:/altera/13.0/nios2eds/bin/gnu/h-i686-mingw32/bin/../lib/gcc/nios2-elf/4.1.2/../../../../nios2-elf/lib\libc.a(lib_a-locale.o)
 .debug_info    0x00009bf2      0xb1a c:/altera/13.0/nios2eds/bin/gnu/h-i686-mingw32/bin/../lib/gcc/nios2-elf/4.1.2/../../../../nios2-elf/lib\libc.a(lib_a-makebuf.o)
 .debug_info    0x0000a70c      0xcd0 c:/altera/13.0/nios2eds/bin/gnu/h-i686-mingw32/bin/../lib/gcc/nios2-elf/4.1.2/../../../../nios2-elf/lib\libc.a(lib_a-mallocr.o)
 .debug_info    0x0000b3dc      0x138 c:/altera/13.0/nios2eds/bin/gnu/h-i686-mingw32/bin/../lib/gcc/nios2-elf/4.1.2/../../../../nios2-elf/lib\libc.a(lib_a-memchr.o)
 .debug_info    0x0000b514      0x106 c:/altera/13.0/nios2eds/bin/gnu/h-i686-mingw32/bin/../lib/gcc/nios2-elf/4.1.2/../../../../nios2-elf/lib\libc.a(lib_a-memcpy.o)
 .debug_info    0x0000b61a      0x13e c:/altera/13.0/nios2eds/bin/gnu/h-i686-mingw32/bin/../lib/gcc/nios2-elf/4.1.2/../../../../nios2-elf/lib\libc.a(lib_a-memmove.o)
 .debug_info    0x0000b758      0x113 c:/altera/13.0/nios2eds/bin/gnu/h-i686-mingw32/bin/../lib/gcc/nios2-elf/4.1.2/../../../../nios2-elf/lib\libc.a(lib_a-memset.o)
 .debug_info    0x0000b86b     0x1437 c:/altera/13.0/nios2eds/bin/gnu/h-i686-mingw32/bin/../lib/gcc/nios2-elf/4.1.2/../../../../nios2-elf/lib\libc.a(lib_a-mprec.o)
 .debug_info    0x0000cca2      0xbd7 c:/altera/13.0/nios2eds/bin/gnu/h-i686-mingw32/bin/../lib/gcc/nios2-elf/4.1.2/../../../../nios2-elf/lib\libc.a(lib_a-reallocr.o)
 .debug_info    0x0000d879       0xd7 c:/altera/13.0/nios2eds/bin/gnu/h-i686-mingw32/bin/../lib/gcc/nios2-elf/4.1.2/../../../../nios2-elf/lib\libc.a(lib_a-s_isinfd.o)
 .debug_info    0x0000d950       0xd5 c:/altera/13.0/nios2eds/bin/gnu/h-i686-mingw32/bin/../lib/gcc/nios2-elf/4.1.2/../../../../nios2-elf/lib\libc.a(lib_a-s_isnand.o)
 .debug_info    0x0000da25      0x962 c:/altera/13.0/nios2eds/bin/gnu/h-i686-mingw32/bin/../lib/gcc/nios2-elf/4.1.2/../../../../nios2-elf/lib\libc.a(lib_a-sbrkr.o)
 .debug_info    0x0000e387      0xaac c:/altera/13.0/nios2eds/bin/gnu/h-i686-mingw32/bin/../lib/gcc/nios2-elf/4.1.2/../../../../nios2-elf/lib\libc.a(lib_a-stdio.o)
 .debug_info    0x0000ee33       0xdd c:/altera/13.0/nios2eds/bin/gnu/h-i686-mingw32/bin/../lib/gcc/nios2-elf/4.1.2/../../../../nios2-elf/lib\libc.a(lib_a-strcmp.o)
 .debug_info    0x0000ef10       0xdb c:/altera/13.0/nios2eds/bin/gnu/h-i686-mingw32/bin/../lib/gcc/nios2-elf/4.1.2/../../../../nios2-elf/lib\libc.a(lib_a-strlen.o)
 .debug_info    0x0000efeb      0x993 c:/altera/13.0/nios2eds/bin/gnu/h-i686-mingw32/bin/../lib/gcc/nios2-elf/4.1.2/../../../../nios2-elf/lib\libc.a(lib_a-writer.o)
 .debug_info    0x0000f97e      0xa1b c:/altera/13.0/nios2eds/bin/gnu/h-i686-mingw32/bin/../lib/gcc/nios2-elf/4.1.2/../../../../nios2-elf/lib\libc.a(lib_a-callocr.o)
 .debug_info    0x00010399      0x958 c:/altera/13.0/nios2eds/bin/gnu/h-i686-mingw32/bin/../lib/gcc/nios2-elf/4.1.2/../../../../nios2-elf/lib\libc.a(lib_a-closer.o)
 .debug_info    0x00010cf1      0x994 c:/altera/13.0/nios2eds/bin/gnu/h-i686-mingw32/bin/../lib/gcc/nios2-elf/4.1.2/../../../../nios2-elf/lib\libc.a(lib_a-fclose.o)
 .debug_info    0x00011685      0xafc c:/altera/13.0/nios2eds/bin/gnu/h-i686-mingw32/bin/../lib/gcc/nios2-elf/4.1.2/../../../../nios2-elf/lib\libc.a(lib_a-fstatr.o)
 .debug_info    0x00012181       0x8c c:/altera/13.0/nios2eds/bin/gnu/h-i686-mingw32/bin/../lib/gcc/nios2-elf/4.1.2/../../../../nios2-elf/lib\libc.a(lib_a-int_errno.o)
 .debug_info    0x0001220d      0x958 c:/altera/13.0/nios2eds/bin/gnu/h-i686-mingw32/bin/../lib/gcc/nios2-elf/4.1.2/../../../../nios2-elf/lib\libc.a(lib_a-isattyr.o)
 .debug_info    0x00012b65      0x981 c:/altera/13.0/nios2eds/bin/gnu/h-i686-mingw32/bin/../lib/gcc/nios2-elf/4.1.2/../../../../nios2-elf/lib\libc.a(lib_a-lseekr.o)
 .debug_info    0x000134e6      0x98c c:/altera/13.0/nios2eds/bin/gnu/h-i686-mingw32/bin/../lib/gcc/nios2-elf/4.1.2/../../../../nios2-elf/lib\libc.a(lib_a-readr.o)
 .debug_info    0x00013e72      0x724 c:/altera/13.0/nios2eds/bin/gnu/h-i686-mingw32/bin/../lib/gcc/nios2-elf/4.1.2\libgcc.a(_udivdi3.o)
 .debug_info    0x00014596      0x751 c:/altera/13.0/nios2eds/bin/gnu/h-i686-mingw32/bin/../lib/gcc/nios2-elf/4.1.2\libgcc.a(_umoddi3.o)
 .debug_info    0x00014ce7      0x493 c:/altera/13.0/nios2eds/bin/gnu/h-i686-mingw32/bin/../lib/gcc/nios2-elf/4.1.2\libgcc.a(_addsub_df.o)
 .debug_info    0x0001517a      0x488 c:/altera/13.0/nios2eds/bin/gnu/h-i686-mingw32/bin/../lib/gcc/nios2-elf/4.1.2\libgcc.a(_mul_df.o)
 .debug_info    0x00015602      0x39b c:/altera/13.0/nios2eds/bin/gnu/h-i686-mingw32/bin/../lib/gcc/nios2-elf/4.1.2\libgcc.a(_div_df.o)
 .debug_info    0x0001599d      0x29d c:/altera/13.0/nios2eds/bin/gnu/h-i686-mingw32/bin/../lib/gcc/nios2-elf/4.1.2\libgcc.a(_eq_df.o)
 .debug_info    0x00015c3a      0x29d c:/altera/13.0/nios2eds/bin/gnu/h-i686-mingw32/bin/../lib/gcc/nios2-elf/4.1.2\libgcc.a(_ne_df.o)
 .debug_info    0x00015ed7      0x29d c:/altera/13.0/nios2eds/bin/gnu/h-i686-mingw32/bin/../lib/gcc/nios2-elf/4.1.2\libgcc.a(_gt_df.o)
 .debug_info    0x00016174      0x29d c:/altera/13.0/nios2eds/bin/gnu/h-i686-mingw32/bin/../lib/gcc/nios2-elf/4.1.2\libgcc.a(_ge_df.o)
 .debug_info    0x00016411      0x29d c:/altera/13.0/nios2eds/bin/gnu/h-i686-mingw32/bin/../lib/gcc/nios2-elf/4.1.2\libgcc.a(_lt_df.o)
 .debug_info    0x000166ae      0x218 c:/altera/13.0/nios2eds/bin/gnu/h-i686-mingw32/bin/../lib/gcc/nios2-elf/4.1.2\libgcc.a(_si_to_df.o)
 .debug_info    0x000168c6      0x2cd c:/altera/13.0/nios2eds/bin/gnu/h-i686-mingw32/bin/../lib/gcc/nios2-elf/4.1.2\libgcc.a(_df_to_si.o)
 .debug_info    0x00016b93      0x164 c:/altera/13.0/nios2eds/bin/gnu/h-i686-mingw32/bin/../lib/gcc/nios2-elf/4.1.2\libgcc.a(_thenan_df.o)
 .debug_info    0x00016cf7      0x213 c:/altera/13.0/nios2eds/bin/gnu/h-i686-mingw32/bin/../lib/gcc/nios2-elf/4.1.2\libgcc.a(_usi_to_df.o)
 .debug_info    0x00016f0a      0x21c c:/altera/13.0/nios2eds/bin/gnu/h-i686-mingw32/bin/../lib/gcc/nios2-elf/4.1.2\libgcc.a(lib2-divmod.o)
 .debug_info    0x00017126      0x215 c:/altera/13.0/nios2eds/bin/gnu/h-i686-mingw32/bin/../lib/gcc/nios2-elf/4.1.2\libgcc.a(_muldi3.o)
 .debug_info    0x0001733b       0xc9 c:/altera/13.0/nios2eds/bin/gnu/h-i686-mingw32/bin/../lib/gcc/nios2-elf/4.1.2\libgcc.a(_clz.o)
 .debug_info    0x00017404      0x130 c:/altera/13.0/nios2eds/bin/gnu/h-i686-mingw32/bin/../lib/gcc/nios2-elf/4.1.2\libgcc.a(_clzsi2.o)
 .debug_info    0x00017534      0x2fc c:/altera/13.0/nios2eds/bin/gnu/h-i686-mingw32/bin/../lib/gcc/nios2-elf/4.1.2\libgcc.a(_pack_df.o)
 .debug_info    0x00017830      0x268 c:/altera/13.0/nios2eds/bin/gnu/h-i686-mingw32/bin/../lib/gcc/nios2-elf/4.1.2\libgcc.a(_unpack_df.o)
 .debug_info    0x00017a98      0x21b c:/altera/13.0/nios2eds/bin/gnu/h-i686-mingw32/bin/../lib/gcc/nios2-elf/4.1.2\libgcc.a(_fpcmp_parts_df.o)
 .debug_info    0x00017cb3      0x434 ../cs303a2_bsp/\libhal_bsp.a(alt_alarm_start.o)
 .debug_info    0x000180e7      0x459 ../cs303a2_bsp/\libhal_bsp.a(alt_close.o)
 .debug_info    0x00018540      0x671 ../cs303a2_bsp/\libhal_bsp.a(alt_dev.o)
 .debug_info    0x00018bb1      0x156 ../cs303a2_bsp/\libhal_bsp.a(alt_errno.o)
 .debug_info    0x00018d07      0x652 ../cs303a2_bsp/\libhal_bsp.a(alt_fstat.o)
 .debug_info    0x00019359      0x41c ../cs303a2_bsp/\libhal_bsp.a(alt_irq_register.o)
 .debug_info    0x00019775      0x159 ../cs303a2_bsp/\libhal_bsp.a(alt_irq_vars.o)
 .debug_info    0x000198ce      0x658 ../cs303a2_bsp/\libhal_bsp.a(alt_isatty.o)
 .debug_info    0x00019f26      0x27f ../cs303a2_bsp/\libhal_bsp.a(alt_load.o)
 .debug_info    0x0001a1a5      0x48c ../cs303a2_bsp/\libhal_bsp.a(alt_lseek.o)
 .debug_info    0x0001a631      0x217 ../cs303a2_bsp/\libhal_bsp.a(alt_main.o)
 .debug_info    0x0001a848      0xc0a ../cs303a2_bsp/\libhal_bsp.a(alt_malloc_lock.o)
 .debug_info    0x0001b452      0x67c ../cs303a2_bsp/\libhal_bsp.a(alt_read.o)
 .debug_info    0x0001bace      0x3e4 ../cs303a2_bsp/\libhal_bsp.a(alt_release_fd.o)
 .debug_info    0x0001beb2      0x2a9 ../cs303a2_bsp/\libhal_bsp.a(alt_sbrk.o)
 .debug_info    0x0001c15b      0x3f0 ../cs303a2_bsp/\libhal_bsp.a(alt_tick.o)
 .debug_info    0x0001c54b      0x685 ../cs303a2_bsp/\libhal_bsp.a(alt_write.o)
 .debug_info    0x0001cbd0      0xa97 ../cs303a2_bsp/\libhal_bsp.a(alt_sys_init.o)
 .debug_info    0x0001d667      0x7cb ../cs303a2_bsp/\libhal_bsp.a(altera_avalon_jtag_uart_fd.o)
 .debug_info    0x0001de32      0x5f3 ../cs303a2_bsp/\libhal_bsp.a(altera_avalon_jtag_uart_init.o)
 .debug_info    0x0001e425      0x435 ../cs303a2_bsp/\libhal_bsp.a(altera_avalon_jtag_uart_ioctl.o)
 .debug_info    0x0001e85a      0x538 ../cs303a2_bsp/\libhal_bsp.a(altera_avalon_jtag_uart_read.o)
 .debug_info    0x0001ed92      0x530 ../cs303a2_bsp/\libhal_bsp.a(altera_avalon_jtag_uart_write.o)
 .debug_info    0x0001f2c2      0x8e0 ../cs303a2_bsp/\libhal_bsp.a(altera_avalon_lcd_16207.o)
 .debug_info    0x0001fba2      0x704 ../cs303a2_bsp/\libhal_bsp.a(altera_avalon_lcd_16207_fd.o)
 .debug_info    0x000202a6      0x37d ../cs303a2_bsp/\libhal_bsp.a(altera_avalon_timer_sc.o)
 .debug_info    0x00020623      0x62e ../cs303a2_bsp/\libhal_bsp.a(altera_avalon_uart_fd.o)
 .debug_info    0x00020c51      0x500 ../cs303a2_bsp/\libhal_bsp.a(altera_avalon_uart_init.o)
 .debug_info    0x00021151      0x4b4 ../cs303a2_bsp/\libhal_bsp.a(altera_avalon_uart_read.o)
 .debug_info    0x00021605      0x4b2 ../cs303a2_bsp/\libhal_bsp.a(altera_avalon_uart_write.o)
 .debug_info    0x00021ab7      0x161 ../cs303a2_bsp/\libhal_bsp.a(alt_dcache_flush_all.o)
 .debug_info    0x00021c18      0x2a9 ../cs303a2_bsp/\libhal_bsp.a(alt_dev_llist_insert.o)
 .debug_info    0x00021ec1      0x101 ../cs303a2_bsp/\libhal_bsp.a(alt_do_ctors.o)
 .debug_info    0x00021fc2      0x100 ../cs303a2_bsp/\libhal_bsp.a(alt_do_dtors.o)
 .debug_info    0x000220c2      0x14e ../cs303a2_bsp/\libhal_bsp.a(alt_icache_flush_all.o)
 .debug_info    0x00022210      0x485 ../cs303a2_bsp/\libhal_bsp.a(alt_iic.o)
 .debug_info    0x00022695      0x306 ../cs303a2_bsp/\libhal_bsp.a(alt_iic_isr_register.o)
 .debug_info    0x0002299b      0x687 ../cs303a2_bsp/\libhal_bsp.a(alt_io_redirect.o)
 .debug_info    0x00023022       0x76 ../cs303a2_bsp/\libhal_bsp.a(alt_irq_entry.o)
 .debug_info    0x00023098      0x267 ../cs303a2_bsp/\libhal_bsp.a(alt_irq_handler.o)
 .debug_info    0x000232ff      0x517 ../cs303a2_bsp/\libhal_bsp.a(alt_open.o)
 .debug_info    0x00023816      0x15a ../cs303a2_bsp/\libhal_bsp.a(alt_usleep.o)
 .debug_info    0x00023970      0x155 ../cs303a2_bsp/\libhal_bsp.a(altera_nios2_qsys_irq.o)
 .debug_info    0x00023ac5      0x19d ../cs303a2_bsp/\libhal_bsp.a(alt_busy_sleep.o)
 .debug_info    0x00023c62       0x7c ../cs303a2_bsp/\libhal_bsp.a(alt_exception_entry.o)
 .debug_info    0x00023cde      0x40a ../cs303a2_bsp/\libhal_bsp.a(alt_find_dev.o)
 .debug_info    0x000240e8      0x411 ../cs303a2_bsp/\libhal_bsp.a(alt_find_file.o)
 .debug_info    0x000244f9      0x452 ../cs303a2_bsp/\libhal_bsp.a(alt_get_fd.o)
 .debug_info    0x0002494b      0x196 ../cs303a2_bsp/\libhal_bsp.a(alt_icache_flush.o)
 .debug_info    0x00024ae1      0x181 c:/altera/13.0/nios2eds/bin/gnu/h-i686-mingw32/bin/../lib/gcc/nios2-elf/4.1.2/../../../../nios2-elf/lib\libc.a(lib_a-atexit.o)
 .debug_info    0x00024c62       0xa0 c:/altera/13.0/nios2eds/bin/gnu/h-i686-mingw32/bin/../lib/gcc/nios2-elf/4.1.2/../../../../nios2-elf/lib\libc.a(lib_a-ctype_.o)
 .debug_info    0x00024d02      0x93f c:/altera/13.0/nios2eds/bin/gnu/h-i686-mingw32/bin/../lib/gcc/nios2-elf/4.1.2/../../../../nios2-elf/lib\libc.a(lib_a-exit.o)
 .debug_info    0x00025641      0x115 c:/altera/13.0/nios2eds/bin/gnu/h-i686-mingw32/bin/../lib/gcc/nios2-elf/4.1.2/../../../../nios2-elf/lib\libc.a(lib_a-memcmp.o)
 .debug_info    0x00025756      0x99c c:/altera/13.0/nios2eds/bin/gnu/h-i686-mingw32/bin/../lib/gcc/nios2-elf/4.1.2/../../../../nios2-elf/lib\libc.a(lib_a-__atexit.o)
 .debug_info    0x000260f2      0x9e2 c:/altera/13.0/nios2eds/bin/gnu/h-i686-mingw32/bin/../lib/gcc/nios2-elf/4.1.2/../../../../nios2-elf/lib\libc.a(lib_a-__call_atexit.o)
 .debug_info    0x00026ad4      0x17f ../cs303a2_bsp/\libhal_bsp.a(alt_exit.o)

.debug_abbrev   0x00000000     0x82be
 *(.debug_abbrev)
 .debug_abbrev  0x00000000       0x12 ../cs303a2_bsp//obj/HAL/src/crt0.o
 .debug_abbrev  0x00000012       0xfb obj/default/hello_world.o
 .debug_abbrev  0x0000010d       0x54 obj/default/sccharts.o
 .debug_abbrev  0x00000161      0x191 c:/altera/13.0/nios2eds/bin/gnu/h-i686-mingw32/bin/../lib/gcc/nios2-elf/4.1.2/../../../../nios2-elf/lib\libc.a(lib_a-printf.o)
 .debug_abbrev  0x000002f2      0x30a c:/altera/13.0/nios2eds/bin/gnu/h-i686-mingw32/bin/../lib/gcc/nios2-elf/4.1.2/../../../../nios2-elf/lib\libc.a(lib_a-vfprintf.o)
 .debug_abbrev  0x000005fc      0x170 c:/altera/13.0/nios2eds/bin/gnu/h-i686-mingw32/bin/../lib/gcc/nios2-elf/4.1.2/../../../../nios2-elf/lib\libc.a(lib_a-wsetup.o)
 .debug_abbrev  0x0000076c      0x232 c:/altera/13.0/nios2eds/bin/gnu/h-i686-mingw32/bin/../lib/gcc/nios2-elf/4.1.2/../../../../nios2-elf/lib\libc.a(lib_a-dtoa.o)
 .debug_abbrev  0x0000099e      0x1c6 c:/altera/13.0/nios2eds/bin/gnu/h-i686-mingw32/bin/../lib/gcc/nios2-elf/4.1.2/../../../../nios2-elf/lib\libc.a(lib_a-fflush.o)
 .debug_abbrev  0x00000b64      0x24c c:/altera/13.0/nios2eds/bin/gnu/h-i686-mingw32/bin/../lib/gcc/nios2-elf/4.1.2/../../../../nios2-elf/lib\libc.a(lib_a-findfp.o)
 .debug_abbrev  0x00000db0      0x1d9 c:/altera/13.0/nios2eds/bin/gnu/h-i686-mingw32/bin/../lib/gcc/nios2-elf/4.1.2/../../../../nios2-elf/lib\libc.a(lib_a-freer.o)
 .debug_abbrev  0x00000f89      0x1a3 c:/altera/13.0/nios2eds/bin/gnu/h-i686-mingw32/bin/../lib/gcc/nios2-elf/4.1.2/../../../../nios2-elf/lib\libc.a(lib_a-fvwrite.o)
 .debug_abbrev  0x0000112c      0x1e3 c:/altera/13.0/nios2eds/bin/gnu/h-i686-mingw32/bin/../lib/gcc/nios2-elf/4.1.2/../../../../nios2-elf/lib\libc.a(lib_a-fwalk.o)
 .debug_abbrev  0x0000130f      0x157 c:/altera/13.0/nios2eds/bin/gnu/h-i686-mingw32/bin/../lib/gcc/nios2-elf/4.1.2/../../../../nios2-elf/lib\libc.a(lib_a-impure.o)
 .debug_abbrev  0x00001466      0x1ed c:/altera/13.0/nios2eds/bin/gnu/h-i686-mingw32/bin/../lib/gcc/nios2-elf/4.1.2/../../../../nios2-elf/lib\libc.a(lib_a-locale.o)
 .debug_abbrev  0x00001653      0x197 c:/altera/13.0/nios2eds/bin/gnu/h-i686-mingw32/bin/../lib/gcc/nios2-elf/4.1.2/../../../../nios2-elf/lib\libc.a(lib_a-makebuf.o)
 .debug_abbrev  0x000017ea      0x216 c:/altera/13.0/nios2eds/bin/gnu/h-i686-mingw32/bin/../lib/gcc/nios2-elf/4.1.2/../../../../nios2-elf/lib\libc.a(lib_a-mallocr.o)
 .debug_abbrev  0x00001a00       0xb5 c:/altera/13.0/nios2eds/bin/gnu/h-i686-mingw32/bin/../lib/gcc/nios2-elf/4.1.2/../../../../nios2-elf/lib\libc.a(lib_a-memchr.o)
 .debug_abbrev  0x00001ab5       0xb5 c:/altera/13.0/nios2eds/bin/gnu/h-i686-mingw32/bin/../lib/gcc/nios2-elf/4.1.2/../../../../nios2-elf/lib\libc.a(lib_a-memcpy.o)
 .debug_abbrev  0x00001b6a       0xb5 c:/altera/13.0/nios2eds/bin/gnu/h-i686-mingw32/bin/../lib/gcc/nios2-elf/4.1.2/../../../../nios2-elf/lib\libc.a(lib_a-memmove.o)
 .debug_abbrev  0x00001c1f       0xb8 c:/altera/13.0/nios2eds/bin/gnu/h-i686-mingw32/bin/../lib/gcc/nios2-elf/4.1.2/../../../../nios2-elf/lib\libc.a(lib_a-memset.o)
 .debug_abbrev  0x00001cd7      0x297 c:/altera/13.0/nios2eds/bin/gnu/h-i686-mingw32/bin/../lib/gcc/nios2-elf/4.1.2/../../../../nios2-elf/lib\libc.a(lib_a-mprec.o)
 .debug_abbrev  0x00001f6e      0x1c3 c:/altera/13.0/nios2eds/bin/gnu/h-i686-mingw32/bin/../lib/gcc/nios2-elf/4.1.2/../../../../nios2-elf/lib\libc.a(lib_a-reallocr.o)
 .debug_abbrev  0x00002131       0x79 c:/altera/13.0/nios2eds/bin/gnu/h-i686-mingw32/bin/../lib/gcc/nios2-elf/4.1.2/../../../../nios2-elf/lib\libc.a(lib_a-s_isinfd.o)
 .debug_abbrev  0x000021aa       0x79 c:/altera/13.0/nios2eds/bin/gnu/h-i686-mingw32/bin/../lib/gcc/nios2-elf/4.1.2/../../../../nios2-elf/lib\libc.a(lib_a-s_isnand.o)
 .debug_abbrev  0x00002223      0x18c c:/altera/13.0/nios2eds/bin/gnu/h-i686-mingw32/bin/../lib/gcc/nios2-elf/4.1.2/../../../../nios2-elf/lib\libc.a(lib_a-sbrkr.o)
 .debug_abbrev  0x000023af      0x1c9 c:/altera/13.0/nios2eds/bin/gnu/h-i686-mingw32/bin/../lib/gcc/nios2-elf/4.1.2/../../../../nios2-elf/lib\libc.a(lib_a-stdio.o)
 .debug_abbrev  0x00002578       0x80 c:/altera/13.0/nios2eds/bin/gnu/h-i686-mingw32/bin/../lib/gcc/nios2-elf/4.1.2/../../../../nios2-elf/lib\libc.a(lib_a-strcmp.o)
 .debug_abbrev  0x000025f8       0x8b c:/altera/13.0/nios2eds/bin/gnu/h-i686-mingw32/bin/../lib/gcc/nios2-elf/4.1.2/../../../../nios2-elf/lib\libc.a(lib_a-strlen.o)
 .debug_abbrev  0x00002683      0x184 c:/altera/13.0/nios2eds/bin/gnu/h-i686-mingw32/bin/../lib/gcc/nios2-elf/4.1.2/../../../../nios2-elf/lib\libc.a(lib_a-writer.o)
 .debug_abbrev  0x00002807      0x1b8 c:/altera/13.0/nios2eds/bin/gnu/h-i686-mingw32/bin/../lib/gcc/nios2-elf/4.1.2/../../../../nios2-elf/lib\libc.a(lib_a-callocr.o)
 .debug_abbrev  0x000029bf      0x17f c:/altera/13.0/nios2eds/bin/gnu/h-i686-mingw32/bin/../lib/gcc/nios2-elf/4.1.2/../../../../nios2-elf/lib\libc.a(lib_a-closer.o)
 .debug_abbrev  0x00002b3e      0x1a7 c:/altera/13.0/nios2eds/bin/gnu/h-i686-mingw32/bin/../lib/gcc/nios2-elf/4.1.2/../../../../nios2-elf/lib\libc.a(lib_a-fclose.o)
 .debug_abbrev  0x00002ce5      0x18e c:/altera/13.0/nios2eds/bin/gnu/h-i686-mingw32/bin/../lib/gcc/nios2-elf/4.1.2/../../../../nios2-elf/lib\libc.a(lib_a-fstatr.o)
 .debug_abbrev  0x00002e73       0x3b c:/altera/13.0/nios2eds/bin/gnu/h-i686-mingw32/bin/../lib/gcc/nios2-elf/4.1.2/../../../../nios2-elf/lib\libc.a(lib_a-int_errno.o)
 .debug_abbrev  0x00002eae      0x17f c:/altera/13.0/nios2eds/bin/gnu/h-i686-mingw32/bin/../lib/gcc/nios2-elf/4.1.2/../../../../nios2-elf/lib\libc.a(lib_a-isattyr.o)
 .debug_abbrev  0x0000302d      0x18e c:/altera/13.0/nios2eds/bin/gnu/h-i686-mingw32/bin/../lib/gcc/nios2-elf/4.1.2/../../../../nios2-elf/lib\libc.a(lib_a-lseekr.o)
 .debug_abbrev  0x000031bb      0x17f c:/altera/13.0/nios2eds/bin/gnu/h-i686-mingw32/bin/../lib/gcc/nios2-elf/4.1.2/../../../../nios2-elf/lib\libc.a(lib_a-readr.o)
 .debug_abbrev  0x0000333a      0x16b c:/altera/13.0/nios2eds/bin/gnu/h-i686-mingw32/bin/../lib/gcc/nios2-elf/4.1.2\libgcc.a(_udivdi3.o)
 .debug_abbrev  0x000034a5      0x18e c:/altera/13.0/nios2eds/bin/gnu/h-i686-mingw32/bin/../lib/gcc/nios2-elf/4.1.2\libgcc.a(_umoddi3.o)
 .debug_abbrev  0x00003633      0x1d2 c:/altera/13.0/nios2eds/bin/gnu/h-i686-mingw32/bin/../lib/gcc/nios2-elf/4.1.2\libgcc.a(_addsub_df.o)
 .debug_abbrev  0x00003805      0x204 c:/altera/13.0/nios2eds/bin/gnu/h-i686-mingw32/bin/../lib/gcc/nios2-elf/4.1.2\libgcc.a(_mul_df.o)
 .debug_abbrev  0x00003a09      0x1e3 c:/altera/13.0/nios2eds/bin/gnu/h-i686-mingw32/bin/../lib/gcc/nios2-elf/4.1.2\libgcc.a(_div_df.o)
 .debug_abbrev  0x00003bec      0x151 c:/altera/13.0/nios2eds/bin/gnu/h-i686-mingw32/bin/../lib/gcc/nios2-elf/4.1.2\libgcc.a(_eq_df.o)
 .debug_abbrev  0x00003d3d      0x151 c:/altera/13.0/nios2eds/bin/gnu/h-i686-mingw32/bin/../lib/gcc/nios2-elf/4.1.2\libgcc.a(_ne_df.o)
 .debug_abbrev  0x00003e8e      0x151 c:/altera/13.0/nios2eds/bin/gnu/h-i686-mingw32/bin/../lib/gcc/nios2-elf/4.1.2\libgcc.a(_gt_df.o)
 .debug_abbrev  0x00003fdf      0x151 c:/altera/13.0/nios2eds/bin/gnu/h-i686-mingw32/bin/../lib/gcc/nios2-elf/4.1.2\libgcc.a(_ge_df.o)
 .debug_abbrev  0x00004130      0x151 c:/altera/13.0/nios2eds/bin/gnu/h-i686-mingw32/bin/../lib/gcc/nios2-elf/4.1.2\libgcc.a(_lt_df.o)
 .debug_abbrev  0x00004281      0x13f c:/altera/13.0/nios2eds/bin/gnu/h-i686-mingw32/bin/../lib/gcc/nios2-elf/4.1.2\libgcc.a(_si_to_df.o)
 .debug_abbrev  0x000043c0      0x176 c:/altera/13.0/nios2eds/bin/gnu/h-i686-mingw32/bin/../lib/gcc/nios2-elf/4.1.2\libgcc.a(_df_to_si.o)
 .debug_abbrev  0x00004536       0xba c:/altera/13.0/nios2eds/bin/gnu/h-i686-mingw32/bin/../lib/gcc/nios2-elf/4.1.2\libgcc.a(_thenan_df.o)
 .debug_abbrev  0x000045f0      0x155 c:/altera/13.0/nios2eds/bin/gnu/h-i686-mingw32/bin/../lib/gcc/nios2-elf/4.1.2\libgcc.a(_usi_to_df.o)
 .debug_abbrev  0x00004745       0xe0 c:/altera/13.0/nios2eds/bin/gnu/h-i686-mingw32/bin/../lib/gcc/nios2-elf/4.1.2\libgcc.a(lib2-divmod.o)
 .debug_abbrev  0x00004825       0xee c:/altera/13.0/nios2eds/bin/gnu/h-i686-mingw32/bin/../lib/gcc/nios2-elf/4.1.2\libgcc.a(_muldi3.o)
 .debug_abbrev  0x00004913       0x61 c:/altera/13.0/nios2eds/bin/gnu/h-i686-mingw32/bin/../lib/gcc/nios2-elf/4.1.2\libgcc.a(_clz.o)
 .debug_abbrev  0x00004974       0xb9 c:/altera/13.0/nios2eds/bin/gnu/h-i686-mingw32/bin/../lib/gcc/nios2-elf/4.1.2\libgcc.a(_clzsi2.o)
 .debug_abbrev  0x00004a2d      0x1b1 c:/altera/13.0/nios2eds/bin/gnu/h-i686-mingw32/bin/../lib/gcc/nios2-elf/4.1.2\libgcc.a(_pack_df.o)
 .debug_abbrev  0x00004bde      0x149 c:/altera/13.0/nios2eds/bin/gnu/h-i686-mingw32/bin/../lib/gcc/nios2-elf/4.1.2\libgcc.a(_unpack_df.o)
 .debug_abbrev  0x00004d27      0x132 c:/altera/13.0/nios2eds/bin/gnu/h-i686-mingw32/bin/../lib/gcc/nios2-elf/4.1.2\libgcc.a(_fpcmp_parts_df.o)
 .debug_abbrev  0x00004e59      0x172 ../cs303a2_bsp/\libhal_bsp.a(alt_alarm_start.o)
 .debug_abbrev  0x00004fcb       0xfb ../cs303a2_bsp/\libhal_bsp.a(alt_close.o)
 .debug_abbrev  0x000050c6       0xc7 ../cs303a2_bsp/\libhal_bsp.a(alt_dev.o)
 .debug_abbrev  0x0000518d       0x5e ../cs303a2_bsp/\libhal_bsp.a(alt_errno.o)
 .debug_abbrev  0x000051eb       0xfb ../cs303a2_bsp/\libhal_bsp.a(alt_fstat.o)
 .debug_abbrev  0x000052e6      0x180 ../cs303a2_bsp/\libhal_bsp.a(alt_irq_register.o)
 .debug_abbrev  0x00005466       0x44 ../cs303a2_bsp/\libhal_bsp.a(alt_irq_vars.o)
 .debug_abbrev  0x000054aa       0xfb ../cs303a2_bsp/\libhal_bsp.a(alt_isatty.o)
 .debug_abbrev  0x000055a5       0x88 ../cs303a2_bsp/\libhal_bsp.a(alt_load.o)
 .debug_abbrev  0x0000562d       0xfb ../cs303a2_bsp/\libhal_bsp.a(alt_lseek.o)
 .debug_abbrev  0x00005728       0xb7 ../cs303a2_bsp/\libhal_bsp.a(alt_main.o)
 .debug_abbrev  0x000057df      0x181 ../cs303a2_bsp/\libhal_bsp.a(alt_malloc_lock.o)
 .debug_abbrev  0x00005960       0xfb ../cs303a2_bsp/\libhal_bsp.a(alt_read.o)
 .debug_abbrev  0x00005a5b       0xc1 ../cs303a2_bsp/\libhal_bsp.a(alt_release_fd.o)
 .debug_abbrev  0x00005b1c      0x115 ../cs303a2_bsp/\libhal_bsp.a(alt_sbrk.o)
 .debug_abbrev  0x00005c31      0x150 ../cs303a2_bsp/\libhal_bsp.a(alt_tick.o)
 .debug_abbrev  0x00005d81      0x100 ../cs303a2_bsp/\libhal_bsp.a(alt_write.o)
 .debug_abbrev  0x00005e81      0x158 ../cs303a2_bsp/\libhal_bsp.a(alt_sys_init.o)
 .debug_abbrev  0x00005fd9       0xf7 ../cs303a2_bsp/\libhal_bsp.a(altera_avalon_jtag_uart_fd.o)
 .debug_abbrev  0x000060d0      0x17c ../cs303a2_bsp/\libhal_bsp.a(altera_avalon_jtag_uart_init.o)
 .debug_abbrev  0x0000624c       0xf0 ../cs303a2_bsp/\libhal_bsp.a(altera_avalon_jtag_uart_ioctl.o)
 .debug_abbrev  0x0000633c      0x191 ../cs303a2_bsp/\libhal_bsp.a(altera_avalon_jtag_uart_read.o)
 .debug_abbrev  0x000064cd      0x18d ../cs303a2_bsp/\libhal_bsp.a(altera_avalon_jtag_uart_write.o)
 .debug_abbrev  0x0000665a      0x1c3 ../cs303a2_bsp/\libhal_bsp.a(altera_avalon_lcd_16207.o)
 .debug_abbrev  0x0000681d      0x104 ../cs303a2_bsp/\libhal_bsp.a(altera_avalon_lcd_16207_fd.o)
 .debug_abbrev  0x00006921      0x137 ../cs303a2_bsp/\libhal_bsp.a(altera_avalon_timer_sc.o)
 .debug_abbrev  0x00006a58       0xe8 ../cs303a2_bsp/\libhal_bsp.a(altera_avalon_uart_fd.o)
 .debug_abbrev  0x00006b40      0x148 ../cs303a2_bsp/\libhal_bsp.a(altera_avalon_uart_init.o)
 .debug_abbrev  0x00006c88      0x174 ../cs303a2_bsp/\libhal_bsp.a(altera_avalon_uart_read.o)
 .debug_abbrev  0x00006dfc      0x17b ../cs303a2_bsp/\libhal_bsp.a(altera_avalon_uart_write.o)
 .debug_abbrev  0x00006f77       0x57 ../cs303a2_bsp/\libhal_bsp.a(alt_dcache_flush_all.o)
 .debug_abbrev  0x00006fce       0xf6 ../cs303a2_bsp/\libhal_bsp.a(alt_dev_llist_insert.o)
 .debug_abbrev  0x000070c4       0x76 ../cs303a2_bsp/\libhal_bsp.a(alt_do_ctors.o)
 .debug_abbrev  0x0000713a       0x76 ../cs303a2_bsp/\libhal_bsp.a(alt_do_dtors.o)
 .debug_abbrev  0x000071b0       0x3f ../cs303a2_bsp/\libhal_bsp.a(alt_icache_flush_all.o)
 .debug_abbrev  0x000071ef      0x134 ../cs303a2_bsp/\libhal_bsp.a(alt_iic.o)
 .debug_abbrev  0x00007323      0x14e ../cs303a2_bsp/\libhal_bsp.a(alt_iic_isr_register.o)
 .debug_abbrev  0x00007471       0xf0 ../cs303a2_bsp/\libhal_bsp.a(alt_io_redirect.o)
 .debug_abbrev  0x00007561       0x12 ../cs303a2_bsp/\libhal_bsp.a(alt_irq_entry.o)
 .debug_abbrev  0x00007573      0x10c ../cs303a2_bsp/\libhal_bsp.a(alt_irq_handler.o)
 .debug_abbrev  0x0000767f      0x112 ../cs303a2_bsp/\libhal_bsp.a(alt_open.o)
 .debug_abbrev  0x00007791       0x5d ../cs303a2_bsp/\libhal_bsp.a(alt_usleep.o)
 .debug_abbrev  0x000077ee       0x3f ../cs303a2_bsp/\libhal_bsp.a(altera_nios2_qsys_irq.o)
 .debug_abbrev  0x0000782d       0x6c ../cs303a2_bsp/\libhal_bsp.a(alt_busy_sleep.o)
 .debug_abbrev  0x00007899       0x12 ../cs303a2_bsp/\libhal_bsp.a(alt_exception_entry.o)
 .debug_abbrev  0x000078ab       0xcf ../cs303a2_bsp/\libhal_bsp.a(alt_find_dev.o)
 .debug_abbrev  0x0000797a       0xcf ../cs303a2_bsp/\libhal_bsp.a(alt_find_file.o)
 .debug_abbrev  0x00007a49       0xfb ../cs303a2_bsp/\libhal_bsp.a(alt_get_fd.o)
 .debug_abbrev  0x00007b44       0x7a ../cs303a2_bsp/\libhal_bsp.a(alt_icache_flush.o)
 .debug_abbrev  0x00007bbe       0xb7 c:/altera/13.0/nios2eds/bin/gnu/h-i686-mingw32/bin/../lib/gcc/nios2-elf/4.1.2/../../../../nios2-elf/lib\libc.a(lib_a-atexit.o)
 .debug_abbrev  0x00007c75       0x61 c:/altera/13.0/nios2eds/bin/gnu/h-i686-mingw32/bin/../lib/gcc/nios2-elf/4.1.2/../../../../nios2-elf/lib\libc.a(lib_a-ctype_.o)
 .debug_abbrev  0x00007cd6      0x16e c:/altera/13.0/nios2eds/bin/gnu/h-i686-mingw32/bin/../lib/gcc/nios2-elf/4.1.2/../../../../nios2-elf/lib\libc.a(lib_a-exit.o)
 .debug_abbrev  0x00007e44       0x7c c:/altera/13.0/nios2eds/bin/gnu/h-i686-mingw32/bin/../lib/gcc/nios2-elf/4.1.2/../../../../nios2-elf/lib\libc.a(lib_a-memcmp.o)
 .debug_abbrev  0x00007ec0      0x1ae c:/altera/13.0/nios2eds/bin/gnu/h-i686-mingw32/bin/../lib/gcc/nios2-elf/4.1.2/../../../../nios2-elf/lib\libc.a(lib_a-__atexit.o)
 .debug_abbrev  0x0000806e      0x1de c:/altera/13.0/nios2eds/bin/gnu/h-i686-mingw32/bin/../lib/gcc/nios2-elf/4.1.2/../../../../nios2-elf/lib\libc.a(lib_a-__call_atexit.o)
 .debug_abbrev  0x0000824c       0x72 ../cs303a2_bsp/\libhal_bsp.a(alt_exit.o)

.debug_line     0x00000000    0x15de6
 *(.debug_line)
 .debug_line    0x00000000       0x72 ../cs303a2_bsp//obj/HAL/src/crt0.o
 .debug_line    0x00000072      0x47f obj/default/hello_world.o
 .debug_line    0x000004f1      0xb42 obj/default/sccharts.o
 .debug_line    0x00001033      0x295 c:/altera/13.0/nios2eds/bin/gnu/h-i686-mingw32/bin/../lib/gcc/nios2-elf/4.1.2/../../../../nios2-elf/lib\libc.a(lib_a-printf.o)
 .debug_line    0x000012c8     0x1106 c:/altera/13.0/nios2eds/bin/gnu/h-i686-mingw32/bin/../lib/gcc/nios2-elf/4.1.2/../../../../nios2-elf/lib\libc.a(lib_a-vfprintf.o)
 .debug_line    0x000023ce      0x2ea c:/altera/13.0/nios2eds/bin/gnu/h-i686-mingw32/bin/../lib/gcc/nios2-elf/4.1.2/../../../../nios2-elf/lib\libc.a(lib_a-wsetup.o)
 .debug_line    0x000026b8     0x12c0 c:/altera/13.0/nios2eds/bin/gnu/h-i686-mingw32/bin/../lib/gcc/nios2-elf/4.1.2/../../../../nios2-elf/lib\libc.a(lib_a-dtoa.o)
 .debug_line    0x00003978      0x407 c:/altera/13.0/nios2eds/bin/gnu/h-i686-mingw32/bin/../lib/gcc/nios2-elf/4.1.2/../../../../nios2-elf/lib\libc.a(lib_a-fflush.o)
 .debug_line    0x00003d7f      0x5fb c:/altera/13.0/nios2eds/bin/gnu/h-i686-mingw32/bin/../lib/gcc/nios2-elf/4.1.2/../../../../nios2-elf/lib\libc.a(lib_a-findfp.o)
 .debug_line    0x0000437a      0x5e5 c:/altera/13.0/nios2eds/bin/gnu/h-i686-mingw32/bin/../lib/gcc/nios2-elf/4.1.2/../../../../nios2-elf/lib\libc.a(lib_a-freer.o)
 .debug_line    0x0000495f      0x63b c:/altera/13.0/nios2eds/bin/gnu/h-i686-mingw32/bin/../lib/gcc/nios2-elf/4.1.2/../../../../nios2-elf/lib\libc.a(lib_a-fvwrite.o)
 .debug_line    0x00004f9a      0x344 c:/altera/13.0/nios2eds/bin/gnu/h-i686-mingw32/bin/../lib/gcc/nios2-elf/4.1.2/../../../../nios2-elf/lib\libc.a(lib_a-fwalk.o)
 .debug_line    0x000052de      0x224 c:/altera/13.0/nios2eds/bin/gnu/h-i686-mingw32/bin/../lib/gcc/nios2-elf/4.1.2/../../../../nios2-elf/lib\libc.a(lib_a-impure.o)
 .debug_line    0x00005502      0x2c2 c:/altera/13.0/nios2eds/bin/gnu/h-i686-mingw32/bin/../lib/gcc/nios2-elf/4.1.2/../../../../nios2-elf/lib\libc.a(lib_a-locale.o)
 .debug_line    0x000057c4      0x3bd c:/altera/13.0/nios2eds/bin/gnu/h-i686-mingw32/bin/../lib/gcc/nios2-elf/4.1.2/../../../../nios2-elf/lib\libc.a(lib_a-makebuf.o)
 .debug_line    0x00005b81      0x804 c:/altera/13.0/nios2eds/bin/gnu/h-i686-mingw32/bin/../lib/gcc/nios2-elf/4.1.2/../../../../nios2-elf/lib\libc.a(lib_a-mallocr.o)
 .debug_line    0x00006385      0x2fa c:/altera/13.0/nios2eds/bin/gnu/h-i686-mingw32/bin/../lib/gcc/nios2-elf/4.1.2/../../../../nios2-elf/lib\libc.a(lib_a-memchr.o)
 .debug_line    0x0000667f      0x1a9 c:/altera/13.0/nios2eds/bin/gnu/h-i686-mingw32/bin/../lib/gcc/nios2-elf/4.1.2/../../../../nios2-elf/lib\libc.a(lib_a-memcpy.o)
 .debug_line    0x00006828      0x301 c:/altera/13.0/nios2eds/bin/gnu/h-i686-mingw32/bin/../lib/gcc/nios2-elf/4.1.2/../../../../nios2-elf/lib\libc.a(lib_a-memmove.o)
 .debug_line    0x00006b29      0x2f8 c:/altera/13.0/nios2eds/bin/gnu/h-i686-mingw32/bin/../lib/gcc/nios2-elf/4.1.2/../../../../nios2-elf/lib\libc.a(lib_a-memset.o)
 .debug_line    0x00006e21     0x123d c:/altera/13.0/nios2eds/bin/gnu/h-i686-mingw32/bin/../lib/gcc/nios2-elf/4.1.2/../../../../nios2-elf/lib\libc.a(lib_a-mprec.o)
 .debug_line    0x0000805e      0x584 c:/altera/13.0/nios2eds/bin/gnu/h-i686-mingw32/bin/../lib/gcc/nios2-elf/4.1.2/../../../../nios2-elf/lib\libc.a(lib_a-reallocr.o)
 .debug_line    0x000085e2      0x21c c:/altera/13.0/nios2eds/bin/gnu/h-i686-mingw32/bin/../lib/gcc/nios2-elf/4.1.2/../../../../nios2-elf/lib\libc.a(lib_a-s_isinfd.o)
 .debug_line    0x000087fe      0x214 c:/altera/13.0/nios2eds/bin/gnu/h-i686-mingw32/bin/../lib/gcc/nios2-elf/4.1.2/../../../../nios2-elf/lib\libc.a(lib_a-s_isnand.o)
 .debug_line    0x00008a12      0x290 c:/altera/13.0/nios2eds/bin/gnu/h-i686-mingw32/bin/../lib/gcc/nios2-elf/4.1.2/../../../../nios2-elf/lib\libc.a(lib_a-sbrkr.o)
 .debug_line    0x00008ca2      0x386 c:/altera/13.0/nios2eds/bin/gnu/h-i686-mingw32/bin/../lib/gcc/nios2-elf/4.1.2/../../../../nios2-elf/lib\libc.a(lib_a-stdio.o)
 .debug_line    0x00009028      0x2cc c:/altera/13.0/nios2eds/bin/gnu/h-i686-mingw32/bin/../lib/gcc/nios2-elf/4.1.2/../../../../nios2-elf/lib\libc.a(lib_a-strcmp.o)
 .debug_line    0x000092f4      0x264 c:/altera/13.0/nios2eds/bin/gnu/h-i686-mingw32/bin/../lib/gcc/nios2-elf/4.1.2/../../../../nios2-elf/lib\libc.a(lib_a-strlen.o)
 .debug_line    0x00009558      0x291 c:/altera/13.0/nios2eds/bin/gnu/h-i686-mingw32/bin/../lib/gcc/nios2-elf/4.1.2/../../../../nios2-elf/lib\libc.a(lib_a-writer.o)
 .debug_line    0x000097e9      0x256 c:/altera/13.0/nios2eds/bin/gnu/h-i686-mingw32/bin/../lib/gcc/nios2-elf/4.1.2/../../../../nios2-elf/lib\libc.a(lib_a-callocr.o)
 .debug_line    0x00009a3f      0x291 c:/altera/13.0/nios2eds/bin/gnu/h-i686-mingw32/bin/../lib/gcc/nios2-elf/4.1.2/../../../../nios2-elf/lib\libc.a(lib_a-closer.o)
 .debug_line    0x00009cd0      0x2e2 c:/altera/13.0/nios2eds/bin/gnu/h-i686-mingw32/bin/../lib/gcc/nios2-elf/4.1.2/../../../../nios2-elf/lib\libc.a(lib_a-fclose.o)
 .debug_line    0x00009fb2      0x25e c:/altera/13.0/nios2eds/bin/gnu/h-i686-mingw32/bin/../lib/gcc/nios2-elf/4.1.2/../../../../nios2-elf/lib\libc.a(lib_a-fstatr.o)
 .debug_line    0x0000a210      0x1d9 c:/altera/13.0/nios2eds/bin/gnu/h-i686-mingw32/bin/../lib/gcc/nios2-elf/4.1.2/../../../../nios2-elf/lib\libc.a(lib_a-int_errno.o)
 .debug_line    0x0000a3e9      0x292 c:/altera/13.0/nios2eds/bin/gnu/h-i686-mingw32/bin/../lib/gcc/nios2-elf/4.1.2/../../../../nios2-elf/lib\libc.a(lib_a-isattyr.o)
 .debug_line    0x0000a67b      0x291 c:/altera/13.0/nios2eds/bin/gnu/h-i686-mingw32/bin/../lib/gcc/nios2-elf/4.1.2/../../../../nios2-elf/lib\libc.a(lib_a-lseekr.o)
 .debug_line    0x0000a90c      0x290 c:/altera/13.0/nios2eds/bin/gnu/h-i686-mingw32/bin/../lib/gcc/nios2-elf/4.1.2/../../../../nios2-elf/lib\libc.a(lib_a-readr.o)
 .debug_line    0x0000ab9c      0x2f2 c:/altera/13.0/nios2eds/bin/gnu/h-i686-mingw32/bin/../lib/gcc/nios2-elf/4.1.2\libgcc.a(_udivdi3.o)
 .debug_line    0x0000ae8e      0x37d c:/altera/13.0/nios2eds/bin/gnu/h-i686-mingw32/bin/../lib/gcc/nios2-elf/4.1.2\libgcc.a(_umoddi3.o)
 .debug_line    0x0000b20b      0x430 c:/altera/13.0/nios2eds/bin/gnu/h-i686-mingw32/bin/../lib/gcc/nios2-elf/4.1.2\libgcc.a(_addsub_df.o)
 .debug_line    0x0000b63b      0x3e5 c:/altera/13.0/nios2eds/bin/gnu/h-i686-mingw32/bin/../lib/gcc/nios2-elf/4.1.2\libgcc.a(_mul_df.o)
 .debug_line    0x0000ba20      0x301 c:/altera/13.0/nios2eds/bin/gnu/h-i686-mingw32/bin/../lib/gcc/nios2-elf/4.1.2\libgcc.a(_div_df.o)
 .debug_line    0x0000bd21      0x129 c:/altera/13.0/nios2eds/bin/gnu/h-i686-mingw32/bin/../lib/gcc/nios2-elf/4.1.2\libgcc.a(_eq_df.o)
 .debug_line    0x0000be4a      0x129 c:/altera/13.0/nios2eds/bin/gnu/h-i686-mingw32/bin/../lib/gcc/nios2-elf/4.1.2\libgcc.a(_ne_df.o)
 .debug_line    0x0000bf73      0x129 c:/altera/13.0/nios2eds/bin/gnu/h-i686-mingw32/bin/../lib/gcc/nios2-elf/4.1.2\libgcc.a(_gt_df.o)
 .debug_line    0x0000c09c      0x129 c:/altera/13.0/nios2eds/bin/gnu/h-i686-mingw32/bin/../lib/gcc/nios2-elf/4.1.2\libgcc.a(_ge_df.o)
 .debug_line    0x0000c1c5      0x129 c:/altera/13.0/nios2eds/bin/gnu/h-i686-mingw32/bin/../lib/gcc/nios2-elf/4.1.2\libgcc.a(_lt_df.o)
 .debug_line    0x0000c2ee      0x175 c:/altera/13.0/nios2eds/bin/gnu/h-i686-mingw32/bin/../lib/gcc/nios2-elf/4.1.2\libgcc.a(_si_to_df.o)
 .debug_line    0x0000c463      0x149 c:/altera/13.0/nios2eds/bin/gnu/h-i686-mingw32/bin/../lib/gcc/nios2-elf/4.1.2\libgcc.a(_df_to_si.o)
 .debug_line    0x0000c5ac       0x94 c:/altera/13.0/nios2eds/bin/gnu/h-i686-mingw32/bin/../lib/gcc/nios2-elf/4.1.2\libgcc.a(_thenan_df.o)
 .debug_line    0x0000c640      0x189 c:/altera/13.0/nios2eds/bin/gnu/h-i686-mingw32/bin/../lib/gcc/nios2-elf/4.1.2\libgcc.a(_usi_to_df.o)
 .debug_line    0x0000c7c9      0x24f c:/altera/13.0/nios2eds/bin/gnu/h-i686-mingw32/bin/../lib/gcc/nios2-elf/4.1.2\libgcc.a(lib2-divmod.o)
 .debug_line    0x0000ca18      0x11f c:/altera/13.0/nios2eds/bin/gnu/h-i686-mingw32/bin/../lib/gcc/nios2-elf/4.1.2\libgcc.a(_muldi3.o)
 .debug_line    0x0000cb37       0xaa c:/altera/13.0/nios2eds/bin/gnu/h-i686-mingw32/bin/../lib/gcc/nios2-elf/4.1.2\libgcc.a(_clz.o)
 .debug_line    0x0000cbe1      0x105 c:/altera/13.0/nios2eds/bin/gnu/h-i686-mingw32/bin/../lib/gcc/nios2-elf/4.1.2\libgcc.a(_clzsi2.o)
 .debug_line    0x0000cce6      0x222 c:/altera/13.0/nios2eds/bin/gnu/h-i686-mingw32/bin/../lib/gcc/nios2-elf/4.1.2\libgcc.a(_pack_df.o)
 .debug_line    0x0000cf08      0x1e4 c:/altera/13.0/nios2eds/bin/gnu/h-i686-mingw32/bin/../lib/gcc/nios2-elf/4.1.2\libgcc.a(_unpack_df.o)
 .debug_line    0x0000d0ec      0x187 c:/altera/13.0/nios2eds/bin/gnu/h-i686-mingw32/bin/../lib/gcc/nios2-elf/4.1.2\libgcc.a(_fpcmp_parts_df.o)
 .debug_line    0x0000d273      0x2d6 ../cs303a2_bsp/\libhal_bsp.a(alt_alarm_start.o)
 .debug_line    0x0000d549      0x293 ../cs303a2_bsp/\libhal_bsp.a(alt_close.o)
 .debug_line    0x0000d7dc      0x24e ../cs303a2_bsp/\libhal_bsp.a(alt_dev.o)
 .debug_line    0x0000da2a      0x1a4 ../cs303a2_bsp/\libhal_bsp.a(alt_errno.o)
 .debug_line    0x0000dbce      0x29b ../cs303a2_bsp/\libhal_bsp.a(alt_fstat.o)
 .debug_line    0x0000de69      0x2fd ../cs303a2_bsp/\libhal_bsp.a(alt_irq_register.o)
 .debug_line    0x0000e166       0x72 ../cs303a2_bsp/\libhal_bsp.a(alt_irq_vars.o)
 .debug_line    0x0000e1d8      0x29c ../cs303a2_bsp/\libhal_bsp.a(alt_isatty.o)
 .debug_line    0x0000e474      0x211 ../cs303a2_bsp/\libhal_bsp.a(alt_load.o)
 .debug_line    0x0000e685      0x29b ../cs303a2_bsp/\libhal_bsp.a(alt_lseek.o)
 .debug_line    0x0000e920      0x2c4 ../cs303a2_bsp/\libhal_bsp.a(alt_main.o)
 .debug_line    0x0000ebe4      0x206 ../cs303a2_bsp/\libhal_bsp.a(alt_malloc_lock.o)
 .debug_line    0x0000edea      0x2c2 ../cs303a2_bsp/\libhal_bsp.a(alt_read.o)
 .debug_line    0x0000f0ac       0xed ../cs303a2_bsp/\libhal_bsp.a(alt_release_fd.o)
 .debug_line    0x0000f199      0x25b ../cs303a2_bsp/\libhal_bsp.a(alt_sbrk.o)
 .debug_line    0x0000f3f4      0x2d6 ../cs303a2_bsp/\libhal_bsp.a(alt_tick.o)
 .debug_line    0x0000f6ca      0x2c3 ../cs303a2_bsp/\libhal_bsp.a(alt_write.o)
 .debug_line    0x0000f98d      0x34e ../cs303a2_bsp/\libhal_bsp.a(alt_sys_init.o)
 .debug_line    0x0000fcdb      0x214 ../cs303a2_bsp/\libhal_bsp.a(altera_avalon_jtag_uart_fd.o)
 .debug_line    0x0000feef      0x4a5 ../cs303a2_bsp/\libhal_bsp.a(altera_avalon_jtag_uart_init.o)
 .debug_line    0x00010394      0x311 ../cs303a2_bsp/\libhal_bsp.a(altera_avalon_jtag_uart_ioctl.o)
 .debug_line    0x000106a5      0x3f1 ../cs303a2_bsp/\libhal_bsp.a(altera_avalon_jtag_uart_read.o)
 .debug_line    0x00010a96      0x3ff ../cs303a2_bsp/\libhal_bsp.a(altera_avalon_jtag_uart_write.o)
 .debug_line    0x00010e95      0x8bb ../cs303a2_bsp/\libhal_bsp.a(altera_avalon_lcd_16207.o)
 .debug_line    0x00011750      0x1b4 ../cs303a2_bsp/\libhal_bsp.a(altera_avalon_lcd_16207_fd.o)
 .debug_line    0x00011904      0x2ad ../cs303a2_bsp/\libhal_bsp.a(altera_avalon_timer_sc.o)
 .debug_line    0x00011bb1      0x1cf ../cs303a2_bsp/\libhal_bsp.a(altera_avalon_uart_fd.o)
 .debug_line    0x00011d80      0x48c ../cs303a2_bsp/\libhal_bsp.a(altera_avalon_uart_init.o)
 .debug_line    0x0001220c      0x3fe ../cs303a2_bsp/\libhal_bsp.a(altera_avalon_uart_read.o)
 .debug_line    0x0001260a      0x3df ../cs303a2_bsp/\libhal_bsp.a(altera_avalon_uart_write.o)
 .debug_line    0x000129e9      0x1c7 ../cs303a2_bsp/\libhal_bsp.a(alt_dcache_flush_all.o)
 .debug_line    0x00012bb0      0x254 ../cs303a2_bsp/\libhal_bsp.a(alt_dev_llist_insert.o)
 .debug_line    0x00012e04       0x83 ../cs303a2_bsp/\libhal_bsp.a(alt_do_ctors.o)
 .debug_line    0x00012e87       0x83 ../cs303a2_bsp/\libhal_bsp.a(alt_do_dtors.o)
 .debug_line    0x00012f0a      0x1b7 ../cs303a2_bsp/\libhal_bsp.a(alt_icache_flush_all.o)
 .debug_line    0x000130c1      0x2c2 ../cs303a2_bsp/\libhal_bsp.a(alt_iic.o)
 .debug_line    0x00013383      0x243 ../cs303a2_bsp/\libhal_bsp.a(alt_iic_isr_register.o)
 .debug_line    0x000135c6      0x2ae ../cs303a2_bsp/\libhal_bsp.a(alt_io_redirect.o)
 .debug_line    0x00013874       0x6b ../cs303a2_bsp/\libhal_bsp.a(alt_irq_entry.o)
 .debug_line    0x000138df      0x242 ../cs303a2_bsp/\libhal_bsp.a(alt_irq_handler.o)
 .debug_line    0x00013b21      0x2f9 ../cs303a2_bsp/\libhal_bsp.a(alt_open.o)
 .debug_line    0x00013e1a      0x1f9 ../cs303a2_bsp/\libhal_bsp.a(alt_usleep.o)
 .debug_line    0x00014013      0x1c8 ../cs303a2_bsp/\libhal_bsp.a(altera_nios2_qsys_irq.o)
 .debug_line    0x000141db      0x253 ../cs303a2_bsp/\libhal_bsp.a(alt_busy_sleep.o)
 .debug_line    0x0001442e       0xab ../cs303a2_bsp/\libhal_bsp.a(alt_exception_entry.o)
 .debug_line    0x000144d9      0x265 ../cs303a2_bsp/\libhal_bsp.a(alt_find_dev.o)
 .debug_line    0x0001473e      0x276 ../cs303a2_bsp/\libhal_bsp.a(alt_find_file.o)
 .debug_line    0x000149b4      0x291 ../cs303a2_bsp/\libhal_bsp.a(alt_get_fd.o)
 .debug_line    0x00014c45      0x1f3 ../cs303a2_bsp/\libhal_bsp.a(alt_icache_flush.o)
 .debug_line    0x00014e38      0x1fa c:/altera/13.0/nios2eds/bin/gnu/h-i686-mingw32/bin/../lib/gcc/nios2-elf/4.1.2/../../../../nios2-elf/lib\libc.a(lib_a-atexit.o)
 .debug_line    0x00015032       0x7e c:/altera/13.0/nios2eds/bin/gnu/h-i686-mingw32/bin/../lib/gcc/nios2-elf/4.1.2/../../../../nios2-elf/lib\libc.a(lib_a-ctype_.o)
 .debug_line    0x000150b0      0x232 c:/altera/13.0/nios2eds/bin/gnu/h-i686-mingw32/bin/../lib/gcc/nios2-elf/4.1.2/../../../../nios2-elf/lib\libc.a(lib_a-exit.o)
 .debug_line    0x000152e2      0x296 c:/altera/13.0/nios2eds/bin/gnu/h-i686-mingw32/bin/../lib/gcc/nios2-elf/4.1.2/../../../../nios2-elf/lib\libc.a(lib_a-memcmp.o)
 .debug_line    0x00015578      0x30d c:/altera/13.0/nios2eds/bin/gnu/h-i686-mingw32/bin/../lib/gcc/nios2-elf/4.1.2/../../../../nios2-elf/lib\libc.a(lib_a-__atexit.o)
 .debug_line    0x00015885      0x361 c:/altera/13.0/nios2eds/bin/gnu/h-i686-mingw32/bin/../lib/gcc/nios2-elf/4.1.2/../../../../nios2-elf/lib\libc.a(lib_a-__call_atexit.o)
 .debug_line    0x00015be6      0x200 ../cs303a2_bsp/\libhal_bsp.a(alt_exit.o)

.debug_frame    0x00000000     0x1bbc
 *(.debug_frame)
 .debug_frame   0x00000000       0x80 obj/default/hello_world.o
 .debug_frame   0x00000080       0x48 obj/default/sccharts.o
 .debug_frame   0x000000c8       0x40 c:/altera/13.0/nios2eds/bin/gnu/h-i686-mingw32/bin/../lib/gcc/nios2-elf/4.1.2/../../../../nios2-elf/lib\libc.a(lib_a-printf.o)
 .debug_frame   0x00000108       0x64 c:/altera/13.0/nios2eds/bin/gnu/h-i686-mingw32/bin/../lib/gcc/nios2-elf/4.1.2/../../../../nios2-elf/lib\libc.a(lib_a-vfprintf.o)
 .debug_frame   0x0000016c       0x2c c:/altera/13.0/nios2eds/bin/gnu/h-i686-mingw32/bin/../lib/gcc/nios2-elf/4.1.2/../../../../nios2-elf/lib\libc.a(lib_a-wsetup.o)
 .debug_frame   0x00000198       0x64 c:/altera/13.0/nios2eds/bin/gnu/h-i686-mingw32/bin/../lib/gcc/nios2-elf/4.1.2/../../../../nios2-elf/lib\libc.a(lib_a-dtoa.o)
 .debug_frame   0x000001fc       0x40 c:/altera/13.0/nios2eds/bin/gnu/h-i686-mingw32/bin/../lib/gcc/nios2-elf/4.1.2/../../../../nios2-elf/lib\libc.a(lib_a-fflush.o)
 .debug_frame   0x0000023c      0x118 c:/altera/13.0/nios2eds/bin/gnu/h-i686-mingw32/bin/../lib/gcc/nios2-elf/4.1.2/../../../../nios2-elf/lib\libc.a(lib_a-findfp.o)
 .debug_frame   0x00000354       0x4c c:/altera/13.0/nios2eds/bin/gnu/h-i686-mingw32/bin/../lib/gcc/nios2-elf/4.1.2/../../../../nios2-elf/lib\libc.a(lib_a-freer.o)
 .debug_frame   0x000003a0       0x38 c:/altera/13.0/nios2eds/bin/gnu/h-i686-mingw32/bin/../lib/gcc/nios2-elf/4.1.2/../../../../nios2-elf/lib\libc.a(lib_a-fvwrite.o)
 .debug_frame   0x000003d8       0x60 c:/altera/13.0/nios2eds/bin/gnu/h-i686-mingw32/bin/../lib/gcc/nios2-elf/4.1.2/../../../../nios2-elf/lib\libc.a(lib_a-fwalk.o)
 .debug_frame   0x00000438       0x70 c:/altera/13.0/nios2eds/bin/gnu/h-i686-mingw32/bin/../lib/gcc/nios2-elf/4.1.2/../../../../nios2-elf/lib\libc.a(lib_a-locale.o)
 .debug_frame   0x000004a8       0x2c c:/altera/13.0/nios2eds/bin/gnu/h-i686-mingw32/bin/../lib/gcc/nios2-elf/4.1.2/../../../../nios2-elf/lib\libc.a(lib_a-makebuf.o)
 .debug_frame   0x000004d4       0x38 c:/altera/13.0/nios2eds/bin/gnu/h-i686-mingw32/bin/../lib/gcc/nios2-elf/4.1.2/../../../../nios2-elf/lib\libc.a(lib_a-mallocr.o)
 .debug_frame   0x0000050c       0x20 c:/altera/13.0/nios2eds/bin/gnu/h-i686-mingw32/bin/../lib/gcc/nios2-elf/4.1.2/../../../../nios2-elf/lib\libc.a(lib_a-memchr.o)
 .debug_frame   0x0000052c       0x20 c:/altera/13.0/nios2eds/bin/gnu/h-i686-mingw32/bin/../lib/gcc/nios2-elf/4.1.2/../../../../nios2-elf/lib\libc.a(lib_a-memcpy.o)
 .debug_frame   0x0000054c       0x20 c:/altera/13.0/nios2eds/bin/gnu/h-i686-mingw32/bin/../lib/gcc/nios2-elf/4.1.2/../../../../nios2-elf/lib\libc.a(lib_a-memmove.o)
 .debug_frame   0x0000056c       0x20 c:/altera/13.0/nios2eds/bin/gnu/h-i686-mingw32/bin/../lib/gcc/nios2-elf/4.1.2/../../../../nios2-elf/lib\libc.a(lib_a-memset.o)
 .debug_frame   0x0000058c      0x218 c:/altera/13.0/nios2eds/bin/gnu/h-i686-mingw32/bin/../lib/gcc/nios2-elf/4.1.2/../../../../nios2-elf/lib\libc.a(lib_a-mprec.o)
 .debug_frame   0x000007a4       0x38 c:/altera/13.0/nios2eds/bin/gnu/h-i686-mingw32/bin/../lib/gcc/nios2-elf/4.1.2/../../../../nios2-elf/lib\libc.a(lib_a-reallocr.o)
 .debug_frame   0x000007dc       0x20 c:/altera/13.0/nios2eds/bin/gnu/h-i686-mingw32/bin/../lib/gcc/nios2-elf/4.1.2/../../../../nios2-elf/lib\libc.a(lib_a-s_isinfd.o)
 .debug_frame   0x000007fc       0x20 c:/altera/13.0/nios2eds/bin/gnu/h-i686-mingw32/bin/../lib/gcc/nios2-elf/4.1.2/../../../../nios2-elf/lib\libc.a(lib_a-s_isnand.o)
 .debug_frame   0x0000081c       0x2c c:/altera/13.0/nios2eds/bin/gnu/h-i686-mingw32/bin/../lib/gcc/nios2-elf/4.1.2/../../../../nios2-elf/lib\libc.a(lib_a-sbrkr.o)
 .debug_frame   0x00000848       0x78 c:/altera/13.0/nios2eds/bin/gnu/h-i686-mingw32/bin/../lib/gcc/nios2-elf/4.1.2/../../../../nios2-elf/lib\libc.a(lib_a-stdio.o)
 .debug_frame   0x000008c0       0x20 c:/altera/13.0/nios2eds/bin/gnu/h-i686-mingw32/bin/../lib/gcc/nios2-elf/4.1.2/../../../../nios2-elf/lib\libc.a(lib_a-strcmp.o)
 .debug_frame   0x000008e0       0x20 c:/altera/13.0/nios2eds/bin/gnu/h-i686-mingw32/bin/../lib/gcc/nios2-elf/4.1.2/../../../../nios2-elf/lib\libc.a(lib_a-strlen.o)
 .debug_frame   0x00000900       0x2c c:/altera/13.0/nios2eds/bin/gnu/h-i686-mingw32/bin/../lib/gcc/nios2-elf/4.1.2/../../../../nios2-elf/lib\libc.a(lib_a-writer.o)
 .debug_frame   0x0000092c       0x28 c:/altera/13.0/nios2eds/bin/gnu/h-i686-mingw32/bin/../lib/gcc/nios2-elf/4.1.2/../../../../nios2-elf/lib\libc.a(lib_a-callocr.o)
 .debug_frame   0x00000954       0x2c c:/altera/13.0/nios2eds/bin/gnu/h-i686-mingw32/bin/../lib/gcc/nios2-elf/4.1.2/../../../../nios2-elf/lib\libc.a(lib_a-closer.o)
 .debug_frame   0x00000980       0x3c c:/altera/13.0/nios2eds/bin/gnu/h-i686-mingw32/bin/../lib/gcc/nios2-elf/4.1.2/../../../../nios2-elf/lib\libc.a(lib_a-fclose.o)
 .debug_frame   0x000009bc       0x2c c:/altera/13.0/nios2eds/bin/gnu/h-i686-mingw32/bin/../lib/gcc/nios2-elf/4.1.2/../../../../nios2-elf/lib\libc.a(lib_a-fstatr.o)
 .debug_frame   0x000009e8       0x2c c:/altera/13.0/nios2eds/bin/gnu/h-i686-mingw32/bin/../lib/gcc/nios2-elf/4.1.2/../../../../nios2-elf/lib\libc.a(lib_a-isattyr.o)
 .debug_frame   0x00000a14       0x2c c:/altera/13.0/nios2eds/bin/gnu/h-i686-mingw32/bin/../lib/gcc/nios2-elf/4.1.2/../../../../nios2-elf/lib\libc.a(lib_a-lseekr.o)
 .debug_frame   0x00000a40       0x2c c:/altera/13.0/nios2eds/bin/gnu/h-i686-mingw32/bin/../lib/gcc/nios2-elf/4.1.2/../../../../nios2-elf/lib\libc.a(lib_a-readr.o)
 .debug_frame   0x00000a6c       0x38 c:/altera/13.0/nios2eds/bin/gnu/h-i686-mingw32/bin/../lib/gcc/nios2-elf/4.1.2\libgcc.a(_udivdi3.o)
 .debug_frame   0x00000aa4       0x38 c:/altera/13.0/nios2eds/bin/gnu/h-i686-mingw32/bin/../lib/gcc/nios2-elf/4.1.2\libgcc.a(_umoddi3.o)
 .debug_frame   0x00000adc       0x70 c:/altera/13.0/nios2eds/bin/gnu/h-i686-mingw32/bin/../lib/gcc/nios2-elf/4.1.2\libgcc.a(_addsub_df.o)
 .debug_frame   0x00000b4c       0x3c c:/altera/13.0/nios2eds/bin/gnu/h-i686-mingw32/bin/../lib/gcc/nios2-elf/4.1.2\libgcc.a(_mul_df.o)
 .debug_frame   0x00000b88       0x30 c:/altera/13.0/nios2eds/bin/gnu/h-i686-mingw32/bin/../lib/gcc/nios2-elf/4.1.2\libgcc.a(_div_df.o)
 .debug_frame   0x00000bb8       0x2c c:/altera/13.0/nios2eds/bin/gnu/h-i686-mingw32/bin/../lib/gcc/nios2-elf/4.1.2\libgcc.a(_eq_df.o)
 .debug_frame   0x00000be4       0x2c c:/altera/13.0/nios2eds/bin/gnu/h-i686-mingw32/bin/../lib/gcc/nios2-elf/4.1.2\libgcc.a(_ne_df.o)
 .debug_frame   0x00000c10       0x2c c:/altera/13.0/nios2eds/bin/gnu/h-i686-mingw32/bin/../lib/gcc/nios2-elf/4.1.2\libgcc.a(_gt_df.o)
 .debug_frame   0x00000c3c       0x2c c:/altera/13.0/nios2eds/bin/gnu/h-i686-mingw32/bin/../lib/gcc/nios2-elf/4.1.2\libgcc.a(_ge_df.o)
 .debug_frame   0x00000c68       0x2c c:/altera/13.0/nios2eds/bin/gnu/h-i686-mingw32/bin/../lib/gcc/nios2-elf/4.1.2\libgcc.a(_lt_df.o)
 .debug_frame   0x00000c94       0x30 c:/altera/13.0/nios2eds/bin/gnu/h-i686-mingw32/bin/../lib/gcc/nios2-elf/4.1.2\libgcc.a(_si_to_df.o)
 .debug_frame   0x00000cc4       0x28 c:/altera/13.0/nios2eds/bin/gnu/h-i686-mingw32/bin/../lib/gcc/nios2-elf/4.1.2\libgcc.a(_df_to_si.o)
 .debug_frame   0x00000cec       0x38 c:/altera/13.0/nios2eds/bin/gnu/h-i686-mingw32/bin/../lib/gcc/nios2-elf/4.1.2\libgcc.a(_usi_to_df.o)
 .debug_frame   0x00000d24       0x70 c:/altera/13.0/nios2eds/bin/gnu/h-i686-mingw32/bin/../lib/gcc/nios2-elf/4.1.2\libgcc.a(lib2-divmod.o)
 .debug_frame   0x00000d94       0x2c c:/altera/13.0/nios2eds/bin/gnu/h-i686-mingw32/bin/../lib/gcc/nios2-elf/4.1.2\libgcc.a(_muldi3.o)
 .debug_frame   0x00000dc0       0x20 c:/altera/13.0/nios2eds/bin/gnu/h-i686-mingw32/bin/../lib/gcc/nios2-elf/4.1.2\libgcc.a(_clzsi2.o)
 .debug_frame   0x00000de0       0x2c c:/altera/13.0/nios2eds/bin/gnu/h-i686-mingw32/bin/../lib/gcc/nios2-elf/4.1.2\libgcc.a(_pack_df.o)
 .debug_frame   0x00000e0c       0x20 c:/altera/13.0/nios2eds/bin/gnu/h-i686-mingw32/bin/../lib/gcc/nios2-elf/4.1.2\libgcc.a(_unpack_df.o)
 .debug_frame   0x00000e2c       0x20 c:/altera/13.0/nios2eds/bin/gnu/h-i686-mingw32/bin/../lib/gcc/nios2-elf/4.1.2\libgcc.a(_fpcmp_parts_df.o)
 .debug_frame   0x00000e4c       0x2c ../cs303a2_bsp/\libhal_bsp.a(alt_alarm_start.o)
 .debug_frame   0x00000e78       0x48 ../cs303a2_bsp/\libhal_bsp.a(alt_close.o)
 .debug_frame   0x00000ec0       0x2c ../cs303a2_bsp/\libhal_bsp.a(alt_dev.o)
 .debug_frame   0x00000eec       0x48 ../cs303a2_bsp/\libhal_bsp.a(alt_fstat.o)
 .debug_frame   0x00000f34       0x2c ../cs303a2_bsp/\libhal_bsp.a(alt_irq_register.o)
 .debug_frame   0x00000f60       0x48 ../cs303a2_bsp/\libhal_bsp.a(alt_isatty.o)
 .debug_frame   0x00000fa8       0x48 ../cs303a2_bsp/\libhal_bsp.a(alt_load.o)
 .debug_frame   0x00000ff0       0x48 ../cs303a2_bsp/\libhal_bsp.a(alt_lseek.o)
 .debug_frame   0x00001038       0x2c ../cs303a2_bsp/\libhal_bsp.a(alt_main.o)
 .debug_frame   0x00001064       0x48 ../cs303a2_bsp/\libhal_bsp.a(alt_malloc_lock.o)
 .debug_frame   0x000010ac       0x48 ../cs303a2_bsp/\libhal_bsp.a(alt_read.o)
 .debug_frame   0x000010f4       0x2c ../cs303a2_bsp/\libhal_bsp.a(alt_release_fd.o)
 .debug_frame   0x00001120       0x2c ../cs303a2_bsp/\libhal_bsp.a(alt_sbrk.o)
 .debug_frame   0x0000114c       0x48 ../cs303a2_bsp/\libhal_bsp.a(alt_tick.o)
 .debug_frame   0x00001194       0x48 ../cs303a2_bsp/\libhal_bsp.a(alt_write.o)
 .debug_frame   0x000011dc       0x64 ../cs303a2_bsp/\libhal_bsp.a(alt_sys_init.o)
 .debug_frame   0x00001240       0x80 ../cs303a2_bsp/\libhal_bsp.a(altera_avalon_jtag_uart_fd.o)
 .debug_frame   0x000012c0       0x80 ../cs303a2_bsp/\libhal_bsp.a(altera_avalon_jtag_uart_init.o)
 .debug_frame   0x00001340       0x2c ../cs303a2_bsp/\libhal_bsp.a(altera_avalon_jtag_uart_ioctl.o)
 .debug_frame   0x0000136c       0x2c ../cs303a2_bsp/\libhal_bsp.a(altera_avalon_jtag_uart_read.o)
 .debug_frame   0x00001398       0x2c ../cs303a2_bsp/\libhal_bsp.a(altera_avalon_jtag_uart_write.o)
 .debug_frame   0x000013c4      0x114 ../cs303a2_bsp/\libhal_bsp.a(altera_avalon_lcd_16207.o)
 .debug_frame   0x000014d8       0x2c ../cs303a2_bsp/\libhal_bsp.a(altera_avalon_lcd_16207_fd.o)
 .debug_frame   0x00001504       0x48 ../cs303a2_bsp/\libhal_bsp.a(altera_avalon_timer_sc.o)
 .debug_frame   0x0000154c       0x64 ../cs303a2_bsp/\libhal_bsp.a(altera_avalon_uart_fd.o)
 .debug_frame   0x000015b0       0x9c ../cs303a2_bsp/\libhal_bsp.a(altera_avalon_uart_init.o)
 .debug_frame   0x0000164c       0x48 ../cs303a2_bsp/\libhal_bsp.a(altera_avalon_uart_read.o)
 .debug_frame   0x00001694       0x48 ../cs303a2_bsp/\libhal_bsp.a(altera_avalon_uart_write.o)
 .debug_frame   0x000016dc       0x2c ../cs303a2_bsp/\libhal_bsp.a(alt_dcache_flush_all.o)
 .debug_frame   0x00001708       0x48 ../cs303a2_bsp/\libhal_bsp.a(alt_dev_llist_insert.o)
 .debug_frame   0x00001750       0x2c ../cs303a2_bsp/\libhal_bsp.a(alt_do_ctors.o)
 .debug_frame   0x0000177c       0x2c ../cs303a2_bsp/\libhal_bsp.a(alt_do_dtors.o)
 .debug_frame   0x000017a8       0x2c ../cs303a2_bsp/\libhal_bsp.a(alt_icache_flush_all.o)
 .debug_frame   0x000017d4       0x80 ../cs303a2_bsp/\libhal_bsp.a(alt_iic.o)
 .debug_frame   0x00001854       0x2c ../cs303a2_bsp/\libhal_bsp.a(alt_iic_isr_register.o)
 .debug_frame   0x00001880       0x48 ../cs303a2_bsp/\libhal_bsp.a(alt_io_redirect.o)
 .debug_frame   0x000018c8       0x2c ../cs303a2_bsp/\libhal_bsp.a(alt_irq_handler.o)
 .debug_frame   0x000018f4       0x64 ../cs303a2_bsp/\libhal_bsp.a(alt_open.o)
 .debug_frame   0x00001958       0x2c ../cs303a2_bsp/\libhal_bsp.a(alt_usleep.o)
 .debug_frame   0x00001984       0x2c ../cs303a2_bsp/\libhal_bsp.a(altera_nios2_qsys_irq.o)
 .debug_frame   0x000019b0       0x2c ../cs303a2_bsp/\libhal_bsp.a(alt_busy_sleep.o)
 .debug_frame   0x000019dc       0x2c ../cs303a2_bsp/\libhal_bsp.a(alt_find_dev.o)
 .debug_frame   0x00001a08       0x2c ../cs303a2_bsp/\libhal_bsp.a(alt_find_file.o)
 .debug_frame   0x00001a34       0x2c ../cs303a2_bsp/\libhal_bsp.a(alt_get_fd.o)
 .debug_frame   0x00001a60       0x2c ../cs303a2_bsp/\libhal_bsp.a(alt_icache_flush.o)
 .debug_frame   0x00001a8c       0x20 c:/altera/13.0/nios2eds/bin/gnu/h-i686-mingw32/bin/../lib/gcc/nios2-elf/4.1.2/../../../../nios2-elf/lib\libc.a(lib_a-atexit.o)
 .debug_frame   0x00001aac       0x28 c:/altera/13.0/nios2eds/bin/gnu/h-i686-mingw32/bin/../lib/gcc/nios2-elf/4.1.2/../../../../nios2-elf/lib\libc.a(lib_a-exit.o)
 .debug_frame   0x00001ad4       0x20 c:/altera/13.0/nios2eds/bin/gnu/h-i686-mingw32/bin/../lib/gcc/nios2-elf/4.1.2/../../../../nios2-elf/lib\libc.a(lib_a-memcmp.o)
 .debug_frame   0x00001af4       0x34 c:/altera/13.0/nios2eds/bin/gnu/h-i686-mingw32/bin/../lib/gcc/nios2-elf/4.1.2/../../../../nios2-elf/lib\libc.a(lib_a-__atexit.o)
 .debug_frame   0x00001b28       0x4c c:/altera/13.0/nios2eds/bin/gnu/h-i686-mingw32/bin/../lib/gcc/nios2-elf/4.1.2/../../../../nios2-elf/lib\libc.a(lib_a-__call_atexit.o)
 .debug_frame   0x00001b74       0x48 ../cs303a2_bsp/\libhal_bsp.a(alt_exit.o)

.debug_str      0x00000000     0x22bf
 *(.debug_str)
 .debug_str     0x00000000       0x1a obj/default/hello_world.o
 .debug_str     0x0000001a      0x498 c:/altera/13.0/nios2eds/bin/gnu/h-i686-mingw32/bin/../lib/gcc/nios2-elf/4.1.2/../../../../nios2-elf/lib\libc.a(lib_a-printf.o)
                                0x520 (size before relaxing)
 .debug_str     0x000004b2      0x1c1 c:/altera/13.0/nios2eds/bin/gnu/h-i686-mingw32/bin/../lib/gcc/nios2-elf/4.1.2/../../../../nios2-elf/lib\libc.a(lib_a-vfprintf.o)
                                0x6f5 (size before relaxing)
 .debug_str     0x00000673       0x46 c:/altera/13.0/nios2eds/bin/gnu/h-i686-mingw32/bin/../lib/gcc/nios2-elf/4.1.2/../../../../nios2-elf/lib\libc.a(lib_a-wsetup.o)
                                0x509 (size before relaxing)
 .debug_str     0x000006b9      0x18b c:/altera/13.0/nios2eds/bin/gnu/h-i686-mingw32/bin/../lib/gcc/nios2-elf/4.1.2/../../../../nios2-elf/lib\libc.a(lib_a-dtoa.o)
                                0x5fe (size before relaxing)
 .debug_str     0x00000844       0x65 c:/altera/13.0/nios2eds/bin/gnu/h-i686-mingw32/bin/../lib/gcc/nios2-elf/4.1.2/../../../../nios2-elf/lib\libc.a(lib_a-fflush.o)
                                0x52f (size before relaxing)
 .debug_str     0x000008a9      0x102 c:/altera/13.0/nios2eds/bin/gnu/h-i686-mingw32/bin/../lib/gcc/nios2-elf/4.1.2/../../../../nios2-elf/lib\libc.a(lib_a-findfp.o)
                                0x5f1 (size before relaxing)
 .debug_str     0x000009ab      0x15b c:/altera/13.0/nios2eds/bin/gnu/h-i686-mingw32/bin/../lib/gcc/nios2-elf/4.1.2/../../../../nios2-elf/lib\libc.a(lib_a-freer.o)
                                0x640 (size before relaxing)
 .debug_str     0x00000b06       0x66 c:/altera/13.0/nios2eds/bin/gnu/h-i686-mingw32/bin/../lib/gcc/nios2-elf/4.1.2/../../../../nios2-elf/lib\libc.a(lib_a-fvwrite.o)
                                0x560 (size before relaxing)
 .debug_str     0x00000b6c       0x5e c:/altera/13.0/nios2eds/bin/gnu/h-i686-mingw32/bin/../lib/gcc/nios2-elf/4.1.2/../../../../nios2-elf/lib\libc.a(lib_a-fwalk.o)
                                0x532 (size before relaxing)
 .debug_str     0x00000bca       0xce c:/altera/13.0/nios2eds/bin/gnu/h-i686-mingw32/bin/../lib/gcc/nios2-elf/4.1.2/../../../../nios2-elf/lib\libc.a(lib_a-impure.o)
                                0x517 (size before relaxing)
 .debug_str     0x00000c98      0x222 c:/altera/13.0/nios2eds/bin/gnu/h-i686-mingw32/bin/../lib/gcc/nios2-elf/4.1.2/../../../../nios2-elf/lib\libc.a(lib_a-locale.o)
                                0x6a6 (size before relaxing)
 .debug_str     0x00000eba      0x123 c:/altera/13.0/nios2eds/bin/gnu/h-i686-mingw32/bin/../lib/gcc/nios2-elf/4.1.2/../../../../nios2-elf/lib\libc.a(lib_a-makebuf.o)
                                0x603 (size before relaxing)
 .debug_str     0x00000fdd       0xef c:/altera/13.0/nios2eds/bin/gnu/h-i686-mingw32/bin/../lib/gcc/nios2-elf/4.1.2/../../../../nios2-elf/lib\libc.a(lib_a-mallocr.o)
                                0x6ee (size before relaxing)
 .debug_str     0x000010cc       0xe5 c:/altera/13.0/nios2eds/bin/gnu/h-i686-mingw32/bin/../lib/gcc/nios2-elf/4.1.2/../../../../nios2-elf/lib\libc.a(lib_a-memchr.o)
                                0x188 (size before relaxing)
 .debug_str     0x000011b1       0x69 c:/altera/13.0/nios2eds/bin/gnu/h-i686-mingw32/bin/../lib/gcc/nios2-elf/4.1.2/../../../../nios2-elf/lib\libc.a(lib_a-memcpy.o)
                                0x125 (size before relaxing)
 .debug_str     0x0000121a       0x4d c:/altera/13.0/nios2eds/bin/gnu/h-i686-mingw32/bin/../lib/gcc/nios2-elf/4.1.2/../../../../nios2-elf/lib\libc.a(lib_a-memmove.o)
                                0x19a (size before relaxing)
 .debug_str     0x00001267       0x4f c:/altera/13.0/nios2eds/bin/gnu/h-i686-mingw32/bin/../lib/gcc/nios2-elf/4.1.2/../../../../nios2-elf/lib\libc.a(lib_a-memset.o)
                                0x17b (size before relaxing)
 .debug_str     0x000012b6       0xf8 c:/altera/13.0/nios2eds/bin/gnu/h-i686-mingw32/bin/../lib/gcc/nios2-elf/4.1.2/../../../../nios2-elf/lib\libc.a(lib_a-mprec.o)
                                0x60b (size before relaxing)
 .debug_str     0x000013ae       0x59 c:/altera/13.0/nios2eds/bin/gnu/h-i686-mingw32/bin/../lib/gcc/nios2-elf/4.1.2/../../../../nios2-elf/lib\libc.a(lib_a-reallocr.o)
                                0x5c0 (size before relaxing)
 .debug_str     0x00001407       0xd9 c:/altera/13.0/nios2eds/bin/gnu/h-i686-mingw32/bin/../lib/gcc/nios2-elf/4.1.2/../../../../nios2-elf/lib\libc.a(lib_a-s_isinfd.o)
                                0x187 (size before relaxing)
 .debug_str     0x000014e0       0x46 c:/altera/13.0/nios2eds/bin/gnu/h-i686-mingw32/bin/../lib/gcc/nios2-elf/4.1.2/../../../../nios2-elf/lib\libc.a(lib_a-s_isnand.o)
                                0x187 (size before relaxing)
 .debug_str     0x00001526       0x50 c:/altera/13.0/nios2eds/bin/gnu/h-i686-mingw32/bin/../lib/gcc/nios2-elf/4.1.2/../../../../nios2-elf/lib\libc.a(lib_a-sbrkr.o)
                                0x508 (size before relaxing)
 .debug_str     0x00001576       0x62 c:/altera/13.0/nios2eds/bin/gnu/h-i686-mingw32/bin/../lib/gcc/nios2-elf/4.1.2/../../../../nios2-elf/lib\libc.a(lib_a-stdio.o)
                                0x52e (size before relaxing)
 .debug_str     0x000015d8       0x42 c:/altera/13.0/nios2eds/bin/gnu/h-i686-mingw32/bin/../lib/gcc/nios2-elf/4.1.2/../../../../nios2-elf/lib\libc.a(lib_a-strcmp.o)
                                0x160 (size before relaxing)
 .debug_str     0x0000161a       0x42 c:/altera/13.0/nios2eds/bin/gnu/h-i686-mingw32/bin/../lib/gcc/nios2-elf/4.1.2/../../../../nios2-elf/lib\libc.a(lib_a-strlen.o)
                                0x17a (size before relaxing)
 .debug_str     0x0000165c       0x4c c:/altera/13.0/nios2eds/bin/gnu/h-i686-mingw32/bin/../lib/gcc/nios2-elf/4.1.2/../../../../nios2-elf/lib\libc.a(lib_a-writer.o)
                                0x50b (size before relaxing)
 .debug_str     0x000016a8       0x19 c:/altera/13.0/nios2eds/bin/gnu/h-i686-mingw32/bin/../lib/gcc/nios2-elf/4.1.2/../../../../nios2-elf/lib\libc.a(lib_a-callocr.o)
                                0x53f (size before relaxing)
 .debug_str     0x000016c1       0x43 c:/altera/13.0/nios2eds/bin/gnu/h-i686-mingw32/bin/../lib/gcc/nios2-elf/4.1.2/../../../../nios2-elf/lib\libc.a(lib_a-closer.o)
                                0x4fb (size before relaxing)
 .debug_str     0x00001704       0x4b c:/altera/13.0/nios2eds/bin/gnu/h-i686-mingw32/bin/../lib/gcc/nios2-elf/4.1.2/../../../../nios2-elf/lib\libc.a(lib_a-fclose.o)
                                0x513 (size before relaxing)
 .debug_str     0x0000174f       0x49 c:/altera/13.0/nios2eds/bin/gnu/h-i686-mingw32/bin/../lib/gcc/nios2-elf/4.1.2/../../../../nios2-elf/lib\libc.a(lib_a-fstatr.o)
                                0x5ee (size before relaxing)
 .debug_str     0x00001798       0x3d c:/altera/13.0/nios2eds/bin/gnu/h-i686-mingw32/bin/../lib/gcc/nios2-elf/4.1.2/../../../../nios2-elf/lib\libc.a(lib_a-int_errno.o)
                                0x160 (size before relaxing)
 .debug_str     0x000017d5       0x45 c:/altera/13.0/nios2eds/bin/gnu/h-i686-mingw32/bin/../lib/gcc/nios2-elf/4.1.2/../../../../nios2-elf/lib\libc.a(lib_a-isattyr.o)
                                0x4fd (size before relaxing)
 .debug_str     0x0000181a       0x43 c:/altera/13.0/nios2eds/bin/gnu/h-i686-mingw32/bin/../lib/gcc/nios2-elf/4.1.2/../../../../nios2-elf/lib\libc.a(lib_a-lseekr.o)
                                0x509 (size before relaxing)
 .debug_str     0x0000185d       0x41 c:/altera/13.0/nios2eds/bin/gnu/h-i686-mingw32/bin/../lib/gcc/nios2-elf/4.1.2/../../../../nios2-elf/lib\libc.a(lib_a-readr.o)
                                0x509 (size before relaxing)
 .debug_str     0x0000189e      0x144 c:/altera/13.0/nios2eds/bin/gnu/h-i686-mingw32/bin/../lib/gcc/nios2-elf/4.1.2\libgcc.a(_udivdi3.o)
                                0x1f4 (size before relaxing)
 .debug_str     0x000019e2        0xa c:/altera/13.0/nios2eds/bin/gnu/h-i686-mingw32/bin/../lib/gcc/nios2-elf/4.1.2\libgcc.a(_umoddi3.o)
                                0x1f4 (size before relaxing)
 .debug_str     0x000019ec      0x137 c:/altera/13.0/nios2eds/bin/gnu/h-i686-mingw32/bin/../lib/gcc/nios2-elf/4.1.2\libgcc.a(_addsub_df.o)
                                0x26c (size before relaxing)
 .debug_str     0x00001b23       0x40 c:/altera/13.0/nios2eds/bin/gnu/h-i686-mingw32/bin/../lib/gcc/nios2-elf/4.1.2\libgcc.a(_mul_df.o)
                                0x23e (size before relaxing)
 .debug_str     0x00001b63       0x35 c:/altera/13.0/nios2eds/bin/gnu/h-i686-mingw32/bin/../lib/gcc/nios2-elf/4.1.2\libgcc.a(_div_df.o)
                                0x22e (size before relaxing)
 .debug_str     0x00001b98        0x8 c:/altera/13.0/nios2eds/bin/gnu/h-i686-mingw32/bin/../lib/gcc/nios2-elf/4.1.2\libgcc.a(_eq_df.o)
                                0x1fb (size before relaxing)
 .debug_str     0x00001ba0        0x8 c:/altera/13.0/nios2eds/bin/gnu/h-i686-mingw32/bin/../lib/gcc/nios2-elf/4.1.2\libgcc.a(_ne_df.o)
                                0x1fb (size before relaxing)
 .debug_str     0x00001ba8        0x8 c:/altera/13.0/nios2eds/bin/gnu/h-i686-mingw32/bin/../lib/gcc/nios2-elf/4.1.2\libgcc.a(_gt_df.o)
                                0x1fb (size before relaxing)
 .debug_str     0x00001bb0        0x8 c:/altera/13.0/nios2eds/bin/gnu/h-i686-mingw32/bin/../lib/gcc/nios2-elf/4.1.2\libgcc.a(_ge_df.o)
                                0x1fb (size before relaxing)
 .debug_str     0x00001bb8        0x8 c:/altera/13.0/nios2eds/bin/gnu/h-i686-mingw32/bin/../lib/gcc/nios2-elf/4.1.2\libgcc.a(_lt_df.o)
                                0x1fb (size before relaxing)
 .debug_str     0x00001bc0       0x18 c:/altera/13.0/nios2eds/bin/gnu/h-i686-mingw32/bin/../lib/gcc/nios2-elf/4.1.2\libgcc.a(_si_to_df.o)
                                0x1db (size before relaxing)
 .debug_str     0x00001bd8        0xa c:/altera/13.0/nios2eds/bin/gnu/h-i686-mingw32/bin/../lib/gcc/nios2-elf/4.1.2\libgcc.a(_df_to_si.o)
                                0x204 (size before relaxing)
 .debug_str     0x00000000      0x1a0 c:/altera/13.0/nios2eds/bin/gnu/h-i686-mingw32/bin/../lib/gcc/nios2-elf/4.1.2\libgcc.a(_thenan_df.o)
 .debug_str     0x00001be2       0x14 c:/altera/13.0/nios2eds/bin/gnu/h-i686-mingw32/bin/../lib/gcc/nios2-elf/4.1.2\libgcc.a(_usi_to_df.o)
                                0x1d7 (size before relaxing)
 .debug_str     0x00001bf6       0x76 c:/altera/13.0/nios2eds/bin/gnu/h-i686-mingw32/bin/../lib/gcc/nios2-elf/4.1.2\libgcc.a(lib2-divmod.o)
                                0x1b1 (size before relaxing)
 .debug_str     0x00001c6c        0x9 c:/altera/13.0/nios2eds/bin/gnu/h-i686-mingw32/bin/../lib/gcc/nios2-elf/4.1.2\libgcc.a(_muldi3.o)
                                0x1a9 (size before relaxing)
 .debug_str     0x00000000      0x15e c:/altera/13.0/nios2eds/bin/gnu/h-i686-mingw32/bin/../lib/gcc/nios2-elf/4.1.2\libgcc.a(_clz.o)
 .debug_str     0x00001c75        0x9 c:/altera/13.0/nios2eds/bin/gnu/h-i686-mingw32/bin/../lib/gcc/nios2-elf/4.1.2\libgcc.a(_clzsi2.o)
                                0x17b (size before relaxing)
 .debug_str     0x00001c7e       0x10 c:/altera/13.0/nios2eds/bin/gnu/h-i686-mingw32/bin/../lib/gcc/nios2-elf/4.1.2\libgcc.a(_pack_df.o)
                                0x203 (size before relaxing)
 .debug_str     0x00001c8e        0xb c:/altera/13.0/nios2eds/bin/gnu/h-i686-mingw32/bin/../lib/gcc/nios2-elf/4.1.2\libgcc.a(_unpack_df.o)
                                0x1e5 (size before relaxing)
 .debug_str     0x00001c99       0x10 c:/altera/13.0/nios2eds/bin/gnu/h-i686-mingw32/bin/../lib/gcc/nios2-elf/4.1.2\libgcc.a(_fpcmp_parts_df.o)
                                0x1c3 (size before relaxing)
 .debug_str     0x00001ca9       0x23 ../cs303a2_bsp/\libhal_bsp.a(alt_alarm_start.o)
 .debug_str     0x00001ccc       0x12 ../cs303a2_bsp/\libhal_bsp.a(alt_close.o)
 .debug_str     0x00001cde       0x12 ../cs303a2_bsp/\libhal_bsp.a(alt_dev.o)
 .debug_str     0x00001cf0       0x12 ../cs303a2_bsp/\libhal_bsp.a(alt_errno.o)
 .debug_str     0x00001d02       0x12 ../cs303a2_bsp/\libhal_bsp.a(alt_fstat.o)
 .debug_str     0x00001d14       0x21 ../cs303a2_bsp/\libhal_bsp.a(alt_irq_register.o)
 .debug_str     0x00001d35       0x12 ../cs303a2_bsp/\libhal_bsp.a(alt_isatty.o)
 .debug_str     0x00001d47       0x12 ../cs303a2_bsp/\libhal_bsp.a(alt_load.o)
 .debug_str     0x00001d59       0x12 ../cs303a2_bsp/\libhal_bsp.a(alt_lseek.o)
 .debug_str     0x00001d6b       0x12 ../cs303a2_bsp/\libhal_bsp.a(alt_main.o)
 .debug_str     0x00001d7d       0x20 ../cs303a2_bsp/\libhal_bsp.a(alt_malloc_lock.o)
 .debug_str     0x00001d9d       0x12 ../cs303a2_bsp/\libhal_bsp.a(alt_read.o)
 .debug_str     0x00001daf       0x1a ../cs303a2_bsp/\libhal_bsp.a(alt_sbrk.o)
 .debug_str     0x00001dc9       0x1a ../cs303a2_bsp/\libhal_bsp.a(alt_tick.o)
 .debug_str     0x00001de3       0x12 ../cs303a2_bsp/\libhal_bsp.a(alt_write.o)
 .debug_str     0x00001df5       0x12 ../cs303a2_bsp/\libhal_bsp.a(alt_sys_init.o)
 .debug_str     0x00001e07       0x12 ../cs303a2_bsp/\libhal_bsp.a(altera_avalon_jtag_uart_fd.o)
 .debug_str     0x00001e19       0x1a ../cs303a2_bsp/\libhal_bsp.a(altera_avalon_jtag_uart_init.o)
 .debug_str     0x00001e33       0x12 ../cs303a2_bsp/\libhal_bsp.a(altera_avalon_jtag_uart_ioctl.o)
 .debug_str     0x00001e45       0x1a ../cs303a2_bsp/\libhal_bsp.a(altera_avalon_jtag_uart_read.o)
 .debug_str     0x00001e5f       0x1a ../cs303a2_bsp/\libhal_bsp.a(altera_avalon_jtag_uart_write.o)
 .debug_str     0x00001e79       0x25 ../cs303a2_bsp/\libhal_bsp.a(altera_avalon_lcd_16207.o)
 .debug_str     0x00001e9e       0x12 ../cs303a2_bsp/\libhal_bsp.a(altera_avalon_lcd_16207_fd.o)
 .debug_str     0x00001eb0       0x12 ../cs303a2_bsp/\libhal_bsp.a(altera_avalon_timer_sc.o)
 .debug_str     0x00001ec2       0x12 ../cs303a2_bsp/\libhal_bsp.a(altera_avalon_uart_fd.o)
 .debug_str     0x00001ed4       0x19 ../cs303a2_bsp/\libhal_bsp.a(altera_avalon_uart_init.o)
 .debug_str     0x00001eed       0x1a ../cs303a2_bsp/\libhal_bsp.a(altera_avalon_uart_read.o)
 .debug_str     0x00001f07       0x1a ../cs303a2_bsp/\libhal_bsp.a(altera_avalon_uart_write.o)
 .debug_str     0x00001f21       0x12 ../cs303a2_bsp/\libhal_bsp.a(alt_dcache_flush_all.o)
 .debug_str     0x00001f33       0x12 ../cs303a2_bsp/\libhal_bsp.a(alt_dev_llist_insert.o)
 .debug_str     0x00001f45       0x12 ../cs303a2_bsp/\libhal_bsp.a(alt_icache_flush_all.o)
 .debug_str     0x00001f57       0x18 ../cs303a2_bsp/\libhal_bsp.a(alt_iic.o)
 .debug_str     0x00001f6f       0x1a ../cs303a2_bsp/\libhal_bsp.a(alt_iic_isr_register.o)
 .debug_str     0x00001f89       0x12 ../cs303a2_bsp/\libhal_bsp.a(alt_io_redirect.o)
 .debug_str     0x00001f9b       0x12 ../cs303a2_bsp/\libhal_bsp.a(alt_irq_handler.o)
 .debug_str     0x00001fad       0x12 ../cs303a2_bsp/\libhal_bsp.a(alt_open.o)
 .debug_str     0x00001fbf       0x12 ../cs303a2_bsp/\libhal_bsp.a(alt_usleep.o)
 .debug_str     0x00001fd1       0x12 ../cs303a2_bsp/\libhal_bsp.a(altera_nios2_qsys_irq.o)
 .debug_str     0x00001fe3       0x12 ../cs303a2_bsp/\libhal_bsp.a(alt_busy_sleep.o)
 .debug_str     0x00001ff5       0x12 ../cs303a2_bsp/\libhal_bsp.a(alt_find_dev.o)
 .debug_str     0x00002007       0x12 ../cs303a2_bsp/\libhal_bsp.a(alt_find_file.o)
 .debug_str     0x00002019       0x12 ../cs303a2_bsp/\libhal_bsp.a(alt_get_fd.o)
 .debug_str     0x0000202b       0x12 ../cs303a2_bsp/\libhal_bsp.a(alt_icache_flush.o)
 .debug_str     0x0000203d       0x3b c:/altera/13.0/nios2eds/bin/gnu/h-i686-mingw32/bin/../lib/gcc/nios2-elf/4.1.2/../../../../nios2-elf/lib\libc.a(lib_a-atexit.o)
                                0x1bc (size before relaxing)
 .debug_str     0x00002078       0xdf c:/altera/13.0/nios2eds/bin/gnu/h-i686-mingw32/bin/../lib/gcc/nios2-elf/4.1.2/../../../../nios2-elf/lib\libc.a(lib_a-ctype_.o)
                                0x102 (size before relaxing)
 .debug_str     0x00002157       0x3e c:/altera/13.0/nios2eds/bin/gnu/h-i686-mingw32/bin/../lib/gcc/nios2-elf/4.1.2/../../../../nios2-elf/lib\libc.a(lib_a-exit.o)
                                0x509 (size before relaxing)
 .debug_str     0x00002195       0x42 c:/altera/13.0/nios2eds/bin/gnu/h-i686-mingw32/bin/../lib/gcc/nios2-elf/4.1.2/../../../../nios2-elf/lib\libc.a(lib_a-memcmp.o)
                                0x167 (size before relaxing)
 .debug_str     0x000021d7       0x51 c:/altera/13.0/nios2eds/bin/gnu/h-i686-mingw32/bin/../lib/gcc/nios2-elf/4.1.2/../../../../nios2-elf/lib\libc.a(lib_a-__atexit.o)
                                0x521 (size before relaxing)
 .debug_str     0x00002228       0x7b c:/altera/13.0/nios2eds/bin/gnu/h-i686-mingw32/bin/../lib/gcc/nios2-elf/4.1.2/../../../../nios2-elf/lib\libc.a(lib_a-__call_atexit.o)
                                0x54b (size before relaxing)
 .debug_str     0x000022a3       0x1c ../cs303a2_bsp/\libhal_bsp.a(alt_exit.o)

.debug_loc      0x00000000     0xc1aa
 *(.debug_loc)
 .debug_loc     0x00000000       0xac obj/default/hello_world.o
 .debug_loc     0x000000ac       0x57 obj/default/sccharts.o
 .debug_loc     0x00000103       0xcb c:/altera/13.0/nios2eds/bin/gnu/h-i686-mingw32/bin/../lib/gcc/nios2-elf/4.1.2/../../../../nios2-elf/lib\libc.a(lib_a-printf.o)
 .debug_loc     0x000001ce     0x1e0d c:/altera/13.0/nios2eds/bin/gnu/h-i686-mingw32/bin/../lib/gcc/nios2-elf/4.1.2/../../../../nios2-elf/lib\libc.a(lib_a-vfprintf.o)
 .debug_loc     0x00001fdb       0x7c c:/altera/13.0/nios2eds/bin/gnu/h-i686-mingw32/bin/../lib/gcc/nios2-elf/4.1.2/../../../../nios2-elf/lib\libc.a(lib_a-wsetup.o)
 .debug_loc     0x00002057     0x1dfa c:/altera/13.0/nios2eds/bin/gnu/h-i686-mingw32/bin/../lib/gcc/nios2-elf/4.1.2/../../../../nios2-elf/lib\libc.a(lib_a-dtoa.o)
 .debug_loc     0x00003e51      0x1f6 c:/altera/13.0/nios2eds/bin/gnu/h-i686-mingw32/bin/../lib/gcc/nios2-elf/4.1.2/../../../../nios2-elf/lib\libc.a(lib_a-fflush.o)
 .debug_loc     0x00004047      0x19f c:/altera/13.0/nios2eds/bin/gnu/h-i686-mingw32/bin/../lib/gcc/nios2-elf/4.1.2/../../../../nios2-elf/lib\libc.a(lib_a-findfp.o)
 .debug_loc     0x000041e6      0x4a7 c:/altera/13.0/nios2eds/bin/gnu/h-i686-mingw32/bin/../lib/gcc/nios2-elf/4.1.2/../../../../nios2-elf/lib\libc.a(lib_a-freer.o)
 .debug_loc     0x0000468d      0x4e4 c:/altera/13.0/nios2eds/bin/gnu/h-i686-mingw32/bin/../lib/gcc/nios2-elf/4.1.2/../../../../nios2-elf/lib\libc.a(lib_a-fvwrite.o)
 .debug_loc     0x00004b71      0x1d2 c:/altera/13.0/nios2eds/bin/gnu/h-i686-mingw32/bin/../lib/gcc/nios2-elf/4.1.2/../../../../nios2-elf/lib\libc.a(lib_a-fwalk.o)
 .debug_loc     0x00004d43       0xe1 c:/altera/13.0/nios2eds/bin/gnu/h-i686-mingw32/bin/../lib/gcc/nios2-elf/4.1.2/../../../../nios2-elf/lib\libc.a(lib_a-locale.o)
 .debug_loc     0x00004e24      0x11c c:/altera/13.0/nios2eds/bin/gnu/h-i686-mingw32/bin/../lib/gcc/nios2-elf/4.1.2/../../../../nios2-elf/lib\libc.a(lib_a-makebuf.o)
 .debug_loc     0x00004f40      0xaeb c:/altera/13.0/nios2eds/bin/gnu/h-i686-mingw32/bin/../lib/gcc/nios2-elf/4.1.2/../../../../nios2-elf/lib\libc.a(lib_a-mallocr.o)
 .debug_loc     0x00005a2b      0x106 c:/altera/13.0/nios2eds/bin/gnu/h-i686-mingw32/bin/../lib/gcc/nios2-elf/4.1.2/../../../../nios2-elf/lib\libc.a(lib_a-memchr.o)
 .debug_loc     0x00005b31       0xca c:/altera/13.0/nios2eds/bin/gnu/h-i686-mingw32/bin/../lib/gcc/nios2-elf/4.1.2/../../../../nios2-elf/lib\libc.a(lib_a-memcpy.o)
 .debug_loc     0x00005bfb      0x117 c:/altera/13.0/nios2eds/bin/gnu/h-i686-mingw32/bin/../lib/gcc/nios2-elf/4.1.2/../../../../nios2-elf/lib\libc.a(lib_a-memmove.o)
 .debug_loc     0x00005d12       0xa1 c:/altera/13.0/nios2eds/bin/gnu/h-i686-mingw32/bin/../lib/gcc/nios2-elf/4.1.2/../../../../nios2-elf/lib\libc.a(lib_a-memset.o)
 .debug_loc     0x00005db3     0x14d6 c:/altera/13.0/nios2eds/bin/gnu/h-i686-mingw32/bin/../lib/gcc/nios2-elf/4.1.2/../../../../nios2-elf/lib\libc.a(lib_a-mprec.o)
 .debug_loc     0x00007289      0x8c0 c:/altera/13.0/nios2eds/bin/gnu/h-i686-mingw32/bin/../lib/gcc/nios2-elf/4.1.2/../../../../nios2-elf/lib\libc.a(lib_a-reallocr.o)
 .debug_loc     0x00007b49       0x36 c:/altera/13.0/nios2eds/bin/gnu/h-i686-mingw32/bin/../lib/gcc/nios2-elf/4.1.2/../../../../nios2-elf/lib\libc.a(lib_a-s_isinfd.o)
 .debug_loc     0x00007b7f       0x18 c:/altera/13.0/nios2eds/bin/gnu/h-i686-mingw32/bin/../lib/gcc/nios2-elf/4.1.2/../../../../nios2-elf/lib\libc.a(lib_a-s_isnand.o)
 .debug_loc     0x00007b97       0x5b c:/altera/13.0/nios2eds/bin/gnu/h-i686-mingw32/bin/../lib/gcc/nios2-elf/4.1.2/../../../../nios2-elf/lib\libc.a(lib_a-sbrkr.o)
 .debug_loc     0x00007bf2      0x21f c:/altera/13.0/nios2eds/bin/gnu/h-i686-mingw32/bin/../lib/gcc/nios2-elf/4.1.2/../../../../nios2-elf/lib\libc.a(lib_a-stdio.o)
 .debug_loc     0x00007e11       0x65 c:/altera/13.0/nios2eds/bin/gnu/h-i686-mingw32/bin/../lib/gcc/nios2-elf/4.1.2/../../../../nios2-elf/lib\libc.a(lib_a-strcmp.o)
 .debug_loc     0x00007e76       0x3c c:/altera/13.0/nios2eds/bin/gnu/h-i686-mingw32/bin/../lib/gcc/nios2-elf/4.1.2/../../../../nios2-elf/lib\libc.a(lib_a-strlen.o)
 .debug_loc     0x00007eb2       0x97 c:/altera/13.0/nios2eds/bin/gnu/h-i686-mingw32/bin/../lib/gcc/nios2-elf/4.1.2/../../../../nios2-elf/lib\libc.a(lib_a-writer.o)
 .debug_loc     0x00007f49       0xe9 c:/altera/13.0/nios2eds/bin/gnu/h-i686-mingw32/bin/../lib/gcc/nios2-elf/4.1.2/../../../../nios2-elf/lib\libc.a(lib_a-callocr.o)
 .debug_loc     0x00008032       0x5b c:/altera/13.0/nios2eds/bin/gnu/h-i686-mingw32/bin/../lib/gcc/nios2-elf/4.1.2/../../../../nios2-elf/lib\libc.a(lib_a-closer.o)
 .debug_loc     0x0000808d       0xe4 c:/altera/13.0/nios2eds/bin/gnu/h-i686-mingw32/bin/../lib/gcc/nios2-elf/4.1.2/../../../../nios2-elf/lib\libc.a(lib_a-fclose.o)
 .debug_loc     0x00008171       0x79 c:/altera/13.0/nios2eds/bin/gnu/h-i686-mingw32/bin/../lib/gcc/nios2-elf/4.1.2/../../../../nios2-elf/lib\libc.a(lib_a-fstatr.o)
 .debug_loc     0x000081ea       0x5b c:/altera/13.0/nios2eds/bin/gnu/h-i686-mingw32/bin/../lib/gcc/nios2-elf/4.1.2/../../../../nios2-elf/lib\libc.a(lib_a-isattyr.o)
 .debug_loc     0x00008245       0x97 c:/altera/13.0/nios2eds/bin/gnu/h-i686-mingw32/bin/../lib/gcc/nios2-elf/4.1.2/../../../../nios2-elf/lib\libc.a(lib_a-lseekr.o)
 .debug_loc     0x000082dc       0x97 c:/altera/13.0/nios2eds/bin/gnu/h-i686-mingw32/bin/../lib/gcc/nios2-elf/4.1.2/../../../../nios2-elf/lib\libc.a(lib_a-readr.o)
 .debug_loc     0x00008373      0xc12 c:/altera/13.0/nios2eds/bin/gnu/h-i686-mingw32/bin/../lib/gcc/nios2-elf/4.1.2\libgcc.a(_udivdi3.o)
 .debug_loc     0x00008f85      0xc26 c:/altera/13.0/nios2eds/bin/gnu/h-i686-mingw32/bin/../lib/gcc/nios2-elf/4.1.2\libgcc.a(_umoddi3.o)
 .debug_loc     0x00009bab      0x47a c:/altera/13.0/nios2eds/bin/gnu/h-i686-mingw32/bin/../lib/gcc/nios2-elf/4.1.2\libgcc.a(_addsub_df.o)
 .debug_loc     0x0000a025      0x3b4 c:/altera/13.0/nios2eds/bin/gnu/h-i686-mingw32/bin/../lib/gcc/nios2-elf/4.1.2\libgcc.a(_mul_df.o)
 .debug_loc     0x0000a3d9      0x1df c:/altera/13.0/nios2eds/bin/gnu/h-i686-mingw32/bin/../lib/gcc/nios2-elf/4.1.2\libgcc.a(_div_df.o)
 .debug_loc     0x0000a5b8       0x70 c:/altera/13.0/nios2eds/bin/gnu/h-i686-mingw32/bin/../lib/gcc/nios2-elf/4.1.2\libgcc.a(_eq_df.o)
 .debug_loc     0x0000a628       0x70 c:/altera/13.0/nios2eds/bin/gnu/h-i686-mingw32/bin/../lib/gcc/nios2-elf/4.1.2\libgcc.a(_ne_df.o)
 .debug_loc     0x0000a698       0x70 c:/altera/13.0/nios2eds/bin/gnu/h-i686-mingw32/bin/../lib/gcc/nios2-elf/4.1.2\libgcc.a(_gt_df.o)
 .debug_loc     0x0000a708       0x70 c:/altera/13.0/nios2eds/bin/gnu/h-i686-mingw32/bin/../lib/gcc/nios2-elf/4.1.2\libgcc.a(_ge_df.o)
 .debug_loc     0x0000a778       0x70 c:/altera/13.0/nios2eds/bin/gnu/h-i686-mingw32/bin/../lib/gcc/nios2-elf/4.1.2\libgcc.a(_lt_df.o)
 .debug_loc     0x0000a7e8       0x9a c:/altera/13.0/nios2eds/bin/gnu/h-i686-mingw32/bin/../lib/gcc/nios2-elf/4.1.2\libgcc.a(_si_to_df.o)
 .debug_loc     0x0000a882       0x8b c:/altera/13.0/nios2eds/bin/gnu/h-i686-mingw32/bin/../lib/gcc/nios2-elf/4.1.2\libgcc.a(_df_to_si.o)
 .debug_loc     0x0000a90d       0x5b c:/altera/13.0/nios2eds/bin/gnu/h-i686-mingw32/bin/../lib/gcc/nios2-elf/4.1.2\libgcc.a(_usi_to_df.o)
 .debug_loc     0x0000a968      0x1d2 c:/altera/13.0/nios2eds/bin/gnu/h-i686-mingw32/bin/../lib/gcc/nios2-elf/4.1.2\libgcc.a(lib2-divmod.o)
 .debug_loc     0x0000ab3a       0xc4 c:/altera/13.0/nios2eds/bin/gnu/h-i686-mingw32/bin/../lib/gcc/nios2-elf/4.1.2\libgcc.a(_muldi3.o)
 .debug_loc     0x0000abfe       0x1e c:/altera/13.0/nios2eds/bin/gnu/h-i686-mingw32/bin/../lib/gcc/nios2-elf/4.1.2\libgcc.a(_clzsi2.o)
 .debug_loc     0x0000ac1c      0x184 c:/altera/13.0/nios2eds/bin/gnu/h-i686-mingw32/bin/../lib/gcc/nios2-elf/4.1.2\libgcc.a(_pack_df.o)
 .debug_loc     0x0000ada0       0xe5 c:/altera/13.0/nios2eds/bin/gnu/h-i686-mingw32/bin/../lib/gcc/nios2-elf/4.1.2\libgcc.a(_unpack_df.o)
 .debug_loc     0x0000ae85       0x2b ../cs303a2_bsp/\libhal_bsp.a(alt_alarm_start.o)
 .debug_loc     0x0000aeb0       0x56 ../cs303a2_bsp/\libhal_bsp.a(alt_close.o)
 .debug_loc     0x0000af06       0x2b ../cs303a2_bsp/\libhal_bsp.a(alt_dev.o)
 .debug_loc     0x0000af31       0x56 ../cs303a2_bsp/\libhal_bsp.a(alt_fstat.o)
 .debug_loc     0x0000af87       0x2c ../cs303a2_bsp/\libhal_bsp.a(alt_irq_register.o)
 .debug_loc     0x0000afb3       0x57 ../cs303a2_bsp/\libhal_bsp.a(alt_isatty.o)
 .debug_loc     0x0000b00a       0x56 ../cs303a2_bsp/\libhal_bsp.a(alt_load.o)
 .debug_loc     0x0000b060       0x56 ../cs303a2_bsp/\libhal_bsp.a(alt_lseek.o)
 .debug_loc     0x0000b0b6       0x2b ../cs303a2_bsp/\libhal_bsp.a(alt_main.o)
 .debug_loc     0x0000b0e1       0x56 ../cs303a2_bsp/\libhal_bsp.a(alt_malloc_lock.o)
 .debug_loc     0x0000b137       0x56 ../cs303a2_bsp/\libhal_bsp.a(alt_read.o)
 .debug_loc     0x0000b18d       0x2b ../cs303a2_bsp/\libhal_bsp.a(alt_release_fd.o)
 .debug_loc     0x0000b1b8       0x2b ../cs303a2_bsp/\libhal_bsp.a(alt_sbrk.o)
 .debug_loc     0x0000b1e3       0x56 ../cs303a2_bsp/\libhal_bsp.a(alt_tick.o)
 .debug_loc     0x0000b239       0x56 ../cs303a2_bsp/\libhal_bsp.a(alt_write.o)
 .debug_loc     0x0000b28f       0x81 ../cs303a2_bsp/\libhal_bsp.a(alt_sys_init.o)
 .debug_loc     0x0000b310       0xac ../cs303a2_bsp/\libhal_bsp.a(altera_avalon_jtag_uart_fd.o)
 .debug_loc     0x0000b3bc       0xac ../cs303a2_bsp/\libhal_bsp.a(altera_avalon_jtag_uart_init.o)
 .debug_loc     0x0000b468       0x2b ../cs303a2_bsp/\libhal_bsp.a(altera_avalon_jtag_uart_ioctl.o)
 .debug_loc     0x0000b493       0x2b ../cs303a2_bsp/\libhal_bsp.a(altera_avalon_jtag_uart_read.o)
 .debug_loc     0x0000b4be       0x2b ../cs303a2_bsp/\libhal_bsp.a(altera_avalon_jtag_uart_write.o)
 .debug_loc     0x0000b4e9      0x183 ../cs303a2_bsp/\libhal_bsp.a(altera_avalon_lcd_16207.o)
 .debug_loc     0x0000b66c       0x2b ../cs303a2_bsp/\libhal_bsp.a(altera_avalon_lcd_16207_fd.o)
 .debug_loc     0x0000b697       0x56 ../cs303a2_bsp/\libhal_bsp.a(altera_avalon_timer_sc.o)
 .debug_loc     0x0000b6ed       0x81 ../cs303a2_bsp/\libhal_bsp.a(altera_avalon_uart_fd.o)
 .debug_loc     0x0000b76e       0xd7 ../cs303a2_bsp/\libhal_bsp.a(altera_avalon_uart_init.o)
 .debug_loc     0x0000b845       0x57 ../cs303a2_bsp/\libhal_bsp.a(altera_avalon_uart_read.o)
 .debug_loc     0x0000b89c       0x56 ../cs303a2_bsp/\libhal_bsp.a(altera_avalon_uart_write.o)
 .debug_loc     0x0000b8f2       0x2b ../cs303a2_bsp/\libhal_bsp.a(alt_dcache_flush_all.o)
 .debug_loc     0x0000b91d       0x56 ../cs303a2_bsp/\libhal_bsp.a(alt_dev_llist_insert.o)
 .debug_loc     0x0000b973       0x2b ../cs303a2_bsp/\libhal_bsp.a(alt_do_ctors.o)
 .debug_loc     0x0000b99e       0x2b ../cs303a2_bsp/\libhal_bsp.a(alt_do_dtors.o)
 .debug_loc     0x0000b9c9       0x2b ../cs303a2_bsp/\libhal_bsp.a(alt_icache_flush_all.o)
 .debug_loc     0x0000b9f4       0xac ../cs303a2_bsp/\libhal_bsp.a(alt_iic.o)
 .debug_loc     0x0000baa0       0x2b ../cs303a2_bsp/\libhal_bsp.a(alt_iic_isr_register.o)
 .debug_loc     0x0000bacb       0x56 ../cs303a2_bsp/\libhal_bsp.a(alt_io_redirect.o)
 .debug_loc     0x0000bb21       0x2b ../cs303a2_bsp/\libhal_bsp.a(alt_irq_handler.o)
 .debug_loc     0x0000bb4c       0x81 ../cs303a2_bsp/\libhal_bsp.a(alt_open.o)
 .debug_loc     0x0000bbcd       0x2b ../cs303a2_bsp/\libhal_bsp.a(alt_usleep.o)
 .debug_loc     0x0000bbf8       0x2b ../cs303a2_bsp/\libhal_bsp.a(altera_nios2_qsys_irq.o)
 .debug_loc     0x0000bc23       0x2b ../cs303a2_bsp/\libhal_bsp.a(alt_busy_sleep.o)
 .debug_loc     0x0000bc4e       0x2b ../cs303a2_bsp/\libhal_bsp.a(alt_find_dev.o)
 .debug_loc     0x0000bc79       0x2b ../cs303a2_bsp/\libhal_bsp.a(alt_find_file.o)
 .debug_loc     0x0000bca4       0x2b ../cs303a2_bsp/\libhal_bsp.a(alt_get_fd.o)
 .debug_loc     0x0000bccf       0x2b ../cs303a2_bsp/\libhal_bsp.a(alt_icache_flush.o)
 .debug_loc     0x0000bcfa       0x1e c:/altera/13.0/nios2eds/bin/gnu/h-i686-mingw32/bin/../lib/gcc/nios2-elf/4.1.2/../../../../nios2-elf/lib\libc.a(lib_a-atexit.o)
 .debug_loc     0x0000bd18       0x3d c:/altera/13.0/nios2eds/bin/gnu/h-i686-mingw32/bin/../lib/gcc/nios2-elf/4.1.2/../../../../nios2-elf/lib\libc.a(lib_a-exit.o)
 .debug_loc     0x0000bd55      0x114 c:/altera/13.0/nios2eds/bin/gnu/h-i686-mingw32/bin/../lib/gcc/nios2-elf/4.1.2/../../../../nios2-elf/lib\libc.a(lib_a-memcmp.o)
 .debug_loc     0x0000be69      0x120 c:/altera/13.0/nios2eds/bin/gnu/h-i686-mingw32/bin/../lib/gcc/nios2-elf/4.1.2/../../../../nios2-elf/lib\libc.a(lib_a-__atexit.o)
 .debug_loc     0x0000bf89      0x1cb c:/altera/13.0/nios2eds/bin/gnu/h-i686-mingw32/bin/../lib/gcc/nios2-elf/4.1.2/../../../../nios2-elf/lib\libc.a(lib_a-__call_atexit.o)
 .debug_loc     0x0000c154       0x56 ../cs303a2_bsp/\libhal_bsp.a(alt_exit.o)

.debug_macinfo
 *(.debug_macinfo)

.debug_weaknames
 *(.debug_weaknames)

.debug_funcnames
 *(.debug_funcnames)

.debug_typenames
 *(.debug_typenames)

.debug_varnames
 *(.debug_varnames)

.debug_alt_sim_info
                0x00000000       0x60
 *(.debug_alt_sim_info)
 .debug_alt_sim_info
                0x00000000       0x30 ../cs303a2_bsp//obj/HAL/src/crt0.o
 .debug_alt_sim_info
                0x00000030       0x30 ../cs303a2_bsp/\libhal_bsp.a(alt_busy_sleep.o)
                0x01000000                __alt_data_end = 0x1000000
                0x01000000                PROVIDE (__alt_stack_pointer, __alt_data_end)
                0x008157a0                PROVIDE (__alt_stack_limit, __alt_stack_base)
                0x008157a0                PROVIDE (__alt_heap_start, end)
                0x01000000                PROVIDE (__alt_heap_limit, 0x1000000)
OUTPUT(cs303a2.elf elf32-littlenios2)

.debug_ranges   0x00000000      0x990
 .debug_ranges  0x00000000       0x20 ../cs303a2_bsp//obj/HAL/src/crt0.o
 .debug_ranges  0x00000020      0x168 c:/altera/13.0/nios2eds/bin/gnu/h-i686-mingw32/bin/../lib/gcc/nios2-elf/4.1.2/../../../../nios2-elf/lib\libc.a(lib_a-vfprintf.o)
 .debug_ranges  0x00000188       0x20 c:/altera/13.0/nios2eds/bin/gnu/h-i686-mingw32/bin/../lib/gcc/nios2-elf/4.1.2/../../../../nios2-elf/lib\libc.a(lib_a-fflush.o)
 .debug_ranges  0x000001a8       0x28 c:/altera/13.0/nios2eds/bin/gnu/h-i686-mingw32/bin/../lib/gcc/nios2-elf/4.1.2/../../../../nios2-elf/lib\libc.a(lib_a-fvwrite.o)
 .debug_ranges  0x000001d0       0xa0 c:/altera/13.0/nios2eds/bin/gnu/h-i686-mingw32/bin/../lib/gcc/nios2-elf/4.1.2/../../../../nios2-elf/lib\libc.a(lib_a-fwalk.o)
 .debug_ranges  0x00000270       0x70 c:/altera/13.0/nios2eds/bin/gnu/h-i686-mingw32/bin/../lib/gcc/nios2-elf/4.1.2/../../../../nios2-elf/lib\libc.a(lib_a-mallocr.o)
 .debug_ranges  0x000002e0      0x110 c:/altera/13.0/nios2eds/bin/gnu/h-i686-mingw32/bin/../lib/gcc/nios2-elf/4.1.2/../../../../nios2-elf/lib\libc.a(lib_a-reallocr.o)
 .debug_ranges  0x000003f0       0x38 c:/altera/13.0/nios2eds/bin/gnu/h-i686-mingw32/bin/../lib/gcc/nios2-elf/4.1.2/../../../../nios2-elf/lib\libc.a(lib_a-callocr.o)
 .debug_ranges  0x00000428      0x188 c:/altera/13.0/nios2eds/bin/gnu/h-i686-mingw32/bin/../lib/gcc/nios2-elf/4.1.2\libgcc.a(_udivdi3.o)
 .debug_ranges  0x000005b0      0x198 c:/altera/13.0/nios2eds/bin/gnu/h-i686-mingw32/bin/../lib/gcc/nios2-elf/4.1.2\libgcc.a(_umoddi3.o)
 .debug_ranges  0x00000748       0x30 c:/altera/13.0/nios2eds/bin/gnu/h-i686-mingw32/bin/../lib/gcc/nios2-elf/4.1.2\libgcc.a(_addsub_df.o)
 .debug_ranges  0x00000778       0x88 c:/altera/13.0/nios2eds/bin/gnu/h-i686-mingw32/bin/../lib/gcc/nios2-elf/4.1.2\libgcc.a(_mul_df.o)
 .debug_ranges  0x00000800       0x50 c:/altera/13.0/nios2eds/bin/gnu/h-i686-mingw32/bin/../lib/gcc/nios2-elf/4.1.2\libgcc.a(_div_df.o)
 .debug_ranges  0x00000850       0x18 c:/altera/13.0/nios2eds/bin/gnu/h-i686-mingw32/bin/../lib/gcc/nios2-elf/4.1.2\libgcc.a(_usi_to_df.o)
 .debug_ranges  0x00000868       0x68 c:/altera/13.0/nios2eds/bin/gnu/h-i686-mingw32/bin/../lib/gcc/nios2-elf/4.1.2\libgcc.a(_muldi3.o)
 .debug_ranges  0x000008d0       0x28 c:/altera/13.0/nios2eds/bin/gnu/h-i686-mingw32/bin/../lib/gcc/nios2-elf/4.1.2\libgcc.a(_clzsi2.o)
 .debug_ranges  0x000008f8       0x28 c:/altera/13.0/nios2eds/bin/gnu/h-i686-mingw32/bin/../lib/gcc/nios2-elf/4.1.2\libgcc.a(_pack_df.o)
 .debug_ranges  0x00000920       0x28 ../cs303a2_bsp/\libhal_bsp.a(alt_irq_entry.o)
 .debug_ranges  0x00000948       0x30 ../cs303a2_bsp/\libhal_bsp.a(alt_exception_entry.o)
 .debug_ranges  0x00000978       0x18 c:/altera/13.0/nios2eds/bin/gnu/h-i686-mingw32/bin/../lib/gcc/nios2-elf/4.1.2/../../../../nios2-elf/lib\libc.a(lib_a-__call_atexit.o)
