
cs303a2.elf:     file format elf32-littlenios2
cs303a2.elf
architecture: nios2, flags 0x00000112:
EXEC_P, HAS_SYMS, D_PAGED
start address 0x008001b4

Program Header:
    LOAD off    0x00001000 vaddr 0x00800000 paddr 0x00800000 align 2**12
         filesz 0x00000020 memsz 0x00000020 flags r-x
    LOAD off    0x00001020 vaddr 0x00800020 paddr 0x00800020 align 2**12
         filesz 0x00011a3c memsz 0x00011a3c flags r-x
    LOAD off    0x00012a5c vaddr 0x00811a5c paddr 0x008136a4 align 2**12
         filesz 0x00001c48 memsz 0x00001c48 flags rw-
    LOAD off    0x000152ec vaddr 0x008152ec paddr 0x008152ec align 2**12
         filesz 0x00000000 memsz 0x000004b4 flags rw-

Sections:
Idx Name          Size      VMA       LMA       File off  Algn
  0 .entry        00000020  00800000  00800000  00001000  2**5
                  CONTENTS, ALLOC, LOAD, READONLY, CODE
  1 .exceptions   00000194  00800020  00800020  00001020  2**2
                  CONTENTS, ALLOC, LOAD, READONLY, CODE
  2 .text         000112bc  008001b4  008001b4  000011b4  2**2
                  CONTENTS, ALLOC, LOAD, READONLY, CODE
  3 .rodata       000005ec  00811470  00811470  00012470  2**2
                  CONTENTS, ALLOC, LOAD, READONLY, DATA
  4 .rwdata       00001c48  00811a5c  008136a4  00012a5c  2**2
                  CONTENTS, ALLOC, LOAD, DATA, SMALL_DATA
  5 .bss          000004b4  008152ec  008152ec  000152ec  2**2
                  ALLOC, SMALL_DATA
  6 .comment      00000023  00000000  00000000  000146a4  2**0
                  CONTENTS, READONLY
  7 .debug_aranges 00000d98  00000000  00000000  000146c8  2**3
                  CONTENTS, READONLY, DEBUGGING
  8 .debug_pubnames 000021fb  00000000  00000000  00015460  2**0
                  CONTENTS, READONLY, DEBUGGING
  9 .debug_info   00026c53  00000000  00000000  0001765b  2**0
                  CONTENTS, READONLY, DEBUGGING
 10 .debug_abbrev 000082be  00000000  00000000  0003e2ae  2**0
                  CONTENTS, READONLY, DEBUGGING
 11 .debug_line   00015de6  00000000  00000000  0004656c  2**0
                  CONTENTS, READONLY, DEBUGGING
 12 .debug_frame  00001bbc  00000000  00000000  0005c354  2**2
                  CONTENTS, READONLY, DEBUGGING
 13 .debug_str    000022bf  00000000  00000000  0005df10  2**0
                  CONTENTS, READONLY, DEBUGGING
 14 .debug_loc    0000c1aa  00000000  00000000  000601cf  2**0
                  CONTENTS, READONLY, DEBUGGING
 15 .debug_alt_sim_info 00000060  00000000  00000000  0006c37c  2**2
                  CONTENTS, READONLY, DEBUGGING
 16 .debug_ranges 00000990  00000000  00000000  0006c3e0  2**3
                  CONTENTS, READONLY, DEBUGGING
 17 .thread_model 00000003  00000000  00000000  00071c47  2**0
                  CONTENTS, READONLY
 18 .cpu          00000003  00000000  00000000  00071c4a  2**0
                  CONTENTS, READONLY
 19 .qsys         00000001  00000000  00000000  00071c4d  2**0
                  CONTENTS, READONLY
 20 .simulation_enabled 00000001  00000000  00000000  00071c4e  2**0
                  CONTENTS, READONLY
 21 .sysid_hash   00000004  00000000  00000000  00071c4f  2**0
                  CONTENTS, READONLY
 22 .sysid_base   00000004  00000000  00000000  00071c53  2**0
                  CONTENTS, READONLY
 23 .sysid_time   00000004  00000000  00000000  00071c57  2**0
                  CONTENTS, READONLY
 24 .stderr_dev   00000009  00000000  00000000  00071c5b  2**0
                  CONTENTS, READONLY
 25 .stdin_dev    00000009  00000000  00000000  00071c64  2**0
                  CONTENTS, READONLY
 26 .stdout_dev   00000009  00000000  00000000  00071c6d  2**0
                  CONTENTS, READONLY
 27 .sopc_system_name 00000006  00000000  00000000  00071c76  2**0
                  CONTENTS, READONLY
 28 .quartus_project_dir 00000026  00000000  00000000  00071c7c  2**0
                  CONTENTS, READONLY
SYMBOL TABLE:
00800000 l    d  .entry	00000000 .entry
00800020 l    d  .exceptions	00000000 .exceptions
008001b4 l    d  .text	00000000 .text
00811470 l    d  .rodata	00000000 .rodata
00811a5c l    d  .rwdata	00000000 .rwdata
008152ec l    d  .bss	00000000 .bss
00000000 l    d  .comment	00000000 .comment
00000000 l    d  .debug_aranges	00000000 .debug_aranges
00000000 l    d  .debug_pubnames	00000000 .debug_pubnames
00000000 l    d  .debug_info	00000000 .debug_info
00000000 l    d  .debug_abbrev	00000000 .debug_abbrev
00000000 l    d  .debug_line	00000000 .debug_line
00000000 l    d  .debug_frame	00000000 .debug_frame
00000000 l    d  .debug_str	00000000 .debug_str
00000000 l    d  .debug_loc	00000000 .debug_loc
00000000 l    d  .debug_alt_sim_info	00000000 .debug_alt_sim_info
00000000 l    d  .debug_ranges	00000000 .debug_ranges
008001fc l       .text	00000000 alt_after_alt_main
00000000 l    df *ABS*	00000000 alt_irq_handler.c
00000000 l    df *ABS*	00000000 hello_world.c
00815440 l     O .bss	00000018 vrp_timer.2351
00815458 l     O .bss	00000018 pvarp_timer.2350
00815470 l     O .bss	00000018 aei_timer.2349
00815488 l     O .bss	00000018 avi_timer.2348
008154a0 l     O .bss	00000018 uri_timer.2347
008154b8 l     O .bss	00000018 lri_timer.2346
008154d0 l     O .bss	00000018 led_timer.2337
00000000 l    df *ABS*	00000000 sccharts.c
00000000 l    df *ABS*	00000000 printf.c
00000000 l    df *ABS*	00000000 vfprintf.c
00803764 l     F .text	00000058 __sprint_r
008114f8 l     O .rodata	00000010 blanks.3452
008114e8 l     O .rodata	00000010 zeroes.3453
00000000 l    df *ABS*	00000000 wsetup.c
00000000 l    df *ABS*	00000000 dtoa.c
008057c8 l     F .text	00000218 quorem
00000000 l    df *ABS*	00000000 fflush.c
00000000 l    df *ABS*	00000000 findfp.c
008071c4 l     F .text	00000058 std
008072d0 l     F .text	00000008 __fp_lock
008072d8 l     F .text	00000008 __fp_unlock
00000000 l    df *ABS*	00000000 mallocr.c
00000000 l    df *ABS*	00000000 fvwrite.c
00000000 l    df *ABS*	00000000 fwalk.c
00000000 l    df *ABS*	00000000 impure.c
00811a5c l     O .rwdata	00000400 impure_data
00000000 l    df *ABS*	00000000 locale.c
00813668 l     O .rwdata	00000004 charset
0081152c l     O .rodata	00000030 lconv
00000000 l    df *ABS*	00000000 makebuf.c
00000000 l    df *ABS*	00000000 mallocr.c
00000000 l    df *ABS*	00000000 memchr.c
00000000 l    df *ABS*	00000000 memcpy.c
00000000 l    df *ABS*	00000000 memmove.c
00000000 l    df *ABS*	00000000 memset.c
00000000 l    df *ABS*	00000000 mprec.c
00811674 l     O .rodata	0000000c p05.2458
00000000 l    df *ABS*	00000000 mallocr.c
00000000 l    df *ABS*	00000000 s_isinfd.c
00000000 l    df *ABS*	00000000 s_isnand.c
00000000 l    df *ABS*	00000000 sbrkr.c
00000000 l    df *ABS*	00000000 stdio.c
00000000 l    df *ABS*	00000000 strcmp.c
00000000 l    df *ABS*	00000000 strlen.c
00000000 l    df *ABS*	00000000 writer.c
00000000 l    df *ABS*	00000000 mallocr.c
00000000 l    df *ABS*	00000000 closer.c
00000000 l    df *ABS*	00000000 fclose.c
00000000 l    df *ABS*	00000000 fstatr.c
00000000 l    df *ABS*	00000000 int_errno.c
00000000 l    df *ABS*	00000000 isattyr.c
00000000 l    df *ABS*	00000000 lseekr.c
00000000 l    df *ABS*	00000000 readr.c
00000000 l    df *ABS*	00000000 libgcc2.c
00000000 l    df *ABS*	00000000 libgcc2.c
00000000 l    df *ABS*	00000000 dp-bit.c
0080b4d8 l     F .text	00000410 _fpadd_parts
00000000 l    df *ABS*	00000000 dp-bit.c
00000000 l    df *ABS*	00000000 dp-bit.c
00000000 l    df *ABS*	00000000 dp-bit.c
00000000 l    df *ABS*	00000000 dp-bit.c
00000000 l    df *ABS*	00000000 dp-bit.c
00000000 l    df *ABS*	00000000 dp-bit.c
00000000 l    df *ABS*	00000000 dp-bit.c
00000000 l    df *ABS*	00000000 dp-bit.c
00000000 l    df *ABS*	00000000 dp-bit.c
00000000 l    df *ABS*	00000000 dp-bit.c
00000000 l    df *ABS*	00000000 dp-bit.c
00000000 l    df *ABS*	00000000 lib2-divmod.c
0080c604 l     F .text	0000007c udivmodsi4
00000000 l    df *ABS*	00000000 libgcc2.c
00000000 l    df *ABS*	00000000 libgcc2.c
00000000 l    df *ABS*	00000000 libgcc2.c
00000000 l    df *ABS*	00000000 dp-bit.c
00000000 l    df *ABS*	00000000 dp-bit.c
00000000 l    df *ABS*	00000000 dp-bit.c
00000000 l    df *ABS*	00000000 alt_alarm_start.c
00000000 l    df *ABS*	00000000 alt_close.c
0080cfcc l     F .text	00000060 alt_get_errno
00000000 l    df *ABS*	00000000 alt_dev.c
0080d02c l     F .text	0000002c alt_dev_null_write
00000000 l    df *ABS*	00000000 alt_errno.c
00000000 l    df *ABS*	00000000 alt_fstat.c
0080d12c l     F .text	00000060 alt_get_errno
00000000 l    df *ABS*	00000000 alt_irq_register.c
00000000 l    df *ABS*	00000000 alt_irq_vars.c
00000000 l    df *ABS*	00000000 alt_isatty.c
0080d40c l     F .text	00000060 alt_get_errno
00000000 l    df *ABS*	00000000 alt_load.c
0080d4ec l     F .text	0000006c alt_load_section
00000000 l    df *ABS*	00000000 alt_lseek.c
0080d648 l     F .text	00000060 alt_get_errno
00000000 l    df *ABS*	00000000 alt_main.c
00000000 l    df *ABS*	00000000 alt_malloc_lock.c
00000000 l    df *ABS*	00000000 alt_read.c
0080d874 l     F .text	00000060 alt_get_errno
00000000 l    df *ABS*	00000000 alt_release_fd.c
00000000 l    df *ABS*	00000000 alt_sbrk.c
00813690 l     O .rwdata	00000004 heap_end
00000000 l    df *ABS*	00000000 alt_tick.c
00000000 l    df *ABS*	00000000 alt_write.c
0080dcb4 l     F .text	00000060 alt_get_errno
00000000 l    df *ABS*	00000000 alt_sys_init.c
00812418 l     O .rwdata	00001060 jtag_uart
00813478 l     O .rwdata	00000120 lcd
00813598 l     O .rwdata	000000c4 uart
0080dddc l     F .text	00000038 alt_dev_reg
00000000 l    df *ABS*	00000000 altera_avalon_jtag_uart_fd.c
00000000 l    df *ABS*	00000000 altera_avalon_jtag_uart_init.c
0080e01c l     F .text	00000228 altera_avalon_jtag_uart_irq
0080e244 l     F .text	000000b0 altera_avalon_jtag_uart_timeout
00000000 l    df *ABS*	00000000 altera_avalon_jtag_uart_ioctl.c
00000000 l    df *ABS*	00000000 altera_avalon_jtag_uart_read.c
00000000 l    df *ABS*	00000000 altera_avalon_jtag_uart_write.c
00000000 l    df *ABS*	00000000 altera_avalon_lcd_16207.c
0081369c l     O .rwdata	00000004 colstart
0080e8c0 l     F .text	000000b8 lcd_write_command
0080e978 l     F .text	000000d4 lcd_write_data
0080ea4c l     F .text	000000c4 lcd_clear_screen
0080eb10 l     F .text	000001ec lcd_repaint_screen
0080ecfc l     F .text	000000c8 lcd_scroll_up
0080edc4 l     F .text	000002d0 lcd_handle_escape
0080f5a0 l     F .text	000000cc alt_lcd_16207_timeout
00000000 l    df *ABS*	00000000 altera_avalon_lcd_16207_fd.c
00000000 l    df *ABS*	00000000 altera_avalon_timer_sc.c
0080f800 l     F .text	00000070 alt_avalon_timer_sc_irq
00000000 l    df *ABS*	00000000 altera_avalon_uart_fd.c
00000000 l    df *ABS*	00000000 altera_avalon_uart_init.c
0080fac0 l     F .text	0000009c altera_avalon_uart_irq
0080fb5c l     F .text	000000e0 altera_avalon_uart_rxirq
0080fc3c l     F .text	0000015c altera_avalon_uart_txirq
00000000 l    df *ABS*	00000000 altera_avalon_uart_read.c
00810028 l     F .text	00000060 alt_get_errno
00000000 l    df *ABS*	00000000 altera_avalon_uart_write.c
00810250 l     F .text	00000060 alt_get_errno
00000000 l    df *ABS*	00000000 alt_dcache_flush_all.c
00000000 l    df *ABS*	00000000 alt_dev_llist_insert.c
008103a8 l     F .text	00000060 alt_get_errno
00000000 l    df *ABS*	00000000 alt_do_ctors.c
00000000 l    df *ABS*	00000000 alt_do_dtors.c
00000000 l    df *ABS*	00000000 alt_icache_flush_all.c
00000000 l    df *ABS*	00000000 alt_iic.c
00000000 l    df *ABS*	00000000 alt_iic_isr_register.c
00000000 l    df *ABS*	00000000 alt_io_redirect.c
008107cc l     F .text	000000c4 alt_open_fd
00000000 l    df *ABS*	00000000 alt_open.c
00810908 l     F .text	000000dc alt_file_locked
00810b6c l     F .text	00000060 alt_get_errno
00000000 l    df *ABS*	00000000 alt_usleep.c
00000000 l    df *ABS*	00000000 altera_nios2_qsys_irq.c
00000000 l    df *ABS*	00000000 alt_busy_sleep.c
00000000 l    df *ABS*	00000000 alt_find_dev.c
00000000 l    df *ABS*	00000000 alt_find_file.c
00000000 l    df *ABS*	00000000 alt_get_fd.c
00000000 l    df *ABS*	00000000 alt_icache_flush.c
00000000 l    df *ABS*	00000000 atexit.c
00000000 l    df *ABS*	00000000 ctype_.c
008118dc l     O .rodata	00000180 _ctype_b
00000000 l    df *ABS*	00000000 exit.c
00000000 l    df *ABS*	00000000 memcmp.c
00000000 l    df *ABS*	00000000 __atexit.c
00000000 l    df *ABS*	00000000 __call_atexit.c
00811258 l     F .text	00000004 register_fini
00000000 l    df *ABS*	00000000 alt_exit.c
0081140c l     F .text	00000040 alt_sim_halt
008152ec g     O .bss	00000001 g83
008152ed g     O .bss	00000001 g40
00808f80 g     F .text	00000094 _mprec_log10
008152ee g     O .bss	00000001 AVI_TO
0080906c g     F .text	00000088 __any_on
0080a7ec g     F .text	00000070 _isatty_r
0081164c g     O .rodata	00000028 __mprec_tinytens
008152ef g     O .bss	00000001 g91
0080d6a8 g     F .text	0000006c alt_main
008152f0 g     O .bss	00000001 APace
00815510 g     O .bss	00000100 alt_irq
0080a85c g     F .text	00000078 _lseek_r
008152f1 g     O .bss	00000001 _DDDPacemaker_local_AEI_ex
008152f2 g     O .bss	00000001 g4
008136a4 g       *ABS*	00000000 __flash_rwdata_start
008152f3 g     O .bss	00000001 g108
008152f4 g     O .bss	00000001 g19
008152f5 g     O .bss	00000001 g111
0080bff8 g     F .text	00000088 __eqdf2
008152f6 g     O .bss	00000001 PRE_g38
008152f7 g     O .bss	00000001 PRE_g102
008157a0 g       *ABS*	00000000 __alt_heap_start
008152f8 g     O .bss	00000001 VRP_TO
008036ec g     F .text	00000044 printf
0080a244 g     F .text	00000068 __sseek
0080722c g     F .text	000000a4 __sinit
008152f9 g     O .bss	00000001 g55
008152fa g     O .bss	00000001 _cg59
008152fb g     O .bss	00000001 g27
00807f04 g     F .text	00000084 _setlocale_r
0080732c g     F .text	00000068 __sfmoreglue
0080d734 g     F .text	00000020 __malloc_unlock
008152fc g     O .bss	00000001 _DDDPacemaker_local_AVI_start
008152fd g     O .bss	00000001 _cg116
008152fe g     O .bss	00000001 g112
008152ff g     O .bss	00000001 g126_fix2
00815300 g     O .bss	00000001 g3
00815301 g     O .bss	00000001 PRE_g63
00815302 g     O .bss	00000001 _DDDPacemaker_local_VRP_stop
008089fc g     F .text	000000e0 memmove
00815303 g     O .bss	00000001 g103
00815304 g     O .bss	00000001 g47
00815305 g     O .bss	00000001 g42
00815306 g     O .bss	00000001 g85
0080731c g     F .text	00000010 _cleanup
008090f4 g     F .text	000000bc _Balloc
00815307 g     O .bss	00000001 g9
00815308 g     O .bss	00000001 g127
00815309 g     O .bss	00000001 _cg7
0081530c g     O .bss	00000004 _PRE_GO
00815310 g     O .bss	00000001 PRE_g3
00815311 g     O .bss	00000001 g102
0080c108 g     F .text	00000088 __gtdf2
00000000  w      *UND*	00000000 __errno
00815312 g     O .bss	00000001 PRE_g29
00815313 g     O .bss	00000001 g115
00800000 g     F .entry	0000001c __reset
00815314 g     O .bss	00000001 PRE_g56
00800020 g       *ABS*	00000000 __flash_exceptions_start
0080a778 g     F .text	00000074 _fstat_r
00815424 g     O .bss	00000004 errno
00815315 g     O .bss	00000001 g87
00815316 g     O .bss	00000001 g44
00815317 g     O .bss	00000001 _DDDPacemaker_local_LRI_ex
00800000 g       *ABS*	00000000 __alt_mem_sdram_controller
00815318 g     O .bss	00000001 g97b
00815319 g     O .bss	00000001 g123
0081531a g     O .bss	00000001 _cg75
00815430 g     O .bss	00000004 alt_argv
0081b65c g       *ABS*	00000000 _gp
00810bcc g     F .text	00000030 usleep
00800698 g     F .text	000000a0 reset
0081531b g     O .bss	00000001 g88b
0081531c g     O .bss	00000001 g92
0081531d g     O .bss	00000001 g1
0081531e g     O .bss	00000001 g61
00812298 g     O .rwdata	00000180 alt_fd_list
0081531f g     O .bss	00000001 g71
00815320 g     O .bss	00000001 _DDDPacemaker_local_AVI_ex
00815321 g     O .bss	00000001 g95b
00815322 g     O .bss	00000001 g7b
00810d68 g     F .text	00000094 alt_find_dev
0080895c g     F .text	000000a0 memcpy
00815323 g     O .bss	00000001 g126
00807310 g     F .text	0000000c _cleanup_r
0080c2a0 g     F .text	000000f8 __floatsidf
00815324 g     O .bss	00000001 g39b
00815325 g     O .bss	00000001 g82
00810890 g     F .text	00000078 alt_io_redirect
0080c218 g     F .text	00000088 __ltdf2
00815326 g     O .bss	00000001 _cg33
00811470 g       *ABS*	00000000 __DTOR_END__
00815327 g     O .bss	00000001 _cg98
00815328 g     O .bss	00000001 g12
00815329 g     O .bss	00000001 g97
0081532a g     O .bss	00000001 g52
0081532b g     O .bss	00000001 g72_e7
0081532c g     O .bss	00000001 LRI_TO
00808ed0 g     F .text	000000b0 __ratio
0081532d g     O .bss	00000001 _cg46
0081532e g     O .bss	00000001 _cg85
0080e45c g     F .text	00000224 altera_avalon_jtag_uart_read
00000000  w      *UND*	00000000 malloc
00803730 g     F .text	00000034 _printf_r
0080c740 g     F .text	00000008 __udivsi3
0080d34c g     F .text	000000c0 isatty
0081532f g     O .bss	00000001 g17
0081155c g     O .rodata	000000c8 __mprec_tens
00807ee0 g     F .text	00000008 __locale_charset
00815330 g     O .bss	00000001 g76
00815331 g     O .bss	00000001 g31
00810fd4 g     F .text	00000090 alt_icache_flush
00815332 g     O .bss	00000001 g37
00815418 g     O .bss	00000004 __malloc_top_pad
00815333 g     O .bss	00000001 g106b
00813664 g     O .rwdata	00000004 __mb_cur_max
00807ee8 g     F .text	0000000c _localeconv_r
00815334 g     O .bss	00000001 g62
008097ec g     F .text	0000003c __i2b
008078c4 g     F .text	0000049c __sfvwrite_r
0080a1cc g     F .text	00000070 _sbrk_r
00815335 g     O .bss	00000001 g84
00815336 g     O .bss	00000001 g41
00815337 g     O .bss	00000001 _cg119
00815338 g     O .bss	00000001 _cg26
00815339 g     O .bss	00000001 g118
0081533a g     O .bss	00000001 PRE_g40
0080a8d4 g     F .text	00000078 _read_r
00811e5c g     O .rwdata	0000000c __lc_ctype
00813684 g     O .rwdata	00000004 alt_max_fd
0081533b g     O .bss	00000001 PRE_g8
0081533c g     O .bss	00000001 _cg69
0080cb7c g     F .text	00000138 __unpack_d
0080a654 g     F .text	00000110 _fclose_r
0081533d g     O .bss	00000001 PRE_g17
0081533e g     O .bss	00000001 PRE_g94
00807190 g     F .text	00000034 fflush
0081533f g     O .bss	00000001 _cg34
0081541c g     O .bss	00000004 __malloc_max_sbrked_mem
00815340 g     O .bss	00000001 g18
0080d18c g     F .text	000001c0 alt_irq_register
00815341 g     O .bss	00000001 PRE_g81
00815342 g     O .bss	00000001 ASense
0080b968 g     F .text	00000074 __adddf3
00815343 g     O .bss	00000001 g132
00808db0 g     F .text	00000120 __b2d
0080af28 g     F .text	000005b0 __umoddi3
0080d558 g     F .text	000000f0 lseek
00813660 g     O .rwdata	00000004 _global_impure_ptr
00815344 g     O .bss	00000001 g48
00809b68 g     F .text	000005f4 _realloc_r
00815345 g     O .bss	00000001 g118b
008157a0 g       *ABS*	00000000 __bss_end
00815346 g     O .bss	00000001 g126_fix0
008106d4 g     F .text	000000f8 alt_iic_isr_register
0080da88 g     F .text	0000010c alt_tick
00815347 g     O .bss	00000001 _cg95
0080a94c g     F .text	000005dc __udivdi3
00811624 g     O .rodata	00000028 __mprec_bigtens
00809a48 g     F .text	00000120 __s2b
00815348 g     O .bss	00000001 _cg111
00815349 g     O .bss	00000001 g67b
0080c470 g     F .text	00000194 __floatunsidf
0081534a g     O .bss	00000001 g38
0081534b g     O .bss	00000001 g105
00808cd0 g     F .text	00000060 __mcmp
0080f9f8 g     F .text	000000c8 altera_avalon_uart_init
0081534c g     O .bss	00000001 _cg97
008136a0 g     O .rwdata	00000004 __ctype_ptr
0081534d g     O .bss	00000001 g125_e13
008072f8 g     F .text	00000018 __fp_lock_all
0081068c g     F .text	00000048 alt_ic_irq_enabled
0081534e g     O .bss	00000001 _cg21
0081534f g     O .bss	00000001 PRE_g87
00815350 g     O .bss	00000001 _DDDPacemaker_local_URI_start
00815351 g     O .bss	00000001 g75b
00815352 g     O .bss	00000001 g30b
0080d9f0 g     F .text	00000098 alt_alarm_stop
00815428 g     O .bss	00000004 alt_irq_active
00815353 g     O .bss	00000001 g117
00815354 g     O .bss	00000001 _cg20
01008000 g       *ABS*	00000000 __alt_mem_onchip_mem
00815355 g     O .bss	00000001 _cg118
008000ec g     F .exceptions	000000c8 alt_irq_handler
00812270 g     O .rwdata	00000028 alt_dev_null
00815356 g     O .bss	00000001 PRE_g123
00815357 g     O .bss	00000001 _DDDPacemaker_local_LRI_stop
00815358 g     O .bss	00000001 g85b
00815359 g     O .bss	00000001 _cg82
008102b0 g     F .text	00000044 alt_dcache_flush_all
00808b9c g     F .text	00000070 __hi0bits
0080c398 g     F .text	000000d8 __fixdfsi
0081535a g     O .bss	00000001 g64
0081535b g     O .bss	00000001 g21
0081535c g     O .bss	00000001 _DDDPacemaker_local_AR
0081535d g     O .bss	00000001 _cg51
0081535e g     O .bss	00000001 g129_e1
0081535f g     O .bss	00000001 g121_e12
00815360 g     O .bss	00000001 g79
00815361 g     O .bss	00000001 g34
008136a4 g       *ABS*	00000000 __ram_rwdata_end
00815362 g     O .bss	00000001 g5
0081367c g     O .rwdata	00000008 alt_dev_list
00815363 g     O .bss	00000001 g94
00815364 g     O .bss	00000001 g110
00815365 g     O .bss	00000001 g49
0080db94 g     F .text	00000120 write
00815366 g     O .bss	00000001 g2
00815367 g     O .bss	00000001 g7
00815368 g     O .bss	00000001 _cg53
00815369 g     O .bss	00000001 _cg90
00811a5c g       *ABS*	00000000 __ram_rodata_end
0080d058 g     F .text	000000d4 fstat
0081536a g     O .bss	00000001 g80
0081536b g     O .bss	00000001 PRE_g25
00809928 g     F .text	00000120 __pow5mult
0081540c g     O .bss	00000004 __nlocale_changed
0080c748 g     F .text	00000008 __umodsi3
0081536c g     O .bss	00000001 g128
008157a0 g       *ABS*	00000000 end
0081536d g     O .bss	00000001 g100
0080f094 g     F .text	0000050c altera_avalon_lcd_16207_write
0081536e g     O .bss	00000001 g59
0081536f g     O .bss	00000001 g54
00815370 g     O .bss	00000001 g99
00810088 g     F .text	000001c8 altera_avalon_uart_write
00815371 g     O .bss	00000001 g23
00815372 g     O .bss	00000001 g66
0080df5c g     F .text	000000c0 altera_avalon_jtag_uart_init
0081146c g       *ABS*	00000000 __CTOR_LIST__
01000000 g       *ABS*	00000000 __alt_stack_pointer
0080f870 g     F .text	00000090 alt_avalon_timer_sc_init
0080f958 g     F .text	00000058 altera_avalon_uart_write_fd
0080c7e8 g     F .text	00000080 __clzsi2
0080f9b0 g     F .text	00000048 altera_avalon_uart_close_fd
0080e680 g     F .text	00000240 altera_avalon_jtag_uart_write
00815373 g     O .bss	00000001 _DDDPacemaker_local_PVARP_ex
0080721c g     F .text	00000004 __sfp_lock_acquire
00808878 g     F .text	000000e4 memchr
00815374 g     O .bss	00000001 g14
008037bc g     F .text	00001eac ___vfprintf_internal_r
00815375 g     O .bss	00000001 PRE_g84
008075b0 g     F .text	00000314 _free_r
00815376 g     O .bss	00000001 g9b
0081125c g     F .text	000001b0 __call_exitprocs
00815377 g     O .bss	00000001 g101
00815410 g     O .bss	00000004 __mlocale_changed
00813670 g     O .rwdata	00000004 __malloc_sbrk_base
008001b4 g     F .text	0000004c _start
00815378 g     O .bss	00000001 g114
00815438 g     O .bss	00000004 _alt_tick_rate
00815379 g     O .bss	00000001 g56
0081537a g     O .bss	00000001 g129
0081537b g     O .bss	00000001 g131
008094b8 g     F .text	0000014c __lshift
0081537c g     O .bss	00000001 VSense
0081543c g     O .bss	00000004 _alt_nticks
0081537d g     O .bss	00000001 PRE_g6
0080d754 g     F .text	00000120 read
0080dd48 g     F .text	00000094 alt_sys_init
0081537e g     O .bss	00000001 g78
0081537f g     O .bss	00000001 g33
00811124 g     F .text	00000134 __register_exitproc
00815380 g     O .bss	00000001 g126_fix1
00815381 g     O .bss	00000001 g126_fix3
00815382 g     O .bss	00000001 g109b
00815383 g     O .bss	00000001 g113_e11
00815384 g     O .bss	00000001 _DDDPacemaker_local_URI_stop
00815385 g     O .bss	00000001 g122
00809604 g     F .text	000001e8 __multiply
00815386 g     O .bss	00000001 PRE_g96
0080e2f4 g     F .text	00000074 altera_avalon_jtag_uart_close
00811a5c g       *ABS*	00000000 __ram_rwdata_start
00811470 g       *ABS*	00000000 __ram_rodata_start
008154e8 g     O .bss	00000028 __malloc_current_mallinfo
008091b0 g     F .text	0000017c __d2b
00815387 g     O .bss	00000001 _cg64
00815388 g     O .bss	00000001 g103b
00815389 g     O .bss	00000001 g129_e1_fix
0081538a g     O .bss	00000001 g134
0081538b g     O .bss	00000001 g116b
0080de14 g     F .text	00000058 altera_avalon_jtag_uart_read_fd
0081538c g     O .bss	00000001 g35
00810f1c g     F .text	000000b8 alt_get_fd
0081538d g     O .bss	00000001 _cg71
00810c1c g     F .text	0000014c alt_busy_sleep
0080ccb4 g     F .text	000000c8 __fpcmp_parts_d
00800268 g     F .text	0000007c button_isr_function
0081538e g     O .bss	00000001 g36_e3
0081538f g     O .bss	00000001 g15
0080a5e4 g     F .text	00000070 _close_r
00815390 g     O .bss	00000001 g90
00815391 g     O .bss	00000001 g133_e2
00815392 g     O .bss	00000001 _GO
008110b0 g     F .text	00000074 memcmp
0080dec4 g     F .text	00000048 altera_avalon_jtag_uart_close_fd
00815393 g     O .bss	00000001 PRE_g11
008157a0 g       *ABS*	00000000 __alt_stack_base
0080df0c g     F .text	00000050 altera_avalon_jtag_uart_ioctl_fd
00815394 g     O .bss	00000001 g92_e9
0080568c g     F .text	0000013c __swsetup_r
00815395 g     O .bss	00000001 g43_e4
00800738 g     F .text	00002fb4 tick
0080bda0 g     F .text	00000258 __divdf3
00807394 g     F .text	000000f0 __sfp
00815396 g     O .bss	00000001 g63
00815397 g     O .bss	00000001 g20
00809014 g     F .text	00000058 __copybits
00815398 g     O .bss	00000001 g60
00811e68 g     O .rwdata	00000408 __malloc_av_
00807228 g     F .text	00000004 __sinit_lock_release
0080b9dc g     F .text	000003c4 __muldf3
00815399 g     O .bss	00000001 PRE_g19
0080a328 g     F .text	00000060 __sread
0081539a g     O .bss	00000001 _DDDPacemaker_local_PVARP_stop
00810dfc g     F .text	00000120 alt_find_file
0081539b g     O .bss	00000001 g93
008102f4 g     F .text	000000b4 alt_dev_llist_insert
0080d714 g     F .text	00000020 __malloc_lock
0080d934 g     F .text	000000bc sbrk
0081539c g     O .bss	00000001 g119
00806f94 g     F .text	000001fc _fflush_r
0080a530 g     F .text	000000b4 _calloc_r
0081539d g     O .bss	00000001 g129_e1_fix_fix
008152ec g       *ABS*	00000000 __bss_start
0081539e g     O .bss	00000001 g43
0081539f g     O .bss	00000001 g86
008153a0 g     O .bss	00000001 PRE_g131
008153a1 g     O .bss	00000001 _DDDPacemaker_local_PVARP_start
00808adc g     F .text	00000098 memset
008002e4 g     F .text	000003b4 main
00815434 g     O .bss	00000004 alt_envp
00815420 g     O .bss	00000004 __malloc_max_total_mem
0080de6c g     F .text	00000058 altera_avalon_jtag_uart_write_fd
008153a2 g     O .bss	00000001 g36
0080f66c g     F .text	0000013c altera_avalon_lcd_16207_init
008153a3 g     O .bss	00000001 g89
008153a4 g     O .bss	00000001 g46
0080a23c g     F .text	00000008 __sclose
01000000 g       *ABS*	00000000 __alt_heap_limit
0080a764 g     F .text	00000014 fclose
00815610 g     O .bss	00000190 _atexit0
008153a5 g     O .bss	00000001 _cg106
008059e0 g     F .text	000015b4 _dtoa_r
00808138 g     F .text	00000740 _malloc_r
008153a6 g     O .bss	00000001 g57b
00813688 g     O .rwdata	00000004 alt_errno
00807e28 g     F .text	000000b8 _fwalk
008153a7 g     O .bss	00000001 g95
008153a8 g     O .bss	00000001 g50
008153a9 g     O .bss	00000001 g96
008153aa g     O .bss	00000001 g51
0080c680 g     F .text	00000060 __divsi3
00811680 g     O .rodata	00000014 __thenan_df
00807484 g     F .text	0000012c _malloc_trim_r
00811470 g       *ABS*	00000000 __CTOR_END__
008153ab g     O .bss	00000001 AEI_TO
0080a388 g     F .text	000000bc strcmp
008153ac g     O .bss	00000001 g107
008153ad g     O .bss	00000001 PRE_g74
00811470 g       *ABS*	00000000 __flash_rodata_start
008153ae g     O .bss	00000001 g113
00811470 g       *ABS*	00000000 __DTOR_LIST__
008153af g     O .bss	00000001 g54_e5
008153b0 g     O .bss	00000001 PRE_g48
0080c080 g     F .text	00000088 __nedf2
008153b1 g     O .bss	00000001 _cg41
0080dd14 g     F .text	00000034 alt_irq_init
0080d8d4 g     F .text	00000060 alt_release_fd
008153b2 g     O .bss	00000001 g104
008153b3 g     O .bss	00000001 g13
00811694 g     O .rodata	00000100 __clz_tab
00815414 g     O .bss	00000004 _PathLocale
008153b4 g     O .bss	00000001 PRE_g115
008153b5 g     O .bss	00000001 g53
008153b6 g     O .bss	00000001 g98
008153b7 g     O .bss	00000001 g8
008153b8 g     O .bss	00000001 g57
00811064 g     F .text	00000014 atexit
0080a4b8 g     F .text	00000078 _write_r
008153b9 g     O .bss	00000001 g70
00807f88 g     F .text	0000001c setlocale
00800238 g     F .text	00000030 led_off_isr_function
008153ba g     O .bss	00000001 g116
0081365c g     O .rwdata	00000004 _impure_ptr
0081542c g     O .bss	00000004 alt_argc
008153bb g     O .bss	00000001 g6
008153bc g     O .bss	00000001 _DDDPacemaker_local_URI_ex
0081046c g     F .text	00000064 _do_dtors
008153bd g     O .bss	00000001 g82b
008153be g     O .bss	00000001 g72
008153bf g     O .bss	00000001 _DDDPacemaker_local_VRP_ex
008153c0 g     O .bss	00000001 g81
00800020 g       .exceptions	00000000 alt_irq_entry
008153c1 g     O .bss	00000001 PRE_g76
008153c2 g     O .bss	00000001 g18b
00808d30 g     F .text	00000080 __ulp
0080a15c g     F .text	00000040 __isinfd
008072e0 g     F .text	00000018 __fp_unlock_all
008153c3 g     O .bss	00000001 g124
0080f7a8 g     F .text	00000058 altera_avalon_lcd_16207_write_fd
008153c4 g     O .bss	00000001 _cg13
008153c5 g     O .bss	00000001 _cg9
00813674 g     O .rwdata	00000008 alt_fs_list
008153c6 g     O .bss	00000001 g0
008153c7 g     O .bss	00000001 g75
008153c8 g     O .bss	00000001 g30
00800020 g       *ABS*	00000000 __ram_exceptions_start
008153c9 g     O .bss	00000001 PRE_g58
00807ef4 g     F .text	00000010 localeconv
008153ca g     O .bss	00000001 g79_e8
008153cb g     O .bss	00000001 PRE_g66
008153cc g     O .bss	00000001 _cg30
008153cd g     O .bss	00000001 _DDDPacemaker_local_VRP_start
008153ce g     O .bss	00000001 g16
008153cf g     O .bss	00000001 g61_e6
00810500 g     F .text	00000050 alt_ic_isr_register
008153d0 g     O .bss	00000001 g58
008153d1 g     O .bss	00000001 _cg77
008153d2 g     O .bss	00000001 _cg57
008153d3 g     O .bss	00000001 g68
008153d4 g     O .bss	00000001 g25
008136a4 g       *ABS*	00000000 _edata
0080f900 g     F .text	00000058 altera_avalon_uart_read_fd
008153d5 g     O .bss	00000001 _DDDPacemaker_local_AEI_stop
008157a0 g       *ABS*	00000000 _end
008153d6 g     O .bss	00000001 g11
008001b4 g       *ABS*	00000000 __ram_exceptions_end
0080e368 g     F .text	000000f4 altera_avalon_jtag_uart_ioctl
008153d7 g     O .bss	00000001 g65
008153d8 g     O .bss	00000001 g22
008153d9 g     O .bss	00000001 g28
008153da g     O .bss	00000001 g73
008105ec g     F .text	000000a0 alt_ic_irq_disable
008153db g     O .bss	00000001 g15_e1
0080a2ac g     F .text	0000007c __swrite
0081366c g     O .rwdata	00000004 __malloc_trim_threshold
00810bfc g     F .text	00000020 altera_nios2_qsys_irq_init
008153dc g     O .bss	00000001 _DDDPacemaker_local_VR
00811078 g     F .text	00000038 exit
008153dd g     O .bss	00000001 g125
00807d60 g     F .text	000000c8 _fwalk_reent
0080932c g     F .text	0000018c __mdiff
008153de g     O .bss	00000001 g77
008153df g     O .bss	00000001 g32
0080c6e0 g     F .text	00000060 __modsi3
008153e0 g     O .bss	00000001 PVARP_TO
008153e1 g     O .bss	00000001 g20b
008153e2 g     O .bss	00000001 g88
008153e3 g     O .bss	00000001 g45
01000000 g       *ABS*	00000000 __alt_data_end
00800020 g     F .exceptions	00000000 alt_exception
00807220 g     F .text	00000004 __sfp_lock_release
008153e4 g     O .bss	00000001 _cg103
008153e5 g     O .bss	00000001 _cg18
008153e6 g     O .bss	00000001 PRE_g45
008153e7 g     O .bss	00000001 g130
008117d8 g     O .rodata	00000101 _ctype_
00800200 g     F .text	00000038 timer_isr_function
008153e8 g     O .bss	00000001 g49b
0080fd98 g     F .text	00000060 altera_avalon_uart_close
008153e9 g     O .bss	00000001 _DDDPacemaker_local_LRI_start
0081144c g     F .text	00000020 _exit
0080a19c g     F .text	00000030 __isnand
0080cd7c g     F .text	00000154 alt_alarm_start
008153ea g     O .bss	00000001 g121
0080c750 g     F .text	00000098 __muldi3
008153eb g     O .bss	00000001 _cg109
00807fa4 g     F .text	00000194 __smakebuf_r
008153ec g     O .bss	00000001 VPace
008153ed g     O .bss	00000001 g12b
0080a444 g     F .text	00000074 strlen
008153ee g     O .bss	00000001 g39
008109e4 g     F .text	00000188 open
0080c190 g     F .text	00000088 __gedf2
008153ef g     O .bss	00000001 _cg88
008153f0 g     O .bss	00000001 _cg49
008153f1 g     O .bss	00000001 g120
008153f2 g     O .bss	00000001 PRE_g108
008153f3 g     O .bss	00000001 PRE_g105
008104d0 g     F .text	00000030 alt_icache_flush_all
008153f4 g     O .bss	00000001 g29
008153f5 g     O .bss	00000001 g67
008153f6 g     O .bss	00000001 g24
008153f7 g     O .bss	00000001 _cg4
008153f8 g     O .bss	00000001 URI_TO
008153f9 g     O .bss	00000001 g133
0081368c g     O .rwdata	00000004 alt_priority_mask
008153fa g     O .bss	00000001 g109
008153fb g     O .bss	00000001 g100_e10
008153fc g     O .bss	00000001 _cg32
00810550 g     F .text	0000009c alt_ic_irq_enable
008153fd g     O .bss	00000001 _DDDPacemaker_local_AEI_start
00805668 g     F .text	00000024 __vfprintf_internal
0080fdf8 g     F .text	00000230 altera_avalon_uart_read
008153fe g     O .bss	00000001 g4b
0080b8e8 g     F .text	00000080 __subdf3
008153ff g     O .bss	00000001 _cg67
00815400 g     O .bss	00000001 g106
00808c0c g     F .text	000000c4 __lo0bits
00815401 g     O .bss	00000001 g10
00813694 g     O .rwdata	00000008 alt_alarm_list
00810408 g     F .text	00000064 _do_ctors
00815402 g     O .bss	00000001 PRE_g117
00815403 g     O .bss	00000001 g69
00815404 g     O .bss	00000001 g26
0080ced0 g     F .text	000000fc close
00815405 g     O .bss	00000001 g23_e2
0080d46c g     F .text	00000080 alt_load
00815406 g     O .bss	00000001 _cg39
0080c868 g     F .text	00000314 __pack_d
00000000  w      *UND*	00000000 free
00807224 g     F .text	00000004 __sinit_lock_acquire
00815407 g     O .bss	00000001 _DDDPacemaker_local_AVI_stop
00809828 g     F .text	00000100 __multadd
00808b74 g     F .text	00000028 _Bfree
00815408 g     O .bss	00000001 g74
00815409 g     O .bss	00000001 _DDDPacemaker_local_idleURI



Disassembly of section .entry:

00800000 <__reset>:
#if NIOS2_ICACHE_SIZE > 0 && defined(ALT_ALLOW_CODE_AT_RESET) && !defined(ALT_SIM_OPTIMIZE)
    /* Assume the instruction cache size is always a power of two. */
#if NIOS2_ICACHE_SIZE > 0x8000
    movhi r2, %hi(NIOS2_ICACHE_SIZE)
#else
    movui r2, NIOS2_ICACHE_SIZE
  800000:	00840014 	movui	r2,4096
#endif

0:
    initi r2
  800004:	1001483a 	initi	r2
    addi r2, r2, -NIOS2_ICACHE_LINE_SIZE
  800008:	10bff804 	addi	r2,r2,-32
    bgt r2, zero, 0b
  80000c:	00bffd16 	blt	zero,r2,800004 <__reset+0x4>
 * Jump to the _start entry point in the .text section if reset code
 * is allowed or if optimizing for RTL simulation.
 */
#if defined(ALT_ALLOW_CODE_AT_RESET) || defined(ALT_SIM_OPTIMIZE)
    /* Jump to the _start entry point in the .text section. */
    movhi r1, %hi(_start)
  800010:	00402034 	movhi	at,128
    ori r1, r1, %lo(_start)
  800014:	08406d14 	ori	at,at,436
    jmp r1
  800018:	0800683a 	jmp	at
  80001c:	00000000 	call	0 <__reset-0x800000>

Disassembly of section .exceptions:

00800020 <alt_exception>:
         * Process an exception.  For all exceptions we must preserve all
         * caller saved registers on the stack (See the Nios2 ABI
         * documentation for details).
         */

        addi  sp, sp, -76
  800020:	deffed04 	addi	sp,sp,-76

#endif

#endif

        stw   ra,  0(sp)
  800024:	dfc00015 	stw	ra,0(sp)
        /*
         * Leave a gap in the stack frame at 4(sp) for the muldiv handler to
         * store zero into.
         */

        stw   r1,   8(sp)
  800028:	d8400215 	stw	at,8(sp)
        stw   r2,  12(sp)
  80002c:	d8800315 	stw	r2,12(sp)
        stw   r3,  16(sp)
  800030:	d8c00415 	stw	r3,16(sp)
        stw   r4,  20(sp)
  800034:	d9000515 	stw	r4,20(sp)
        stw   r5,  24(sp)
  800038:	d9400615 	stw	r5,24(sp)
        stw   r6,  28(sp)
  80003c:	d9800715 	stw	r6,28(sp)
        stw   r7,  32(sp)
  800040:	d9c00815 	stw	r7,32(sp)

        rdctl r5, estatus
  800044:	000b307a 	rdctl	r5,estatus

        stw   r8,  36(sp)
  800048:	da000915 	stw	r8,36(sp)
        stw   r9,  40(sp)
  80004c:	da400a15 	stw	r9,40(sp)
        stw   r10, 44(sp)
  800050:	da800b15 	stw	r10,44(sp)
        stw   r11, 48(sp)
  800054:	dac00c15 	stw	r11,48(sp)
        stw   r12, 52(sp)
  800058:	db000d15 	stw	r12,52(sp)
        stw   r13, 56(sp)
  80005c:	db400e15 	stw	r13,56(sp)
        stw   r14, 60(sp)
  800060:	db800f15 	stw	r14,60(sp)
        stw   r15, 64(sp)
  800064:	dbc01015 	stw	r15,64(sp)
        /*
         * ea-4 contains the address of the instruction being executed
         * when the exception occured. For interrupt exceptions, we will
         * will be re-issue the isntruction. Store it in 72(sp)
         */
        stw   r5,  68(sp)  /* estatus */
  800068:	d9401115 	stw	r5,68(sp)
        addi  r15, ea, -4  /* instruction that caused exception */
  80006c:	ebffff04 	addi	r15,ea,-4
        stw   r15,  72(sp)
  800070:	dbc01215 	stw	r15,72(sp)
#else
        /*
         * Test to see if the exception was a software exception or caused 
         * by an external interrupt, and vector accordingly.
         */
        rdctl r4, ipending
  800074:	0009313a 	rdctl	r4,ipending
        andi  r2, r5, 1
  800078:	2880004c 	andi	r2,r5,1
        beq   r2, zero, .Lnot_irq
  80007c:	10000326 	beq	r2,zero,80008c <alt_exception+0x6c>
        beq   r4, zero, .Lnot_irq
  800080:	20000226 	beq	r4,zero,80008c <alt_exception+0x6c>
        /*
         * Now that all necessary registers have been preserved, call 
         * alt_irq_handler() to process the interrupts.
         */

        call alt_irq_handler
  800084:	08000ec0 	call	8000ec <alt_irq_handler>

        .section .exceptions.irqreturn, "xa"

        br    .Lexception_exit
  800088:	00000306 	br	800098 <alt_exception+0x78>
         * upon completion, so we write ea (address of instruction *after*
         * the one where the exception occured) into 72(sp). The actual
         * instruction that caused the exception is written in r2, which these
         * handlers will utilize.
         */
        stw   ea,  72(sp)  /* Don't re-issue */
  80008c:	df401215 	stw	ea,72(sp)
        ldw   r2, -4(ea)   /* Instruction that caused exception */
  800090:	e8bfff17 	ldw	r2,-4(ea)
#ifdef NIOS2_HAS_DEBUG_STUB
       /*
        *  Either tell the user now (if there is a debugger attached) or go into
        *  the debug monitor which will loop until a debugger is attached.
        */
        break
  800094:	003da03a 	break	0
        /* 
         * Restore the saved registers, so that all general purpose registers 
         * have been restored to their state at the time the interrupt occured.
         */

        ldw   r5,  68(sp)
  800098:	d9401117 	ldw	r5,68(sp)
        ldw   ea,  72(sp)  /* This becomes the PC once eret is executed */
  80009c:	df401217 	ldw	ea,72(sp)
        ldw   ra,   0(sp)
  8000a0:	dfc00017 	ldw	ra,0(sp)

        wrctl estatus, r5
  8000a4:	2801707a 	wrctl	estatus,r5

        ldw   r1,   8(sp)
  8000a8:	d8400217 	ldw	at,8(sp)
        ldw   r2,  12(sp)
  8000ac:	d8800317 	ldw	r2,12(sp)
        ldw   r3,  16(sp)
  8000b0:	d8c00417 	ldw	r3,16(sp)
        ldw   r4,  20(sp)
  8000b4:	d9000517 	ldw	r4,20(sp)
        ldw   r5,  24(sp)
  8000b8:	d9400617 	ldw	r5,24(sp)
        ldw   r6,  28(sp)
  8000bc:	d9800717 	ldw	r6,28(sp)
        ldw   r7,  32(sp)
  8000c0:	d9c00817 	ldw	r7,32(sp)
#ifdef ALT_STACK_CHECK
        ldw   et, %gprel(alt_exception_old_stack_limit)(gp)
#endif
#endif

        ldw   r8,  36(sp)
  8000c4:	da000917 	ldw	r8,36(sp)
        ldw   r9,  40(sp)
  8000c8:	da400a17 	ldw	r9,40(sp)
        ldw   r10, 44(sp)
  8000cc:	da800b17 	ldw	r10,44(sp)
        ldw   r11, 48(sp)
  8000d0:	dac00c17 	ldw	r11,48(sp)
        ldw   r12, 52(sp)
  8000d4:	db000d17 	ldw	r12,52(sp)
        ldw   r13, 56(sp)
  8000d8:	db400e17 	ldw	r13,56(sp)
        ldw   r14, 60(sp)
  8000dc:	db800f17 	ldw	r14,60(sp)
        ldw   r15, 64(sp)
  8000e0:	dbc01017 	ldw	r15,64(sp)
#endif

        ldw   sp,  76(sp)

#else
        addi  sp, sp, 76
  8000e4:	dec01304 	addi	sp,sp,76

        /*
         * Return to the interrupted instruction.
         */

        eret
  8000e8:	ef80083a 	eret

008000ec <alt_irq_handler>:
 * instruction is present if the macro ALT_CI_INTERRUPT_VECTOR defined.
 */

void alt_irq_handler (void) __attribute__ ((section (".exceptions")));
void alt_irq_handler (void)
{
  8000ec:	defff904 	addi	sp,sp,-28
  8000f0:	dfc00615 	stw	ra,24(sp)
  8000f4:	df000515 	stw	fp,20(sp)
  8000f8:	df000504 	addi	fp,sp,20
#ifndef NIOS2_EIC_PRESENT
static ALT_INLINE alt_u32 ALT_ALWAYS_INLINE alt_irq_pending (void)
{
  alt_u32 active;

  NIOS2_READ_IPENDING (active);
  8000fc:	0005313a 	rdctl	r2,ipending
  800100:	e0bffc15 	stw	r2,-16(fp)

  return active;
  800104:	e0bffc17 	ldw	r2,-16(fp)
   * Consider the case where the high priority interupt is asserted during
   * the interrupt entry sequence for a lower priority interrupt to see why
   * this is the case.
   */

  active = alt_irq_pending ();
  800108:	e0bfff15 	stw	r2,-4(fp)

  do
  {
    i = 0;
  80010c:	e03ffd15 	stw	zero,-12(fp)
    mask = 1;
  800110:	00800044 	movi	r2,1
  800114:	e0bffe15 	stw	r2,-8(fp)
     * called to clear the interrupt condition.
     */

    do
    {
      if (active & mask)
  800118:	e0ffff17 	ldw	r3,-4(fp)
  80011c:	e0bffe17 	ldw	r2,-8(fp)
  800120:	1884703a 	and	r2,r3,r2
  800124:	1005003a 	cmpeq	r2,r2,zero
  800128:	1000161e 	bne	r2,zero,800184 <alt_irq_handler+0x98>
      { 
#ifdef ALT_ENHANCED_INTERRUPT_API_PRESENT
        alt_irq[i].handler(alt_irq[i].context); 
  80012c:	e0bffd17 	ldw	r2,-12(fp)
  800130:	00c02074 	movhi	r3,129
  800134:	18d54404 	addi	r3,r3,21776
  800138:	100490fa 	slli	r2,r2,3
  80013c:	10c5883a 	add	r2,r2,r3
  800140:	11400017 	ldw	r5,0(r2)
  800144:	e0bffd17 	ldw	r2,-12(fp)
  800148:	00c02074 	movhi	r3,129
  80014c:	18d54404 	addi	r3,r3,21776
  800150:	100490fa 	slli	r2,r2,3
  800154:	10c5883a 	add	r2,r2,r3
  800158:	10800104 	addi	r2,r2,4
  80015c:	11000017 	ldw	r4,0(r2)
  800160:	283ee83a 	callr	r5
#ifndef NIOS2_EIC_PRESENT
static ALT_INLINE alt_u32 ALT_ALWAYS_INLINE alt_irq_pending (void)
{
  alt_u32 active;

  NIOS2_READ_IPENDING (active);
  800164:	0005313a 	rdctl	r2,ipending
  800168:	e0bffb15 	stw	r2,-20(fp)

  return active;
  80016c:	e0bffb17 	ldw	r2,-20(fp)
      mask <<= 1;
      i++;

    } while (1);

    active = alt_irq_pending ();
  800170:	e0bfff15 	stw	r2,-4(fp)
    
  } while (active);
  800174:	e0bfff17 	ldw	r2,-4(fp)
  800178:	1004c03a 	cmpne	r2,r2,zero
  80017c:	103fe31e 	bne	r2,zero,80010c <alt_irq_handler+0x20>
  800180:	00000706 	br	8001a0 <alt_irq_handler+0xb4>
#else
        alt_irq[i].handler(alt_irq[i].context, i); 
#endif
        break;
      }
      mask <<= 1;
  800184:	e0bffe17 	ldw	r2,-8(fp)
  800188:	1085883a 	add	r2,r2,r2
  80018c:	e0bffe15 	stw	r2,-8(fp)
      i++;
  800190:	e0bffd17 	ldw	r2,-12(fp)
  800194:	10800044 	addi	r2,r2,1
  800198:	e0bffd15 	stw	r2,-12(fp)

    } while (1);
  80019c:	003fde06 	br	800118 <alt_irq_handler+0x2c>
  /*
   * Notify the operating system that interrupt processing is complete.
   */ 

  ALT_OS_INT_EXIT();
}
  8001a0:	e037883a 	mov	sp,fp
  8001a4:	dfc00117 	ldw	ra,4(sp)
  8001a8:	df000017 	ldw	fp,0(sp)
  8001ac:	dec00204 	addi	sp,sp,8
  8001b0:	f800283a 	ret

Disassembly of section .text:

008001b4 <_start>:

    /* Assume the data cache size is always a power of two. */
#if NIOS2_DCACHE_SIZE > 0x8000
    movhi r2, %hi(NIOS2_DCACHE_SIZE)
#else
    movui r2, NIOS2_DCACHE_SIZE
  8001b4:	00820014 	movui	r2,2048
#endif

0:
    initd 0(r2)
  8001b8:	10000033 	initd	0(r2)
    addi r2, r2, -NIOS2_DCACHE_LINE_SIZE
  8001bc:	10bff804 	addi	r2,r2,-32
    bgt r2, zero, 0b
  8001c0:	00bffd16 	blt	zero,r2,8001b8 <_start+0x4>
#if (NIOS2_NUM_OF_SHADOW_REG_SETS == 0)    
    /*
     * Now that the caches are initialized, set up the stack pointer.
     * The value provided by the linker is assumed to be correctly aligned.
     */
    movhi sp, %hi(__alt_stack_pointer)
  8001c4:	06c04034 	movhi	sp,256
    ori sp, sp, %lo(__alt_stack_pointer)
  8001c8:	dec00014 	ori	sp,sp,0

    /* Set up the global pointer. */
    movhi gp, %hi(_gp)
  8001cc:	06802074 	movhi	gp,129
    ori gp, gp, %lo(_gp)
  8001d0:	d6ad9714 	ori	gp,gp,46684
 */
#ifndef ALT_SIM_OPTIMIZE
    /* Log that the BSS is about to be cleared. */
    ALT_LOG_PUTS(alt_log_msg_bss)

    movhi r2, %hi(__bss_start)
  8001d4:	00802074 	movhi	r2,129
    ori r2, r2, %lo(__bss_start)
  8001d8:	1094bb14 	ori	r2,r2,21228

    movhi r3, %hi(__bss_end)
  8001dc:	00c02074 	movhi	r3,129
    ori r3, r3, %lo(__bss_end)
  8001e0:	18d5e814 	ori	r3,r3,22432

    beq r2, r3, 1f
  8001e4:	10c00326 	beq	r2,r3,8001f4 <_start+0x40>

0:
    stw zero, (r2)
  8001e8:	10000015 	stw	zero,0(r2)
    addi r2, r2, 4
  8001ec:	10800104 	addi	r2,r2,4
    bltu r2, r3, 0b
  8001f0:	10fffd36 	bltu	r2,r3,8001e8 <_start+0x34>
     * section aren't defined until alt_load() has been called).
     */
    mov   et, zero
#endif

    call alt_load
  8001f4:	080d46c0 	call	80d46c <alt_load>

    /* Log that alt_main is about to be called. */
    ALT_LOG_PUTS(alt_log_msg_alt_main)

    /* Call the C entry point. It should never return. */
    call alt_main
  8001f8:	080d6a80 	call	80d6a8 <alt_main>

008001fc <alt_after_alt_main>:

    /* Wait in infinite loop in case alt_main does return. */
alt_after_alt_main:
    br alt_after_alt_main
  8001fc:	003fff06 	br	8001fc <alt_after_alt_main>

00800200 <timer_isr_function>:
#include <sys/alt_irq.h>
#include <io.h>
#include "sys/alt_alarm.h"
#include "timeouts.h"

alt_u32 timer_isr_function(void *context) {
  800200:	defffd04 	addi	sp,sp,-12
  800204:	df000215 	stw	fp,8(sp)
  800208:	df000204 	addi	fp,sp,8
  80020c:	e13fff15 	stw	r4,-4(fp)
	char *signal = (char*)context;
  800210:	e0bfff17 	ldw	r2,-4(fp)
  800214:	e0bffe15 	stw	r2,-8(fp)
	*signal = 1;
  800218:	e0fffe17 	ldw	r3,-8(fp)
  80021c:	00800044 	movi	r2,1
  800220:	18800005 	stb	r2,0(r3)
	return 0;
  800224:	0005883a 	mov	r2,zero
}
  800228:	e037883a 	mov	sp,fp
  80022c:	df000017 	ldw	fp,0(sp)
  800230:	dec00104 	addi	sp,sp,4
  800234:	f800283a 	ret

00800238 <led_off_isr_function>:

alt_u32 led_off_isr_function(void *context) {
  800238:	defffe04 	addi	sp,sp,-8
  80023c:	df000115 	stw	fp,4(sp)
  800240:	df000104 	addi	fp,sp,4
  800244:	e13fff15 	stw	r4,-4(fp)
	IOWR_ALTERA_AVALON_PIO_DATA(LEDS_GREEN_BASE, 0);
  800248:	00804074 	movhi	r2,257
  80024c:	10841804 	addi	r2,r2,4192
  800250:	10000035 	stwio	zero,0(r2)
	return 0;
  800254:	0005883a 	mov	r2,zero
}
  800258:	e037883a 	mov	sp,fp
  80025c:	df000017 	ldw	fp,0(sp)
  800260:	dec00104 	addi	sp,sp,4
  800264:	f800283a 	ret

00800268 <button_isr_function>:

void button_isr_function(void *context, alt_u32 id) {
  800268:	defffc04 	addi	sp,sp,-16
  80026c:	df000315 	stw	fp,12(sp)
  800270:	df000304 	addi	fp,sp,12
  800274:	e13ffe15 	stw	r4,-8(fp)
  800278:	e17fff15 	stw	r5,-4(fp)
	//int *buttonState = (int*)context;

	//Store button state in context
	//*buttonState = IORD_ALTERA_AVALON_PIO_EDGE_CAP(BUTTONS_BASE);
	int temp = IORD_ALTERA_AVALON_PIO_EDGE_CAP(BUTTONS_BASE);
  80027c:	00804074 	movhi	r2,257
  800280:	10842b04 	addi	r2,r2,4268
  800284:	10800037 	ldwio	r2,0(r2)
  800288:	e0bffd15 	stw	r2,-12(fp)
	IOWR_ALTERA_AVALON_PIO_EDGE_CAP(BUTTONS_BASE, 0);
  80028c:	00804074 	movhi	r2,257
  800290:	10842b04 	addi	r2,r2,4268
  800294:	10000035 	stwio	zero,0(r2)
//			VSense = 0;
//			ASense = 0;
//		}
//	}

	if (temp == 1) { // key0 pressed
  800298:	e0bffd17 	ldw	r2,-12(fp)
  80029c:	10800058 	cmpnei	r2,r2,1
  8002a0:	1000051e 	bne	r2,zero,8002b8 <button_isr_function+0x50>
		VSense = 1;
  8002a4:	00c02074 	movhi	r3,129
  8002a8:	18d4df04 	addi	r3,r3,21372
  8002ac:	00800044 	movi	r2,1
  8002b0:	18800005 	stb	r2,0(r3)
  8002b4:	00000706 	br	8002d4 <button_isr_function+0x6c>

		//IOWR_ALTERA_AVALON_PIO_DATA(LEDS_GREEN_BASE, 1);
	}
	else if (temp == 2) { // key1 pressed
  8002b8:	e0bffd17 	ldw	r2,-12(fp)
  8002bc:	10800098 	cmpnei	r2,r2,2
  8002c0:	1000041e 	bne	r2,zero,8002d4 <button_isr_function+0x6c>
		ASense = 1;
  8002c4:	00c02074 	movhi	r3,129
  8002c8:	18d4d084 	addi	r3,r3,21314
  8002cc:	00800044 	movi	r2,1
  8002d0:	18800005 	stb	r2,0(r3)
	}




}
  8002d4:	e037883a 	mov	sp,fp
  8002d8:	df000017 	ldw	fp,0(sp)
  8002dc:	dec00104 	addi	sp,sp,4
  8002e0:	f800283a 	ret

008002e4 <main>:

int main(void) {
  8002e4:	defff104 	addi	sp,sp,-60
  8002e8:	dfc00e15 	stw	ra,56(sp)
  8002ec:	df000d15 	stw	fp,52(sp)
  8002f0:	df000d04 	addi	fp,sp,52
	//Initialisation here

	//IO Signals
	int mode = 0;
  8002f4:	e03fff15 	stw	zero,-4(fp)
	int switchState = 0;
  8002f8:	e03ffe15 	stw	zero,-8(fp)

	//Mode 1 button context
	int *buttonState;
	void *buttonContext = (void*)buttonState;
  8002fc:	e0bffd17 	ldw	r2,-12(fp)
  800300:	e0bffc15 	stw	r2,-16(fp)
	//Bitwise processing
	int i;
	int mask;

	//Timer contexts
	void *lri_context = &LRI_TO;
  800304:	00802074 	movhi	r2,129
  800308:	1094cb04 	addi	r2,r2,21292
  80030c:	e0bff915 	stw	r2,-28(fp)
	void *uri_context = &URI_TO;
  800310:	00802074 	movhi	r2,129
  800314:	1094fe04 	addi	r2,r2,21496
  800318:	e0bff815 	stw	r2,-32(fp)
	void *avi_context = &AVI_TO;
  80031c:	00802074 	movhi	r2,129
  800320:	1094bb84 	addi	r2,r2,21230
  800324:	e0bff715 	stw	r2,-36(fp)
	void *aei_context = &AEI_TO;
  800328:	00802074 	movhi	r2,129
  80032c:	1094eac4 	addi	r2,r2,21419
  800330:	e0bff615 	stw	r2,-40(fp)
	void *pvarp_context = &PVARP_TO;
  800334:	00802074 	movhi	r2,129
  800338:	1094f804 	addi	r2,r2,21472
  80033c:	e0bff515 	stw	r2,-44(fp)
	void *vrp_context = &VRP_TO;
  800340:	00802074 	movhi	r2,129
  800344:	1094be04 	addi	r2,r2,21240
  800348:	e0bff415 	stw	r2,-48(fp)
	static alt_alarm aei_timer;
	static alt_alarm pvarp_timer;
	static alt_alarm vrp_timer;

	//Register button isr
	IOWR_ALTERA_AVALON_PIO_EDGE_CAP(BUTTONS_BASE, 0);
  80034c:	00804074 	movhi	r2,257
  800350:	10842b04 	addi	r2,r2,4268
  800354:	10000035 	stwio	zero,0(r2)
	IOWR_ALTERA_AVALON_PIO_IRQ_MASK(BUTTONS_BASE, 0x3);
  800358:	00c04074 	movhi	r3,257
  80035c:	18c42a04 	addi	r3,r3,4264
  800360:	008000c4 	movi	r2,3
  800364:	18800035 	stwio	r2,0(r3)
	alt_irq_register(BUTTONS_IRQ, buttonContext, button_isr_function);
  800368:	01000104 	movi	r4,4
  80036c:	e17ffc17 	ldw	r5,-16(fp)
  800370:	01802034 	movhi	r6,128
  800374:	31809a04 	addi	r6,r6,616
  800378:	080d18c0 	call	80d18c <alt_irq_register>
	IOWR_ALTERA_AVALON_PIO_DATA(LEDS_GREEN_BASE, 0);
  80037c:	00804074 	movhi	r2,257
  800380:	10841804 	addi	r2,r2,4192
  800384:	10000035 	stwio	zero,0(r2)

	//Output binary vector
	int output = 0;
  800388:	e03ff315 	stw	zero,-52(fp)

	reset();
  80038c:	08006980 	call	800698 <reset>
	while(1) {
		//Read IO
		//Check the current mode
		switchState = IORD_ALTERA_AVALON_PIO_DATA(SWITCHES_BASE);
  800390:	00804074 	movhi	r2,257
  800394:	10842404 	addi	r2,r2,4240
  800398:	10800037 	ldwio	r2,0(r2)
  80039c:	e0bffe15 	stw	r2,-8(fp)
		for(i = 0; i < 2; i++) {
  8003a0:	e03ffb15 	stw	zero,-20(fp)
  8003a4:	00000e06 	br	8003e0 <main+0xfc>
			mask = 1 << i;
  8003a8:	00c00044 	movi	r3,1
  8003ac:	e0bffb17 	ldw	r2,-20(fp)
  8003b0:	1884983a 	sll	r2,r3,r2
  8003b4:	e0bffa15 	stw	r2,-24(fp)
			if(switchState & mask) {
  8003b8:	e0fffe17 	ldw	r3,-8(fp)
  8003bc:	e0bffa17 	ldw	r2,-24(fp)
  8003c0:	1884703a 	and	r2,r3,r2
  8003c4:	1005003a 	cmpeq	r2,r2,zero
  8003c8:	1000021e 	bne	r2,zero,8003d4 <main+0xf0>
				mode = i;
  8003cc:	e0bffb17 	ldw	r2,-20(fp)
  8003d0:	e0bfff15 	stw	r2,-4(fp)
	reset();
	while(1) {
		//Read IO
		//Check the current mode
		switchState = IORD_ALTERA_AVALON_PIO_DATA(SWITCHES_BASE);
		for(i = 0; i < 2; i++) {
  8003d4:	e0bffb17 	ldw	r2,-20(fp)
  8003d8:	10800044 	addi	r2,r2,1
  8003dc:	e0bffb15 	stw	r2,-20(fp)
  8003e0:	e0bffb17 	ldw	r2,-20(fp)
  8003e4:	10800090 	cmplti	r2,r2,2
  8003e8:	103fef1e 	bne	r2,zero,8003a8 <main+0xc4>




		//Call tick
		tick();
  8003ec:	08007380 	call	800738 <tick>

		//Process Outputs

		//Check if we need to start timers
		if(_DDDPacemaker_local_LRI_start == 1) {
  8003f0:	00802074 	movhi	r2,129
  8003f4:	1094fa44 	addi	r2,r2,21481
  8003f8:	10800003 	ldbu	r2,0(r2)
  8003fc:	10803fcc 	andi	r2,r2,255
  800400:	1080201c 	xori	r2,r2,128
  800404:	10bfe004 	addi	r2,r2,-128
  800408:	10800058 	cmpnei	r2,r2,1
  80040c:	10000a1e 	bne	r2,zero,800438 <main+0x154>
			//printf("LRI timer started");
			alt_alarm_start(&lri_timer, LRI_VALUE, timer_isr_function, lri_context);
  800410:	01002074 	movhi	r4,129
  800414:	21152e04 	addi	r4,r4,21688
  800418:	0140ed84 	movi	r5,950
  80041c:	01802034 	movhi	r6,128
  800420:	31808004 	addi	r6,r6,512
  800424:	e1fff917 	ldw	r7,-28(fp)
  800428:	080cd7c0 	call	80cd7c <alt_alarm_start>
			_DDDPacemaker_local_LRI_start = 0;
  80042c:	00802074 	movhi	r2,129
  800430:	1094fa44 	addi	r2,r2,21481
  800434:	10000005 	stb	zero,0(r2)
		}
		if(_DDDPacemaker_local_URI_start == 1) {
  800438:	00802074 	movhi	r2,129
  80043c:	1094d404 	addi	r2,r2,21328
  800440:	10800003 	ldbu	r2,0(r2)
  800444:	10803fcc 	andi	r2,r2,255
  800448:	1080201c 	xori	r2,r2,128
  80044c:	10bfe004 	addi	r2,r2,-128
  800450:	10800058 	cmpnei	r2,r2,1
  800454:	10000a1e 	bne	r2,zero,800480 <main+0x19c>
			//printf("URI timer started");
			alt_alarm_start(&uri_timer, URI_VALUE, timer_isr_function, uri_context);
  800458:	01002074 	movhi	r4,129
  80045c:	21152804 	addi	r4,r4,21664
  800460:	0140e104 	movi	r5,900
  800464:	01802034 	movhi	r6,128
  800468:	31808004 	addi	r6,r6,512
  80046c:	e1fff817 	ldw	r7,-32(fp)
  800470:	080cd7c0 	call	80cd7c <alt_alarm_start>
			_DDDPacemaker_local_URI_start = 0;
  800474:	00802074 	movhi	r2,129
  800478:	1094d404 	addi	r2,r2,21328
  80047c:	10000005 	stb	zero,0(r2)
		}
		if(_DDDPacemaker_local_AVI_start == 1) {
  800480:	00802074 	movhi	r2,129
  800484:	1094bf04 	addi	r2,r2,21244
  800488:	10800003 	ldbu	r2,0(r2)
  80048c:	10803fcc 	andi	r2,r2,255
  800490:	1080201c 	xori	r2,r2,128
  800494:	10bfe004 	addi	r2,r2,-128
  800498:	10800058 	cmpnei	r2,r2,1
  80049c:	10000a1e 	bne	r2,zero,8004c8 <main+0x1e4>
			//printf("AVI timer started");
			alt_alarm_start(&avi_timer, AVI_VALUE, timer_isr_function, avi_context);
  8004a0:	01002074 	movhi	r4,129
  8004a4:	21152204 	addi	r4,r4,21640
  8004a8:	01404b04 	movi	r5,300
  8004ac:	01802034 	movhi	r6,128
  8004b0:	31808004 	addi	r6,r6,512
  8004b4:	e1fff717 	ldw	r7,-36(fp)
  8004b8:	080cd7c0 	call	80cd7c <alt_alarm_start>
			_DDDPacemaker_local_AVI_start = 0;
  8004bc:	00802074 	movhi	r2,129
  8004c0:	1094bf04 	addi	r2,r2,21244
  8004c4:	10000005 	stb	zero,0(r2)
		}
		if(_DDDPacemaker_local_AEI_start== 1) {
  8004c8:	00802074 	movhi	r2,129
  8004cc:	1094ff44 	addi	r2,r2,21501
  8004d0:	10800003 	ldbu	r2,0(r2)
  8004d4:	10803fcc 	andi	r2,r2,255
  8004d8:	1080201c 	xori	r2,r2,128
  8004dc:	10bfe004 	addi	r2,r2,-128
  8004e0:	10800058 	cmpnei	r2,r2,1
  8004e4:	10000a1e 	bne	r2,zero,800510 <main+0x22c>
			//printf("AEI timer started");
			alt_alarm_start(&aei_timer, AEI_VALUE, timer_isr_function, aei_context);
  8004e8:	01002074 	movhi	r4,129
  8004ec:	21151c04 	addi	r4,r4,21616
  8004f0:	0140c804 	movi	r5,800
  8004f4:	01802034 	movhi	r6,128
  8004f8:	31808004 	addi	r6,r6,512
  8004fc:	e1fff617 	ldw	r7,-40(fp)
  800500:	080cd7c0 	call	80cd7c <alt_alarm_start>
			_DDDPacemaker_local_AEI_start= 0;
  800504:	00802074 	movhi	r2,129
  800508:	1094ff44 	addi	r2,r2,21501
  80050c:	10000005 	stb	zero,0(r2)
		}
		if(_DDDPacemaker_local_VRP_start == 1) {
  800510:	00802074 	movhi	r2,129
  800514:	1094f344 	addi	r2,r2,21453
  800518:	10800003 	ldbu	r2,0(r2)
  80051c:	10803fcc 	andi	r2,r2,255
  800520:	1080201c 	xori	r2,r2,128
  800524:	10bfe004 	addi	r2,r2,-128
  800528:	10800058 	cmpnei	r2,r2,1
  80052c:	10000a1e 	bne	r2,zero,800558 <main+0x274>
			//printf("VRP timer started");
			alt_alarm_start(&vrp_timer, VRP_VALUE, timer_isr_function, vrp_context);
  800530:	01002074 	movhi	r4,129
  800534:	21151004 	addi	r4,r4,21568
  800538:	01402584 	movi	r5,150
  80053c:	01802034 	movhi	r6,128
  800540:	31808004 	addi	r6,r6,512
  800544:	e1fff417 	ldw	r7,-48(fp)
  800548:	080cd7c0 	call	80cd7c <alt_alarm_start>
			_DDDPacemaker_local_VRP_start = 0;
  80054c:	00802074 	movhi	r2,129
  800550:	1094f344 	addi	r2,r2,21453
  800554:	10000005 	stb	zero,0(r2)
		}
		if(_DDDPacemaker_local_PVARP_start == 1) {
  800558:	00802074 	movhi	r2,129
  80055c:	1094e844 	addi	r2,r2,21409
  800560:	10800003 	ldbu	r2,0(r2)
  800564:	10803fcc 	andi	r2,r2,255
  800568:	1080201c 	xori	r2,r2,128
  80056c:	10bfe004 	addi	r2,r2,-128
  800570:	10800058 	cmpnei	r2,r2,1
  800574:	10000a1e 	bne	r2,zero,8005a0 <main+0x2bc>
			//printf("PVARP timer started");
			alt_alarm_start(&pvarp_timer, PVARP_VALUE, timer_isr_function, pvarp_context);
  800578:	01002074 	movhi	r4,129
  80057c:	21151604 	addi	r4,r4,21592
  800580:	01400c84 	movi	r5,50
  800584:	01802034 	movhi	r6,128
  800588:	31808004 	addi	r6,r6,512
  80058c:	e1fff517 	ldw	r7,-44(fp)
  800590:	080cd7c0 	call	80cd7c <alt_alarm_start>
			_DDDPacemaker_local_PVARP_start = 0;
  800594:	00802074 	movhi	r2,129
  800598:	1094e844 	addi	r2,r2,21409
  80059c:	10000005 	stb	zero,0(r2)
		}
//		printf("LRI:%d, URI:%d, AVI:%d, AEI:%d, VRP:%d, PVARP:%d\n", \
//				_DDDPacemaker_local_LRI_start, _DDDPacemaker_local_URI_start,_DDDPacemaker_local_AVI_start,_DDDPacemaker_local_AEI_start, _DDDPacemaker_local_VRP_start,_DDDPacemaker_local_PVARP_start);

		//Process pace output
		if(VPace) {
  8005a0:	00802074 	movhi	r2,129
  8005a4:	1094fb04 	addi	r2,r2,21484
  8005a8:	10800003 	ldbu	r2,0(r2)
  8005ac:	10803fcc 	andi	r2,r2,255
  8005b0:	1080201c 	xori	r2,r2,128
  8005b4:	10bfe004 	addi	r2,r2,-128
  8005b8:	1005003a 	cmpeq	r2,r2,zero
  8005bc:	1000101e 	bne	r2,zero,800600 <main+0x31c>
			output = 1;
  8005c0:	00800044 	movi	r2,1
  8005c4:	e0bff315 	stw	r2,-52(fp)
			printf("Vpace = 1");
  8005c8:	01002074 	movhi	r4,129
  8005cc:	21051c04 	addi	r4,r4,5232
  8005d0:	08036ec0 	call	8036ec <printf>
			IOWR_ALTERA_AVALON_PIO_DATA(LEDS_GREEN_BASE, 1);
  8005d4:	00c04074 	movhi	r3,257
  8005d8:	18c41804 	addi	r3,r3,4192
  8005dc:	00800044 	movi	r2,1
  8005e0:	18800035 	stwio	r2,0(r3)
			alt_alarm_start(&led_timer, 500, led_off_isr_function, NULL);
  8005e4:	01002074 	movhi	r4,129
  8005e8:	21153404 	addi	r4,r4,21712
  8005ec:	01407d04 	movi	r5,500
  8005f0:	01802034 	movhi	r6,128
  8005f4:	31808e04 	addi	r6,r6,568
  8005f8:	000f883a 	mov	r7,zero
  8005fc:	080cd7c0 	call	80cd7c <alt_alarm_start>
		}
		if(APace) {
  800600:	00802074 	movhi	r2,129
  800604:	1094bc04 	addi	r2,r2,21232
  800608:	10800003 	ldbu	r2,0(r2)
  80060c:	10803fcc 	andi	r2,r2,255
  800610:	1080201c 	xori	r2,r2,128
  800614:	10bfe004 	addi	r2,r2,-128
  800618:	1005003a 	cmpeq	r2,r2,zero
  80061c:	1000101e 	bne	r2,zero,800660 <main+0x37c>
			output = 2;
  800620:	00800084 	movi	r2,2
  800624:	e0bff315 	stw	r2,-52(fp)
			printf("Apace = 1");
  800628:	01002074 	movhi	r4,129
  80062c:	21051f04 	addi	r4,r4,5244
  800630:	08036ec0 	call	8036ec <printf>
			IOWR_ALTERA_AVALON_PIO_DATA(LEDS_GREEN_BASE, 2);
  800634:	00c04074 	movhi	r3,257
  800638:	18c41804 	addi	r3,r3,4192
  80063c:	00800084 	movi	r2,2
  800640:	18800035 	stwio	r2,0(r3)
			alt_alarm_start(&led_timer, 500, led_off_isr_function, NULL);
  800644:	01002074 	movhi	r4,129
  800648:	21153404 	addi	r4,r4,21712
  80064c:	01407d04 	movi	r5,500
  800650:	01802034 	movhi	r6,128
  800654:	31808e04 	addi	r6,r6,568
  800658:	000f883a 	mov	r7,zero
  80065c:	080cd7c0 	call	80cd7c <alt_alarm_start>
//			//IOWR_ALTERA_AVALON_PIO_DATA(LEDS_GREEN_BASE, output);
//			alt_alarm_start(&led_timer, 500, led_off_isr_function, NULL);
//		}

		//Reset IO
		VSense = 0;
  800660:	00802074 	movhi	r2,129
  800664:	1094df04 	addi	r2,r2,21372
  800668:	10000005 	stb	zero,0(r2)
		ASense = 0;
  80066c:	00802074 	movhi	r2,129
  800670:	1094d084 	addi	r2,r2,21314
  800674:	10000005 	stb	zero,0(r2)
		output = 0;
  800678:	e03ff315 	stw	zero,-52(fp)
		VPace = 0;
  80067c:	00802074 	movhi	r2,129
  800680:	1094fb04 	addi	r2,r2,21484
  800684:	10000005 	stb	zero,0(r2)
		APace = 0;
  800688:	00802074 	movhi	r2,129
  80068c:	1094bc04 	addi	r2,r2,21232
  800690:	10000005 	stb	zero,0(r2)

	}
  800694:	003f3e06 	br	800390 <main+0xac>

00800698 <reset>:
char g129_e1_fix_fix;
char g129_e1_fix;
char g129_e1;
char g133_e2;
int _PRE_GO;
void reset(){
  800698:	deffff04 	addi	sp,sp,-4
  80069c:	df000015 	stw	fp,0(sp)
  8006a0:	d839883a 	mov	fp,sp
   _GO = 1;
  8006a4:	00800044 	movi	r2,1
  8006a8:	d0a74d85 	stb	r2,-25290(gp)
   _PRE_GO = 0;
  8006ac:	d0272c15 	stw	zero,-25424(gp)
   PRE_g3 = 0;
  8006b0:	d0272d05 	stb	zero,-25420(gp)
   PRE_g6 = 0;
  8006b4:	d0274845 	stb	zero,-25311(gp)
   PRE_g8 = 0;
  8006b8:	d02737c5 	stb	zero,-25377(gp)
   PRE_g11 = 0;
  8006bc:	d0274dc5 	stb	zero,-25289(gp)
   PRE_g17 = 0;
  8006c0:	d0273845 	stb	zero,-25375(gp)
   PRE_g19 = 0;
  8006c4:	d0274f45 	stb	zero,-25283(gp)
   PRE_g25 = 0;
  8006c8:	d02743c5 	stb	zero,-25329(gp)
   PRE_g29 = 0;
  8006cc:	d0272d85 	stb	zero,-25418(gp)
   PRE_g38 = 0;
  8006d0:	d0272685 	stb	zero,-25446(gp)
   PRE_g40 = 0;
  8006d4:	d0273785 	stb	zero,-25378(gp)
   PRE_g45 = 0;
  8006d8:	d0276285 	stb	zero,-25206(gp)
   PRE_g48 = 0;
  8006dc:	d0275505 	stb	zero,-25260(gp)
   PRE_g56 = 0;
  8006e0:	d0272e05 	stb	zero,-25416(gp)
   PRE_g58 = 0;
  8006e4:	d0275b45 	stb	zero,-25235(gp)
   PRE_g63 = 0;
  8006e8:	d0272945 	stb	zero,-25435(gp)
   PRE_g66 = 0;
  8006ec:	d0275bc5 	stb	zero,-25233(gp)
   PRE_g74 = 0;
  8006f0:	d0275445 	stb	zero,-25263(gp)
   PRE_g76 = 0;
  8006f4:	d0275945 	stb	zero,-25243(gp)
   PRE_g81 = 0;
  8006f8:	d0273945 	stb	zero,-25371(gp)
   PRE_g84 = 0;
  8006fc:	d0274645 	stb	zero,-25319(gp)
   PRE_g87 = 0;
  800700:	d0273cc5 	stb	zero,-25357(gp)
   PRE_g94 = 0;
  800704:	d0273885 	stb	zero,-25374(gp)
   PRE_g96 = 0;
  800708:	d0274a85 	stb	zero,-25302(gp)
   PRE_g102 = 0;
  80070c:	d02726c5 	stb	zero,-25445(gp)
   PRE_g105 = 0;
  800710:	d02765c5 	stb	zero,-25193(gp)
   PRE_g108 = 0;
  800714:	d0276585 	stb	zero,-25194(gp)
   PRE_g115 = 0;
  800718:	d0275605 	stb	zero,-25256(gp)
   PRE_g117 = 0;
  80071c:	d0276985 	stb	zero,-25178(gp)
   PRE_g123 = 0;
  800720:	d0273e85 	stb	zero,-25350(gp)
   PRE_g131 = 0;
  800724:	d0275105 	stb	zero,-25276(gp)
   return;
}
  800728:	e037883a 	mov	sp,fp
  80072c:	df000017 	ldw	fp,0(sp)
  800730:	dec00104 	addi	sp,sp,4
  800734:	f800283a 	ret

00800738 <tick>:
void tick(){
  800738:	deff9e04 	addi	sp,sp,-392
  80073c:	df006115 	stw	fp,388(sp)
  800740:	df006104 	addi	fp,sp,388
   if(_PRE_GO == 1){
  800744:	d0a72c17 	ldw	r2,-25424(gp)
  800748:	10800058 	cmpnei	r2,r2,1
  80074c:	1000011e 	bne	r2,zero,800754 <tick+0x1c>
      _GO = 0;
  800750:	d0274d85 	stb	zero,-25290(gp)
   }
   {
      g0 = _GO;
  800754:	d0a74d83 	ldbu	r2,-25290(gp)
  800758:	d0a75a85 	stb	r2,-25238(gp)
      g1 = g0;
  80075c:	d0a75a83 	ldbu	r2,-25238(gp)
  800760:	d0a73045 	stb	r2,-25407(gp)
      if(g1){
  800764:	d0a73043 	ldbu	r2,-25407(gp)
  800768:	10803fcc 	andi	r2,r2,255
  80076c:	1080201c 	xori	r2,r2,128
  800770:	10bfe004 	addi	r2,r2,-128
  800774:	1005003a 	cmpeq	r2,r2,zero
  800778:	1000041e 	bne	r2,zero,80078c <tick+0x54>
         _DDDPacemaker_local_AR = 0;
  80077c:	d0274005 	stb	zero,-25344(gp)
         _DDDPacemaker_local_VR = 0;
  800780:	d0276005 	stb	zero,-25216(gp)
         _DDDPacemaker_local_idleURI = 1;
  800784:	00800044 	movi	r2,1
  800788:	d0a76b45 	stb	r2,-25171(gp)
      }
      g2 = g1;
  80078c:	d0a73043 	ldbu	r2,-25407(gp)
  800790:	d0a74285 	stb	r2,-25334(gp)
      g132 =(PRE_g131);
  800794:	d0a75103 	ldbu	r2,-25276(gp)
  800798:	d0a739c5 	stb	r2,-25369(gp)
      g130 = g0;
  80079c:	d0a75a83 	ldbu	r2,-25238(gp)
  8007a0:	d0a762c5 	stb	r2,-25205(gp)
      g131 =(g132||g130);
  8007a4:	d0a739c3 	ldbu	r2,-25369(gp)
  8007a8:	10803fcc 	andi	r2,r2,255
  8007ac:	1080201c 	xori	r2,r2,128
  8007b0:	10bfe004 	addi	r2,r2,-128
  8007b4:	1004c03a 	cmpne	r2,r2,zero
  8007b8:	1000061e 	bne	r2,zero,8007d4 <tick+0x9c>
  8007bc:	d0a762c3 	ldbu	r2,-25205(gp)
  8007c0:	10803fcc 	andi	r2,r2,255
  8007c4:	1080201c 	xori	r2,r2,128
  8007c8:	10bfe004 	addi	r2,r2,-128
  8007cc:	1005003a 	cmpeq	r2,r2,zero
  8007d0:	1000031e 	bne	r2,zero,8007e0 <tick+0xa8>
  8007d4:	00800044 	movi	r2,1
  8007d8:	e0bfff15 	stw	r2,-4(fp)
  8007dc:	00000106 	br	8007e4 <tick+0xac>
  8007e0:	e03fff15 	stw	zero,-4(fp)
  8007e4:	e0ffff17 	ldw	r3,-4(fp)
  8007e8:	1805883a 	mov	r2,r3
  8007ec:	d0a747c5 	stb	r2,-25313(gp)
      if(g131){
  8007f0:	d0a747c3 	ldbu	r2,-25313(gp)
  8007f4:	10803fcc 	andi	r2,r2,255
  8007f8:	1080201c 	xori	r2,r2,128
  8007fc:	10bfe004 	addi	r2,r2,-128
  800800:	1005003a 	cmpeq	r2,r2,zero
  800804:	1000021e 	bne	r2,zero,800810 <tick+0xd8>
         VPace = 0;
  800808:	d0276405 	stb	zero,-25200(gp)
         APace = 0;
  80080c:	d0272505 	stb	zero,-25452(gp)
      }
      g122 = g1;
  800810:	d0a73043 	ldbu	r2,-25407(gp)
  800814:	d0a74a45 	stb	r2,-25303(gp)
      g124 =(PRE_g123);
  800818:	d0a73e83 	ldbu	r2,-25350(gp)
  80081c:	d0a759c5 	stb	r2,-25241(gp)
      g123 =(g122||g124);
  800820:	d0a74a43 	ldbu	r2,-25303(gp)
  800824:	10803fcc 	andi	r2,r2,255
  800828:	1080201c 	xori	r2,r2,128
  80082c:	10bfe004 	addi	r2,r2,-128
  800830:	1004c03a 	cmpne	r2,r2,zero
  800834:	1000061e 	bne	r2,zero,800850 <tick+0x118>
  800838:	d0a759c3 	ldbu	r2,-25241(gp)
  80083c:	10803fcc 	andi	r2,r2,255
  800840:	1080201c 	xori	r2,r2,128
  800844:	10bfe004 	addi	r2,r2,-128
  800848:	1005003a 	cmpeq	r2,r2,zero
  80084c:	1000031e 	bne	r2,zero,80085c <tick+0x124>
  800850:	00800044 	movi	r2,1
  800854:	e0bffe15 	stw	r2,-8(fp)
  800858:	00000106 	br	800860 <tick+0x128>
  80085c:	e03ffe15 	stw	zero,-8(fp)
  800860:	e0fffe17 	ldw	r3,-8(fp)
  800864:	1805883a 	mov	r2,r3
  800868:	d0a72f45 	stb	r2,-25411(gp)
      if(g123){
  80086c:	d0a72f43 	ldbu	r2,-25411(gp)
  800870:	10803fcc 	andi	r2,r2,255
  800874:	1080201c 	xori	r2,r2,128
  800878:	10bfe004 	addi	r2,r2,-128
  80087c:	1005003a 	cmpeq	r2,r2,zero
  800880:	1000121e 	bne	r2,zero,8008cc <tick+0x194>
         _DDDPacemaker_local_LRI_start = 0;
  800884:	d0276345 	stb	zero,-25203(gp)
         _DDDPacemaker_local_LRI_stop = 0;
  800888:	d0273ec5 	stb	zero,-25349(gp)
         _DDDPacemaker_local_LRI_ex = 0;
  80088c:	d0272ec5 	stb	zero,-25413(gp)
         _DDDPacemaker_local_URI_start = 0;
  800890:	d0273d05 	stb	zero,-25356(gp)
         _DDDPacemaker_local_URI_stop = 0;
  800894:	d0274a05 	stb	zero,-25304(gp)
         _DDDPacemaker_local_URI_ex = 0;
  800898:	d0275805 	stb	zero,-25248(gp)
         _DDDPacemaker_local_PVARP_start = 0;
  80089c:	d0275145 	stb	zero,-25275(gp)
         _DDDPacemaker_local_PVARP_stop = 0;
  8008a0:	d0274f85 	stb	zero,-25282(gp)
         _DDDPacemaker_local_PVARP_ex = 0;
  8008a4:	d02745c5 	stb	zero,-25321(gp)
         _DDDPacemaker_local_VRP_start = 0;
  8008a8:	d0275c45 	stb	zero,-25231(gp)
         _DDDPacemaker_local_VRP_stop = 0;
  8008ac:	d0272985 	stb	zero,-25434(gp)
         _DDDPacemaker_local_VRP_ex = 0;
  8008b0:	d02758c5 	stb	zero,-25245(gp)
         _DDDPacemaker_local_AVI_start = 0;
  8008b4:	d0272805 	stb	zero,-25440(gp)
         _DDDPacemaker_local_AVI_stop = 0;
  8008b8:	d0276ac5 	stb	zero,-25173(gp)
         _DDDPacemaker_local_AVI_ex = 0;
  8008bc:	d0273105 	stb	zero,-25404(gp)
         _DDDPacemaker_local_AEI_start = 0;
  8008c0:	d0276845 	stb	zero,-25183(gp)
         _DDDPacemaker_local_AEI_stop = 0;
  8008c4:	d0275e45 	stb	zero,-25223(gp)
         _DDDPacemaker_local_AEI_ex = 0;
  8008c8:	d0272545 	stb	zero,-25451(gp)
      }
      g59 =(PRE_g58);
  8008cc:	d0a75b43 	ldbu	r2,-25235(gp)
  8008d0:	d0a74485 	stb	r2,-25326(gp)
      _cg59 = VRP_TO;
  8008d4:	d0a72703 	ldbu	r2,-25444(gp)
  8008d8:	d0a72785 	stb	r2,-25442(gp)
      g60 =(g59&&_cg59);
  8008dc:	d0a74483 	ldbu	r2,-25326(gp)
  8008e0:	10803fcc 	andi	r2,r2,255
  8008e4:	1080201c 	xori	r2,r2,128
  8008e8:	10bfe004 	addi	r2,r2,-128
  8008ec:	1005003a 	cmpeq	r2,r2,zero
  8008f0:	1000091e 	bne	r2,zero,800918 <tick+0x1e0>
  8008f4:	d0a72783 	ldbu	r2,-25442(gp)
  8008f8:	10803fcc 	andi	r2,r2,255
  8008fc:	1080201c 	xori	r2,r2,128
  800900:	10bfe004 	addi	r2,r2,-128
  800904:	1005003a 	cmpeq	r2,r2,zero
  800908:	1000031e 	bne	r2,zero,800918 <tick+0x1e0>
  80090c:	00800044 	movi	r2,1
  800910:	e0bffd15 	stw	r2,-12(fp)
  800914:	00000106 	br	80091c <tick+0x1e4>
  800918:	e03ffd15 	stw	zero,-12(fp)
  80091c:	e0fffd17 	ldw	r3,-12(fp)
  800920:	1805883a 	mov	r2,r3
  800924:	d0a74f05 	stb	r2,-25284(gp)
      if(g60){
  800928:	d0a74f03 	ldbu	r2,-25284(gp)
  80092c:	10803fcc 	andi	r2,r2,255
  800930:	1080201c 	xori	r2,r2,128
  800934:	10bfe004 	addi	r2,r2,-128
  800938:	1005003a 	cmpeq	r2,r2,zero
  80093c:	1000021e 	bne	r2,zero,800948 <tick+0x210>
         _DDDPacemaker_local_VRP_ex =(_DDDPacemaker_local_VRP_ex||1);
  800940:	00800044 	movi	r2,1
  800944:	d0a758c5 	stb	r2,-25245(gp)
      }
      g49 =(PRE_g48);
  800948:	d0a75503 	ldbu	r2,-25260(gp)
  80094c:	d0a74245 	stb	r2,-25335(gp)
      g49b = g49;
  800950:	d0a74243 	ldbu	r2,-25335(gp)
  800954:	d0a76305 	stb	r2,-25204(gp)
      _cg49 = _DDDPacemaker_local_VRP_ex;
  800958:	d0a758c3 	ldbu	r2,-25245(gp)
  80095c:	d0a76505 	stb	r2,-25196(gp)
      g50 =(g49b&&_cg49);
  800960:	d0a76303 	ldbu	r2,-25204(gp)
  800964:	10803fcc 	andi	r2,r2,255
  800968:	1080201c 	xori	r2,r2,128
  80096c:	10bfe004 	addi	r2,r2,-128
  800970:	1005003a 	cmpeq	r2,r2,zero
  800974:	1000091e 	bne	r2,zero,80099c <tick+0x264>
  800978:	d0a76503 	ldbu	r2,-25196(gp)
  80097c:	10803fcc 	andi	r2,r2,255
  800980:	1080201c 	xori	r2,r2,128
  800984:	10bfe004 	addi	r2,r2,-128
  800988:	1005003a 	cmpeq	r2,r2,zero
  80098c:	1000031e 	bne	r2,zero,80099c <tick+0x264>
  800990:	00800044 	movi	r2,1
  800994:	e0bffc15 	stw	r2,-16(fp)
  800998:	00000106 	br	8009a0 <tick+0x268>
  80099c:	e03ffc15 	stw	zero,-16(fp)
  8009a0:	e0fffc17 	ldw	r3,-16(fp)
  8009a4:	1805883a 	mov	r2,r3
  8009a8:	d0a75305 	stb	r2,-25268(gp)
      if(g50){
  8009ac:	d0a75303 	ldbu	r2,-25268(gp)
  8009b0:	10803fcc 	andi	r2,r2,255
  8009b4:	1080201c 	xori	r2,r2,128
  8009b8:	10bfe004 	addi	r2,r2,-128
  8009bc:	1005003a 	cmpeq	r2,r2,zero
  8009c0:	1000011e 	bne	r2,zero,8009c8 <tick+0x290>
         _DDDPacemaker_local_VR = 0;
  8009c4:	d0276005 	stb	zero,-25216(gp)
      }
      g51 =(g49b&&(!(_cg49)));
  8009c8:	d0a76303 	ldbu	r2,-25204(gp)
  8009cc:	10803fcc 	andi	r2,r2,255
  8009d0:	1080201c 	xori	r2,r2,128
  8009d4:	10bfe004 	addi	r2,r2,-128
  8009d8:	1005003a 	cmpeq	r2,r2,zero
  8009dc:	1000091e 	bne	r2,zero,800a04 <tick+0x2cc>
  8009e0:	d0a76503 	ldbu	r2,-25196(gp)
  8009e4:	10803fcc 	andi	r2,r2,255
  8009e8:	1080201c 	xori	r2,r2,128
  8009ec:	10bfe004 	addi	r2,r2,-128
  8009f0:	1004c03a 	cmpne	r2,r2,zero
  8009f4:	1000031e 	bne	r2,zero,800a04 <tick+0x2cc>
  8009f8:	00800044 	movi	r2,1
  8009fc:	e0bffb15 	stw	r2,-20(fp)
  800a00:	00000106 	br	800a08 <tick+0x2d0>
  800a04:	e03ffb15 	stw	zero,-20(fp)
  800a08:	e0fffb17 	ldw	r3,-20(fp)
  800a0c:	1805883a 	mov	r2,r3
  800a10:	d0a75385 	stb	r2,-25266(gp)
      _cg51 = VSense;
  800a14:	d0a74803 	ldbu	r2,-25312(gp)
  800a18:	d0a74045 	stb	r2,-25343(gp)
      g52 =(g51&&_cg51);
  800a1c:	d0a75383 	ldbu	r2,-25266(gp)
  800a20:	10803fcc 	andi	r2,r2,255
  800a24:	1080201c 	xori	r2,r2,128
  800a28:	10bfe004 	addi	r2,r2,-128
  800a2c:	1005003a 	cmpeq	r2,r2,zero
  800a30:	1000091e 	bne	r2,zero,800a58 <tick+0x320>
  800a34:	d0a74043 	ldbu	r2,-25343(gp)
  800a38:	10803fcc 	andi	r2,r2,255
  800a3c:	1080201c 	xori	r2,r2,128
  800a40:	10bfe004 	addi	r2,r2,-128
  800a44:	1005003a 	cmpeq	r2,r2,zero
  800a48:	1000031e 	bne	r2,zero,800a58 <tick+0x320>
  800a4c:	00800044 	movi	r2,1
  800a50:	e0bffa15 	stw	r2,-24(fp)
  800a54:	00000106 	br	800a5c <tick+0x324>
  800a58:	e03ffa15 	stw	zero,-24(fp)
  800a5c:	e0fffa17 	ldw	r3,-24(fp)
  800a60:	1805883a 	mov	r2,r3
  800a64:	d0a73385 	stb	r2,-25394(gp)
      if(g52){
  800a68:	d0a73383 	ldbu	r2,-25394(gp)
  800a6c:	10803fcc 	andi	r2,r2,255
  800a70:	1080201c 	xori	r2,r2,128
  800a74:	10bfe004 	addi	r2,r2,-128
  800a78:	1005003a 	cmpeq	r2,r2,zero
  800a7c:	1000021e 	bne	r2,zero,800a88 <tick+0x350>
         _DDDPacemaker_local_VR = 1;
  800a80:	00800044 	movi	r2,1
  800a84:	d0a76005 	stb	r2,-25216(gp)
      }
      g85 =(PRE_g84);
  800a88:	d0a74643 	ldbu	r2,-25319(gp)
  800a8c:	d0a72a85 	stb	r2,-25430(gp)
      g85b = g85;
  800a90:	d0a72a83 	ldbu	r2,-25430(gp)
  800a94:	d0a73f05 	stb	r2,-25348(gp)
      _cg85 =(VSense&&(!(_DDDPacemaker_local_VR)));
  800a98:	d0a74803 	ldbu	r2,-25312(gp)
  800a9c:	10803fcc 	andi	r2,r2,255
  800aa0:	1080201c 	xori	r2,r2,128
  800aa4:	10bfe004 	addi	r2,r2,-128
  800aa8:	1005003a 	cmpeq	r2,r2,zero
  800aac:	1000091e 	bne	r2,zero,800ad4 <tick+0x39c>
  800ab0:	d0a76003 	ldbu	r2,-25216(gp)
  800ab4:	10803fcc 	andi	r2,r2,255
  800ab8:	1080201c 	xori	r2,r2,128
  800abc:	10bfe004 	addi	r2,r2,-128
  800ac0:	1004c03a 	cmpne	r2,r2,zero
  800ac4:	1000031e 	bne	r2,zero,800ad4 <tick+0x39c>
  800ac8:	00800044 	movi	r2,1
  800acc:	e0bff915 	stw	r2,-28(fp)
  800ad0:	00000106 	br	800ad8 <tick+0x3a0>
  800ad4:	e03ff915 	stw	zero,-28(fp)
  800ad8:	e0fff917 	ldw	r3,-28(fp)
  800adc:	1805883a 	mov	r2,r3
  800ae0:	d0a73485 	stb	r2,-25390(gp)
      g86 =(g85b&&_cg85);
  800ae4:	d0a73f03 	ldbu	r2,-25348(gp)
  800ae8:	10803fcc 	andi	r2,r2,255
  800aec:	1080201c 	xori	r2,r2,128
  800af0:	10bfe004 	addi	r2,r2,-128
  800af4:	1005003a 	cmpeq	r2,r2,zero
  800af8:	1000091e 	bne	r2,zero,800b20 <tick+0x3e8>
  800afc:	d0a73483 	ldbu	r2,-25390(gp)
  800b00:	10803fcc 	andi	r2,r2,255
  800b04:	1080201c 	xori	r2,r2,128
  800b08:	10bfe004 	addi	r2,r2,-128
  800b0c:	1005003a 	cmpeq	r2,r2,zero
  800b10:	1000031e 	bne	r2,zero,800b20 <tick+0x3e8>
  800b14:	00800044 	movi	r2,1
  800b18:	e0bff815 	stw	r2,-32(fp)
  800b1c:	00000106 	br	800b24 <tick+0x3ec>
  800b20:	e03ff815 	stw	zero,-32(fp)
  800b24:	e0fff817 	ldw	r3,-32(fp)
  800b28:	1805883a 	mov	r2,r3
  800b2c:	d0a750c5 	stb	r2,-25277(gp)
      if(g86){
  800b30:	d0a750c3 	ldbu	r2,-25277(gp)
  800b34:	10803fcc 	andi	r2,r2,255
  800b38:	1080201c 	xori	r2,r2,128
  800b3c:	10bfe004 	addi	r2,r2,-128
  800b40:	1005003a 	cmpeq	r2,r2,zero
  800b44:	1000021e 	bne	r2,zero,800b50 <tick+0x418>
         _DDDPacemaker_local_AVI_stop =(_DDDPacemaker_local_AVI_stop||1);
  800b48:	00800044 	movi	r2,1
  800b4c:	d0a76ac5 	stb	r2,-25173(gp)
      }
      g97 =(PRE_g96);
  800b50:	d0a74a83 	ldbu	r2,-25302(gp)
  800b54:	d0a73345 	stb	r2,-25395(gp)
      g97b = g97;
  800b58:	d0a73343 	ldbu	r2,-25395(gp)
  800b5c:	d0a72f05 	stb	r2,-25412(gp)
      _cg97 = _DDDPacemaker_local_AVI_stop;
  800b60:	d0a76ac3 	ldbu	r2,-25173(gp)
  800b64:	d0a73c05 	stb	r2,-25360(gp)
      g98 =(g97b&&(!(_cg97)));
  800b68:	d0a72f03 	ldbu	r2,-25412(gp)
  800b6c:	10803fcc 	andi	r2,r2,255
  800b70:	1080201c 	xori	r2,r2,128
  800b74:	10bfe004 	addi	r2,r2,-128
  800b78:	1005003a 	cmpeq	r2,r2,zero
  800b7c:	1000091e 	bne	r2,zero,800ba4 <tick+0x46c>
  800b80:	d0a73c03 	ldbu	r2,-25360(gp)
  800b84:	10803fcc 	andi	r2,r2,255
  800b88:	1080201c 	xori	r2,r2,128
  800b8c:	10bfe004 	addi	r2,r2,-128
  800b90:	1004c03a 	cmpne	r2,r2,zero
  800b94:	1000031e 	bne	r2,zero,800ba4 <tick+0x46c>
  800b98:	00800044 	movi	r2,1
  800b9c:	e0bff715 	stw	r2,-36(fp)
  800ba0:	00000106 	br	800ba8 <tick+0x470>
  800ba4:	e03ff715 	stw	zero,-36(fp)
  800ba8:	e0fff717 	ldw	r3,-36(fp)
  800bac:	1805883a 	mov	r2,r3
  800bb0:	d0a75685 	stb	r2,-25254(gp)
      _cg98 = AVI_TO;
  800bb4:	d0a72483 	ldbu	r2,-25454(gp)
  800bb8:	d0a732c5 	stb	r2,-25397(gp)
      g99 =(g98&&_cg98);
  800bbc:	d0a75683 	ldbu	r2,-25254(gp)
  800bc0:	10803fcc 	andi	r2,r2,255
  800bc4:	1080201c 	xori	r2,r2,128
  800bc8:	10bfe004 	addi	r2,r2,-128
  800bcc:	1005003a 	cmpeq	r2,r2,zero
  800bd0:	1000091e 	bne	r2,zero,800bf8 <tick+0x4c0>
  800bd4:	d0a732c3 	ldbu	r2,-25397(gp)
  800bd8:	10803fcc 	andi	r2,r2,255
  800bdc:	1080201c 	xori	r2,r2,128
  800be0:	10bfe004 	addi	r2,r2,-128
  800be4:	1005003a 	cmpeq	r2,r2,zero
  800be8:	1000031e 	bne	r2,zero,800bf8 <tick+0x4c0>
  800bec:	00800044 	movi	r2,1
  800bf0:	e0bff615 	stw	r2,-40(fp)
  800bf4:	00000106 	br	800bfc <tick+0x4c4>
  800bf8:	e03ff615 	stw	zero,-40(fp)
  800bfc:	e0fff617 	ldw	r3,-40(fp)
  800c00:	1805883a 	mov	r2,r3
  800c04:	d0a74505 	stb	r2,-25324(gp)
      if(g99){
  800c08:	d0a74503 	ldbu	r2,-25324(gp)
  800c0c:	10803fcc 	andi	r2,r2,255
  800c10:	1080201c 	xori	r2,r2,128
  800c14:	10bfe004 	addi	r2,r2,-128
  800c18:	1005003a 	cmpeq	r2,r2,zero
  800c1c:	1000021e 	bne	r2,zero,800c28 <tick+0x4f0>
         _DDDPacemaker_local_AVI_ex =(_DDDPacemaker_local_AVI_ex||1);
  800c20:	00800044 	movi	r2,1
  800c24:	d0a73105 	stb	r2,-25404(gp)
      }
      g90 =(g85b&&(!(_cg85)));
  800c28:	d0a73f03 	ldbu	r2,-25348(gp)
  800c2c:	10803fcc 	andi	r2,r2,255
  800c30:	1080201c 	xori	r2,r2,128
  800c34:	10bfe004 	addi	r2,r2,-128
  800c38:	1005003a 	cmpeq	r2,r2,zero
  800c3c:	1000091e 	bne	r2,zero,800c64 <tick+0x52c>
  800c40:	d0a73483 	ldbu	r2,-25390(gp)
  800c44:	10803fcc 	andi	r2,r2,255
  800c48:	1080201c 	xori	r2,r2,128
  800c4c:	10bfe004 	addi	r2,r2,-128
  800c50:	1004c03a 	cmpne	r2,r2,zero
  800c54:	1000031e 	bne	r2,zero,800c64 <tick+0x52c>
  800c58:	00800044 	movi	r2,1
  800c5c:	e0bff515 	stw	r2,-44(fp)
  800c60:	00000106 	br	800c68 <tick+0x530>
  800c64:	e03ff515 	stw	zero,-44(fp)
  800c68:	e0fff517 	ldw	r3,-44(fp)
  800c6c:	1805883a 	mov	r2,r3
  800c70:	d0a74d05 	stb	r2,-25292(gp)
      _cg90 = _DDDPacemaker_local_AVI_ex;
  800c74:	d0a73103 	ldbu	r2,-25404(gp)
  800c78:	d0a74345 	stb	r2,-25331(gp)
      g91 =(g90&&_cg90);
  800c7c:	d0a74d03 	ldbu	r2,-25292(gp)
  800c80:	10803fcc 	andi	r2,r2,255
  800c84:	1080201c 	xori	r2,r2,128
  800c88:	10bfe004 	addi	r2,r2,-128
  800c8c:	1005003a 	cmpeq	r2,r2,zero
  800c90:	1000091e 	bne	r2,zero,800cb8 <tick+0x580>
  800c94:	d0a74343 	ldbu	r2,-25331(gp)
  800c98:	10803fcc 	andi	r2,r2,255
  800c9c:	1080201c 	xori	r2,r2,128
  800ca0:	10bfe004 	addi	r2,r2,-128
  800ca4:	1005003a 	cmpeq	r2,r2,zero
  800ca8:	1000031e 	bne	r2,zero,800cb8 <tick+0x580>
  800cac:	00800044 	movi	r2,1
  800cb0:	e0bff415 	stw	r2,-48(fp)
  800cb4:	00000106 	br	800cbc <tick+0x584>
  800cb8:	e03ff415 	stw	zero,-48(fp)
  800cbc:	e0fff417 	ldw	r3,-48(fp)
  800cc0:	1805883a 	mov	r2,r3
  800cc4:	d0a724c5 	stb	r2,-25453(gp)
      if(g91){
  800cc8:	d0a724c3 	ldbu	r2,-25453(gp)
  800ccc:	10803fcc 	andi	r2,r2,255
  800cd0:	1080201c 	xori	r2,r2,128
  800cd4:	10bfe004 	addi	r2,r2,-128
  800cd8:	1005003a 	cmpeq	r2,r2,zero
  800cdc:	1000021e 	bne	r2,zero,800ce8 <tick+0x5b0>
         VPace =(VPace||1);
  800ce0:	00800044 	movi	r2,1
  800ce4:	d0a76405 	stb	r2,-25200(gp)
      }
      g4 =(PRE_g3);
  800ce8:	d0a72d03 	ldbu	r2,-25420(gp)
  800cec:	d0a72585 	stb	r2,-25450(gp)
      g4b = g4;
  800cf0:	d0a72583 	ldbu	r2,-25450(gp)
  800cf4:	d0a76885 	stb	r2,-25182(gp)
      _cg4 =(VSense||VPace);
  800cf8:	d0a74803 	ldbu	r2,-25312(gp)
  800cfc:	10803fcc 	andi	r2,r2,255
  800d00:	1080201c 	xori	r2,r2,128
  800d04:	10bfe004 	addi	r2,r2,-128
  800d08:	1004c03a 	cmpne	r2,r2,zero
  800d0c:	1000061e 	bne	r2,zero,800d28 <tick+0x5f0>
  800d10:	d0a76403 	ldbu	r2,-25200(gp)
  800d14:	10803fcc 	andi	r2,r2,255
  800d18:	1080201c 	xori	r2,r2,128
  800d1c:	10bfe004 	addi	r2,r2,-128
  800d20:	1005003a 	cmpeq	r2,r2,zero
  800d24:	1000031e 	bne	r2,zero,800d34 <tick+0x5fc>
  800d28:	00800044 	movi	r2,1
  800d2c:	e0bff315 	stw	r2,-52(fp)
  800d30:	00000106 	br	800d38 <tick+0x600>
  800d34:	e03ff315 	stw	zero,-52(fp)
  800d38:	e0fff317 	ldw	r3,-52(fp)
  800d3c:	1805883a 	mov	r2,r3
  800d40:	d0a766c5 	stb	r2,-25189(gp)
      g3 =((g4b&&(!(_cg4)))||g2);
  800d44:	d0a76883 	ldbu	r2,-25182(gp)
  800d48:	10803fcc 	andi	r2,r2,255
  800d4c:	1080201c 	xori	r2,r2,128
  800d50:	10bfe004 	addi	r2,r2,-128
  800d54:	1005003a 	cmpeq	r2,r2,zero
  800d58:	1000061e 	bne	r2,zero,800d74 <tick+0x63c>
  800d5c:	d0a766c3 	ldbu	r2,-25189(gp)
  800d60:	10803fcc 	andi	r2,r2,255
  800d64:	1080201c 	xori	r2,r2,128
  800d68:	10bfe004 	addi	r2,r2,-128
  800d6c:	1005003a 	cmpeq	r2,r2,zero
  800d70:	1000061e 	bne	r2,zero,800d8c <tick+0x654>
  800d74:	d0a74283 	ldbu	r2,-25334(gp)
  800d78:	10803fcc 	andi	r2,r2,255
  800d7c:	1080201c 	xori	r2,r2,128
  800d80:	10bfe004 	addi	r2,r2,-128
  800d84:	1005003a 	cmpeq	r2,r2,zero
  800d88:	1000031e 	bne	r2,zero,800d98 <tick+0x660>
  800d8c:	00800044 	movi	r2,1
  800d90:	e0bff215 	stw	r2,-56(fp)
  800d94:	00000106 	br	800d9c <tick+0x664>
  800d98:	e03ff215 	stw	zero,-56(fp)
  800d9c:	e0fff217 	ldw	r3,-56(fp)
  800da0:	1805883a 	mov	r2,r3
  800da4:	d0a72905 	stb	r2,-25436(gp)
      g5 =(g4b&&_cg4);
  800da8:	d0a76883 	ldbu	r2,-25182(gp)
  800dac:	10803fcc 	andi	r2,r2,255
  800db0:	1080201c 	xori	r2,r2,128
  800db4:	10bfe004 	addi	r2,r2,-128
  800db8:	1005003a 	cmpeq	r2,r2,zero
  800dbc:	1000091e 	bne	r2,zero,800de4 <tick+0x6ac>
  800dc0:	d0a766c3 	ldbu	r2,-25189(gp)
  800dc4:	10803fcc 	andi	r2,r2,255
  800dc8:	1080201c 	xori	r2,r2,128
  800dcc:	10bfe004 	addi	r2,r2,-128
  800dd0:	1005003a 	cmpeq	r2,r2,zero
  800dd4:	1000031e 	bne	r2,zero,800de4 <tick+0x6ac>
  800dd8:	00800044 	movi	r2,1
  800ddc:	e0bff115 	stw	r2,-60(fp)
  800de0:	00000106 	br	800de8 <tick+0x6b0>
  800de4:	e03ff115 	stw	zero,-60(fp)
  800de8:	e0fff117 	ldw	r3,-60(fp)
  800dec:	1805883a 	mov	r2,r3
  800df0:	d0a74185 	stb	r2,-25338(gp)
      if(g5){
  800df4:	d0a74183 	ldbu	r2,-25338(gp)
  800df8:	10803fcc 	andi	r2,r2,255
  800dfc:	1080201c 	xori	r2,r2,128
  800e00:	10bfe004 	addi	r2,r2,-128
  800e04:	1005003a 	cmpeq	r2,r2,zero
  800e08:	1000021e 	bne	r2,zero,800e14 <tick+0x6dc>
         _DDDPacemaker_local_LRI_start =(_DDDPacemaker_local_LRI_start||1);
  800e0c:	00800044 	movi	r2,1
  800e10:	d0a76345 	stb	r2,-25203(gp)
      }
      g7 =(PRE_g6);
  800e14:	d0a74843 	ldbu	r2,-25311(gp)
  800e18:	d0a742c5 	stb	r2,-25333(gp)
      g7b = g7;
  800e1c:	d0a742c3 	ldbu	r2,-25333(gp)
  800e20:	d0a73185 	stb	r2,-25402(gp)
      _cg7 = _DDDPacemaker_local_VRP_ex;
  800e24:	d0a758c3 	ldbu	r2,-25245(gp)
  800e28:	d0a72b45 	stb	r2,-25427(gp)
      g12 =(PRE_g11);
  800e2c:	d0a74dc3 	ldbu	r2,-25289(gp)
  800e30:	d0a73305 	stb	r2,-25396(gp)
      g12b = g12;
  800e34:	d0a73303 	ldbu	r2,-25396(gp)
  800e38:	d0a76445 	stb	r2,-25199(gp)
      if(g12b){
  800e3c:	d0a76443 	ldbu	r2,-25199(gp)
  800e40:	10803fcc 	andi	r2,r2,255
  800e44:	1080201c 	xori	r2,r2,128
  800e48:	10bfe004 	addi	r2,r2,-128
  800e4c:	1005003a 	cmpeq	r2,r2,zero
  800e50:	1000021e 	bne	r2,zero,800e5c <tick+0x724>
         _DDDPacemaker_local_LRI_start =(_DDDPacemaker_local_LRI_start||1);
  800e54:	00800044 	movi	r2,1
  800e58:	d0a76345 	stb	r2,-25203(gp)
      }
      g6 =((g7b&&(!(_cg7)))||g12b||g5);
  800e5c:	d0a73183 	ldbu	r2,-25402(gp)
  800e60:	10803fcc 	andi	r2,r2,255
  800e64:	1080201c 	xori	r2,r2,128
  800e68:	10bfe004 	addi	r2,r2,-128
  800e6c:	1005003a 	cmpeq	r2,r2,zero
  800e70:	1000061e 	bne	r2,zero,800e8c <tick+0x754>
  800e74:	d0a72b43 	ldbu	r2,-25427(gp)
  800e78:	10803fcc 	andi	r2,r2,255
  800e7c:	1080201c 	xori	r2,r2,128
  800e80:	10bfe004 	addi	r2,r2,-128
  800e84:	1005003a 	cmpeq	r2,r2,zero
  800e88:	10000c1e 	bne	r2,zero,800ebc <tick+0x784>
  800e8c:	d0a76443 	ldbu	r2,-25199(gp)
  800e90:	10803fcc 	andi	r2,r2,255
  800e94:	1080201c 	xori	r2,r2,128
  800e98:	10bfe004 	addi	r2,r2,-128
  800e9c:	1004c03a 	cmpne	r2,r2,zero
  800ea0:	1000061e 	bne	r2,zero,800ebc <tick+0x784>
  800ea4:	d0a74183 	ldbu	r2,-25338(gp)
  800ea8:	10803fcc 	andi	r2,r2,255
  800eac:	1080201c 	xori	r2,r2,128
  800eb0:	10bfe004 	addi	r2,r2,-128
  800eb4:	1005003a 	cmpeq	r2,r2,zero
  800eb8:	1000031e 	bne	r2,zero,800ec8 <tick+0x790>
  800ebc:	00800044 	movi	r2,1
  800ec0:	e0bff015 	stw	r2,-64(fp)
  800ec4:	00000106 	br	800ecc <tick+0x794>
  800ec8:	e03ff015 	stw	zero,-64(fp)
  800ecc:	e0fff017 	ldw	r3,-64(fp)
  800ed0:	1805883a 	mov	r2,r3
  800ed4:	d0a757c5 	stb	r2,-25249(gp)
      g9 =(PRE_g8);
  800ed8:	d0a737c3 	ldbu	r2,-25377(gp)
  800edc:	d0a72ac5 	stb	r2,-25429(gp)
      g9b = g9;
  800ee0:	d0a72ac3 	ldbu	r2,-25429(gp)
  800ee4:	d0a74685 	stb	r2,-25318(gp)
      _cg9 =(VSense||VPace);
  800ee8:	d0a74803 	ldbu	r2,-25312(gp)
  800eec:	10803fcc 	andi	r2,r2,255
  800ef0:	1080201c 	xori	r2,r2,128
  800ef4:	10bfe004 	addi	r2,r2,-128
  800ef8:	1004c03a 	cmpne	r2,r2,zero
  800efc:	1000061e 	bne	r2,zero,800f18 <tick+0x7e0>
  800f00:	d0a76403 	ldbu	r2,-25200(gp)
  800f04:	10803fcc 	andi	r2,r2,255
  800f08:	1080201c 	xori	r2,r2,128
  800f0c:	10bfe004 	addi	r2,r2,-128
  800f10:	1005003a 	cmpeq	r2,r2,zero
  800f14:	1000031e 	bne	r2,zero,800f24 <tick+0x7ec>
  800f18:	00800044 	movi	r2,1
  800f1c:	e0bfef15 	stw	r2,-68(fp)
  800f20:	00000106 	br	800f28 <tick+0x7f0>
  800f24:	e03fef15 	stw	zero,-68(fp)
  800f28:	e0ffef17 	ldw	r3,-68(fp)
  800f2c:	1805883a 	mov	r2,r3
  800f30:	d0a75a45 	stb	r2,-25239(gp)
      g10 =(g9b&&_cg9);
  800f34:	d0a74683 	ldbu	r2,-25318(gp)
  800f38:	10803fcc 	andi	r2,r2,255
  800f3c:	1080201c 	xori	r2,r2,128
  800f40:	10bfe004 	addi	r2,r2,-128
  800f44:	1005003a 	cmpeq	r2,r2,zero
  800f48:	1000091e 	bne	r2,zero,800f70 <tick+0x838>
  800f4c:	d0a75a43 	ldbu	r2,-25239(gp)
  800f50:	10803fcc 	andi	r2,r2,255
  800f54:	1080201c 	xori	r2,r2,128
  800f58:	10bfe004 	addi	r2,r2,-128
  800f5c:	1005003a 	cmpeq	r2,r2,zero
  800f60:	1000031e 	bne	r2,zero,800f70 <tick+0x838>
  800f64:	00800044 	movi	r2,1
  800f68:	e0bfee15 	stw	r2,-72(fp)
  800f6c:	00000106 	br	800f74 <tick+0x83c>
  800f70:	e03fee15 	stw	zero,-72(fp)
  800f74:	e0ffee17 	ldw	r3,-72(fp)
  800f78:	1805883a 	mov	r2,r3
  800f7c:	d0a76945 	stb	r2,-25179(gp)
      if(g10){
  800f80:	d0a76943 	ldbu	r2,-25179(gp)
  800f84:	10803fcc 	andi	r2,r2,255
  800f88:	1080201c 	xori	r2,r2,128
  800f8c:	10bfe004 	addi	r2,r2,-128
  800f90:	1005003a 	cmpeq	r2,r2,zero
  800f94:	1000021e 	bne	r2,zero,800fa0 <tick+0x868>
         _DDDPacemaker_local_LRI_stop =(_DDDPacemaker_local_LRI_stop||1);
  800f98:	00800044 	movi	r2,1
  800f9c:	d0a73ec5 	stb	r2,-25349(gp)
      }
      g20 =(PRE_g19);
  800fa0:	d0a74f43 	ldbu	r2,-25283(gp)
  800fa4:	d0a74ec5 	stb	r2,-25285(gp)
      g20b = g20;
  800fa8:	d0a74ec3 	ldbu	r2,-25285(gp)
  800fac:	d0a76145 	stb	r2,-25211(gp)
      _cg20 = _DDDPacemaker_local_LRI_stop;
  800fb0:	d0a73ec3 	ldbu	r2,-25349(gp)
  800fb4:	d0a73e05 	stb	r2,-25352(gp)
      g21 =(g20b&&(!(_cg20)));
  800fb8:	d0a76143 	ldbu	r2,-25211(gp)
  800fbc:	10803fcc 	andi	r2,r2,255
  800fc0:	1080201c 	xori	r2,r2,128
  800fc4:	10bfe004 	addi	r2,r2,-128
  800fc8:	1005003a 	cmpeq	r2,r2,zero
  800fcc:	1000091e 	bne	r2,zero,800ff4 <tick+0x8bc>
  800fd0:	d0a73e03 	ldbu	r2,-25352(gp)
  800fd4:	10803fcc 	andi	r2,r2,255
  800fd8:	1080201c 	xori	r2,r2,128
  800fdc:	10bfe004 	addi	r2,r2,-128
  800fe0:	1004c03a 	cmpne	r2,r2,zero
  800fe4:	1000031e 	bne	r2,zero,800ff4 <tick+0x8bc>
  800fe8:	00800044 	movi	r2,1
  800fec:	e0bfed15 	stw	r2,-76(fp)
  800ff0:	00000106 	br	800ff8 <tick+0x8c0>
  800ff4:	e03fed15 	stw	zero,-76(fp)
  800ff8:	e0ffed17 	ldw	r3,-76(fp)
  800ffc:	1805883a 	mov	r2,r3
  801000:	d0a73fc5 	stb	r2,-25345(gp)
      _cg21 = LRI_TO;
  801004:	d0a73403 	ldbu	r2,-25392(gp)
  801008:	d0a73c85 	stb	r2,-25358(gp)
      g22 =(g21&&_cg21);
  80100c:	d0a73fc3 	ldbu	r2,-25345(gp)
  801010:	10803fcc 	andi	r2,r2,255
  801014:	1080201c 	xori	r2,r2,128
  801018:	10bfe004 	addi	r2,r2,-128
  80101c:	1005003a 	cmpeq	r2,r2,zero
  801020:	1000091e 	bne	r2,zero,801048 <tick+0x910>
  801024:	d0a73c83 	ldbu	r2,-25358(gp)
  801028:	10803fcc 	andi	r2,r2,255
  80102c:	1080201c 	xori	r2,r2,128
  801030:	10bfe004 	addi	r2,r2,-128
  801034:	1005003a 	cmpeq	r2,r2,zero
  801038:	1000031e 	bne	r2,zero,801048 <tick+0x910>
  80103c:	00800044 	movi	r2,1
  801040:	e0bfec15 	stw	r2,-80(fp)
  801044:	00000106 	br	80104c <tick+0x914>
  801048:	e03fec15 	stw	zero,-80(fp)
  80104c:	e0ffec17 	ldw	r3,-80(fp)
  801050:	1805883a 	mov	r2,r3
  801054:	d0a75f05 	stb	r2,-25220(gp)
      if(g22){
  801058:	d0a75f03 	ldbu	r2,-25220(gp)
  80105c:	10803fcc 	andi	r2,r2,255
  801060:	1080201c 	xori	r2,r2,128
  801064:	10bfe004 	addi	r2,r2,-128
  801068:	1005003a 	cmpeq	r2,r2,zero
  80106c:	1000021e 	bne	r2,zero,801078 <tick+0x940>
         _DDDPacemaker_local_LRI_ex =(_DDDPacemaker_local_LRI_ex||1);
  801070:	00800044 	movi	r2,1
  801074:	d0a72ec5 	stb	r2,-25413(gp)
      }
      g13 =(g9b&&(!(_cg9)));
  801078:	d0a74683 	ldbu	r2,-25318(gp)
  80107c:	10803fcc 	andi	r2,r2,255
  801080:	1080201c 	xori	r2,r2,128
  801084:	10bfe004 	addi	r2,r2,-128
  801088:	1005003a 	cmpeq	r2,r2,zero
  80108c:	1000091e 	bne	r2,zero,8010b4 <tick+0x97c>
  801090:	d0a75a43 	ldbu	r2,-25239(gp)
  801094:	10803fcc 	andi	r2,r2,255
  801098:	1080201c 	xori	r2,r2,128
  80109c:	10bfe004 	addi	r2,r2,-128
  8010a0:	1004c03a 	cmpne	r2,r2,zero
  8010a4:	1000031e 	bne	r2,zero,8010b4 <tick+0x97c>
  8010a8:	00800044 	movi	r2,1
  8010ac:	e0bfeb15 	stw	r2,-84(fp)
  8010b0:	00000106 	br	8010b8 <tick+0x980>
  8010b4:	e03feb15 	stw	zero,-84(fp)
  8010b8:	e0ffeb17 	ldw	r3,-84(fp)
  8010bc:	1805883a 	mov	r2,r3
  8010c0:	d0a755c5 	stb	r2,-25257(gp)
      _cg13 = _DDDPacemaker_local_LRI_ex;
  8010c4:	d0a72ec3 	ldbu	r2,-25413(gp)
  8010c8:	d0a75a05 	stb	r2,-25240(gp)
      g8 =((g13&&(!(_cg13)))||(g7b&&_cg7));
  8010cc:	d0a755c3 	ldbu	r2,-25257(gp)
  8010d0:	10803fcc 	andi	r2,r2,255
  8010d4:	1080201c 	xori	r2,r2,128
  8010d8:	10bfe004 	addi	r2,r2,-128
  8010dc:	1005003a 	cmpeq	r2,r2,zero
  8010e0:	1000061e 	bne	r2,zero,8010fc <tick+0x9c4>
  8010e4:	d0a75a03 	ldbu	r2,-25240(gp)
  8010e8:	10803fcc 	andi	r2,r2,255
  8010ec:	1080201c 	xori	r2,r2,128
  8010f0:	10bfe004 	addi	r2,r2,-128
  8010f4:	1005003a 	cmpeq	r2,r2,zero
  8010f8:	10000c1e 	bne	r2,zero,80112c <tick+0x9f4>
  8010fc:	d0a73183 	ldbu	r2,-25402(gp)
  801100:	10803fcc 	andi	r2,r2,255
  801104:	1080201c 	xori	r2,r2,128
  801108:	10bfe004 	addi	r2,r2,-128
  80110c:	1005003a 	cmpeq	r2,r2,zero
  801110:	1000091e 	bne	r2,zero,801138 <tick+0xa00>
  801114:	d0a72b43 	ldbu	r2,-25427(gp)
  801118:	10803fcc 	andi	r2,r2,255
  80111c:	1080201c 	xori	r2,r2,128
  801120:	10bfe004 	addi	r2,r2,-128
  801124:	1005003a 	cmpeq	r2,r2,zero
  801128:	1000031e 	bne	r2,zero,801138 <tick+0xa00>
  80112c:	00800044 	movi	r2,1
  801130:	e0bfea15 	stw	r2,-88(fp)
  801134:	00000106 	br	80113c <tick+0xa04>
  801138:	e03fea15 	stw	zero,-88(fp)
  80113c:	e0ffea17 	ldw	r3,-88(fp)
  801140:	1805883a 	mov	r2,r3
  801144:	d0a756c5 	stb	r2,-25253(gp)
      g14 =(g13&&_cg13);
  801148:	d0a755c3 	ldbu	r2,-25257(gp)
  80114c:	10803fcc 	andi	r2,r2,255
  801150:	1080201c 	xori	r2,r2,128
  801154:	10bfe004 	addi	r2,r2,-128
  801158:	1005003a 	cmpeq	r2,r2,zero
  80115c:	1000091e 	bne	r2,zero,801184 <tick+0xa4c>
  801160:	d0a75a03 	ldbu	r2,-25240(gp)
  801164:	10803fcc 	andi	r2,r2,255
  801168:	1080201c 	xori	r2,r2,128
  80116c:	10bfe004 	addi	r2,r2,-128
  801170:	1005003a 	cmpeq	r2,r2,zero
  801174:	1000031e 	bne	r2,zero,801184 <tick+0xa4c>
  801178:	00800044 	movi	r2,1
  80117c:	e0bfe915 	stw	r2,-92(fp)
  801180:	00000106 	br	801188 <tick+0xa50>
  801184:	e03fe915 	stw	zero,-92(fp)
  801188:	e0ffe917 	ldw	r3,-92(fp)
  80118c:	1805883a 	mov	r2,r3
  801190:	d0a74605 	stb	r2,-25320(gp)
      if(g14){
  801194:	d0a74603 	ldbu	r2,-25320(gp)
  801198:	10803fcc 	andi	r2,r2,255
  80119c:	1080201c 	xori	r2,r2,128
  8011a0:	10bfe004 	addi	r2,r2,-128
  8011a4:	1005003a 	cmpeq	r2,r2,zero
  8011a8:	1000021e 	bne	r2,zero,8011b4 <tick+0xa7c>
         VPace =(VPace||1);
  8011ac:	00800044 	movi	r2,1
  8011b0:	d0a76405 	stb	r2,-25200(gp)
      }
      g11 =(g10||g14);
  8011b4:	d0a76943 	ldbu	r2,-25179(gp)
  8011b8:	10803fcc 	andi	r2,r2,255
  8011bc:	1080201c 	xori	r2,r2,128
  8011c0:	10bfe004 	addi	r2,r2,-128
  8011c4:	1004c03a 	cmpne	r2,r2,zero
  8011c8:	1000061e 	bne	r2,zero,8011e4 <tick+0xaac>
  8011cc:	d0a74603 	ldbu	r2,-25320(gp)
  8011d0:	10803fcc 	andi	r2,r2,255
  8011d4:	1080201c 	xori	r2,r2,128
  8011d8:	10bfe004 	addi	r2,r2,-128
  8011dc:	1005003a 	cmpeq	r2,r2,zero
  8011e0:	1000031e 	bne	r2,zero,8011f0 <tick+0xab8>
  8011e4:	00800044 	movi	r2,1
  8011e8:	e0bfe815 	stw	r2,-96(fp)
  8011ec:	00000106 	br	8011f4 <tick+0xabc>
  8011f0:	e03fe815 	stw	zero,-96(fp)
  8011f4:	e0ffe817 	ldw	r3,-96(fp)
  8011f8:	1805883a 	mov	r2,r3
  8011fc:	d0a75e85 	stb	r2,-25222(gp)
      g16 = g1;
  801200:	d0a73043 	ldbu	r2,-25407(gp)
  801204:	d0a75c85 	stb	r2,-25230(gp)
      g18 =(PRE_g17);
  801208:	d0a73843 	ldbu	r2,-25375(gp)
  80120c:	d0a73905 	stb	r2,-25372(gp)
      g18b = g18;
  801210:	d0a73903 	ldbu	r2,-25372(gp)
  801214:	d0a75985 	stb	r2,-25242(gp)
      _cg18 = _DDDPacemaker_local_LRI_start;
  801218:	d0a76343 	ldbu	r2,-25203(gp)
  80121c:	d0a76245 	stb	r2,-25207(gp)
      g17 =((g18b&&(!(_cg18)))||g22||(g20b&&_cg20)||g16);
  801220:	d0a75983 	ldbu	r2,-25242(gp)
  801224:	10803fcc 	andi	r2,r2,255
  801228:	1080201c 	xori	r2,r2,128
  80122c:	10bfe004 	addi	r2,r2,-128
  801230:	1005003a 	cmpeq	r2,r2,zero
  801234:	1000061e 	bne	r2,zero,801250 <tick+0xb18>
  801238:	d0a76243 	ldbu	r2,-25207(gp)
  80123c:	10803fcc 	andi	r2,r2,255
  801240:	1080201c 	xori	r2,r2,128
  801244:	10bfe004 	addi	r2,r2,-128
  801248:	1005003a 	cmpeq	r2,r2,zero
  80124c:	1000181e 	bne	r2,zero,8012b0 <tick+0xb78>
  801250:	d0a75f03 	ldbu	r2,-25220(gp)
  801254:	10803fcc 	andi	r2,r2,255
  801258:	1080201c 	xori	r2,r2,128
  80125c:	10bfe004 	addi	r2,r2,-128
  801260:	1004c03a 	cmpne	r2,r2,zero
  801264:	1000121e 	bne	r2,zero,8012b0 <tick+0xb78>
  801268:	d0a76143 	ldbu	r2,-25211(gp)
  80126c:	10803fcc 	andi	r2,r2,255
  801270:	1080201c 	xori	r2,r2,128
  801274:	10bfe004 	addi	r2,r2,-128
  801278:	1005003a 	cmpeq	r2,r2,zero
  80127c:	1000061e 	bne	r2,zero,801298 <tick+0xb60>
  801280:	d0a73e03 	ldbu	r2,-25352(gp)
  801284:	10803fcc 	andi	r2,r2,255
  801288:	1080201c 	xori	r2,r2,128
  80128c:	10bfe004 	addi	r2,r2,-128
  801290:	1004c03a 	cmpne	r2,r2,zero
  801294:	1000061e 	bne	r2,zero,8012b0 <tick+0xb78>
  801298:	d0a75c83 	ldbu	r2,-25230(gp)
  80129c:	10803fcc 	andi	r2,r2,255
  8012a0:	1080201c 	xori	r2,r2,128
  8012a4:	10bfe004 	addi	r2,r2,-128
  8012a8:	1005003a 	cmpeq	r2,r2,zero
  8012ac:	1000031e 	bne	r2,zero,8012bc <tick+0xb84>
  8012b0:	00800044 	movi	r2,1
  8012b4:	e0bfe715 	stw	r2,-100(fp)
  8012b8:	00000106 	br	8012c0 <tick+0xb88>
  8012bc:	e03fe715 	stw	zero,-100(fp)
  8012c0:	e0ffe717 	ldw	r3,-100(fp)
  8012c4:	1805883a 	mov	r2,r3
  8012c8:	d0a734c5 	stb	r2,-25389(gp)
      g19 =((g18b&&_cg18)||(g21&&(!(_cg21))));
  8012cc:	d0a75983 	ldbu	r2,-25242(gp)
  8012d0:	10803fcc 	andi	r2,r2,255
  8012d4:	1080201c 	xori	r2,r2,128
  8012d8:	10bfe004 	addi	r2,r2,-128
  8012dc:	1005003a 	cmpeq	r2,r2,zero
  8012e0:	1000061e 	bne	r2,zero,8012fc <tick+0xbc4>
  8012e4:	d0a76243 	ldbu	r2,-25207(gp)
  8012e8:	10803fcc 	andi	r2,r2,255
  8012ec:	1080201c 	xori	r2,r2,128
  8012f0:	10bfe004 	addi	r2,r2,-128
  8012f4:	1004c03a 	cmpne	r2,r2,zero
  8012f8:	10000c1e 	bne	r2,zero,80132c <tick+0xbf4>
  8012fc:	d0a73fc3 	ldbu	r2,-25345(gp)
  801300:	10803fcc 	andi	r2,r2,255
  801304:	1080201c 	xori	r2,r2,128
  801308:	10bfe004 	addi	r2,r2,-128
  80130c:	1005003a 	cmpeq	r2,r2,zero
  801310:	1000091e 	bne	r2,zero,801338 <tick+0xc00>
  801314:	d0a73c83 	ldbu	r2,-25358(gp)
  801318:	10803fcc 	andi	r2,r2,255
  80131c:	1080201c 	xori	r2,r2,128
  801320:	10bfe004 	addi	r2,r2,-128
  801324:	1004c03a 	cmpne	r2,r2,zero
  801328:	1000031e 	bne	r2,zero,801338 <tick+0xc00>
  80132c:	00800044 	movi	r2,1
  801330:	e0bfe615 	stw	r2,-104(fp)
  801334:	00000106 	br	80133c <tick+0xc04>
  801338:	e03fe615 	stw	zero,-104(fp)
  80133c:	e0ffe617 	ldw	r3,-104(fp)
  801340:	1805883a 	mov	r2,r3
  801344:	d0a72605 	stb	r2,-25448(gp)
      g24 = g1;
  801348:	d0a73043 	ldbu	r2,-25407(gp)
  80134c:	d0a76685 	stb	r2,-25190(gp)
      g41 =(PRE_g40);
  801350:	d0a73783 	ldbu	r2,-25378(gp)
  801354:	d0a73685 	stb	r2,-25382(gp)
      _cg41 = URI_TO;
  801358:	d0a76703 	ldbu	r2,-25188(gp)
  80135c:	d0a75545 	stb	r2,-25259(gp)
      g42 =(g41&&_cg41);
  801360:	d0a73683 	ldbu	r2,-25382(gp)
  801364:	10803fcc 	andi	r2,r2,255
  801368:	1080201c 	xori	r2,r2,128
  80136c:	10bfe004 	addi	r2,r2,-128
  801370:	1005003a 	cmpeq	r2,r2,zero
  801374:	1000091e 	bne	r2,zero,80139c <tick+0xc64>
  801378:	d0a75543 	ldbu	r2,-25259(gp)
  80137c:	10803fcc 	andi	r2,r2,255
  801380:	1080201c 	xori	r2,r2,128
  801384:	10bfe004 	addi	r2,r2,-128
  801388:	1005003a 	cmpeq	r2,r2,zero
  80138c:	1000031e 	bne	r2,zero,80139c <tick+0xc64>
  801390:	00800044 	movi	r2,1
  801394:	e0bfe515 	stw	r2,-108(fp)
  801398:	00000106 	br	8013a0 <tick+0xc68>
  80139c:	e03fe515 	stw	zero,-108(fp)
  8013a0:	e0ffe517 	ldw	r3,-108(fp)
  8013a4:	1805883a 	mov	r2,r3
  8013a8:	d0a72a45 	stb	r2,-25431(gp)
      if(g42){
  8013ac:	d0a72a43 	ldbu	r2,-25431(gp)
  8013b0:	10803fcc 	andi	r2,r2,255
  8013b4:	1080201c 	xori	r2,r2,128
  8013b8:	10bfe004 	addi	r2,r2,-128
  8013bc:	1005003a 	cmpeq	r2,r2,zero
  8013c0:	1000021e 	bne	r2,zero,8013cc <tick+0xc94>
         _DDDPacemaker_local_URI_ex =(_DDDPacemaker_local_URI_ex||1);
  8013c4:	00800044 	movi	r2,1
  8013c8:	d0a75805 	stb	r2,-25248(gp)
      }
      g30 =(PRE_g29);
  8013cc:	d0a72d83 	ldbu	r2,-25418(gp)
  8013d0:	d0a75b05 	stb	r2,-25236(gp)
      g30b = g30;
  8013d4:	d0a75b03 	ldbu	r2,-25236(gp)
  8013d8:	d0a73d85 	stb	r2,-25354(gp)
      _cg30 = _DDDPacemaker_local_URI_ex;
  8013dc:	d0a75803 	ldbu	r2,-25248(gp)
  8013e0:	d0a75c05 	stb	r2,-25232(gp)
      g31 =(g30b&&_cg30);
  8013e4:	d0a73d83 	ldbu	r2,-25354(gp)
  8013e8:	10803fcc 	andi	r2,r2,255
  8013ec:	1080201c 	xori	r2,r2,128
  8013f0:	10bfe004 	addi	r2,r2,-128
  8013f4:	1005003a 	cmpeq	r2,r2,zero
  8013f8:	1000091e 	bne	r2,zero,801420 <tick+0xce8>
  8013fc:	d0a75c03 	ldbu	r2,-25232(gp)
  801400:	10803fcc 	andi	r2,r2,255
  801404:	1080201c 	xori	r2,r2,128
  801408:	10bfe004 	addi	r2,r2,-128
  80140c:	1005003a 	cmpeq	r2,r2,zero
  801410:	1000031e 	bne	r2,zero,801420 <tick+0xce8>
  801414:	00800044 	movi	r2,1
  801418:	e0bfe415 	stw	r2,-112(fp)
  80141c:	00000106 	br	801424 <tick+0xcec>
  801420:	e03fe415 	stw	zero,-112(fp)
  801424:	e0ffe417 	ldw	r3,-112(fp)
  801428:	1805883a 	mov	r2,r3
  80142c:	d0a73545 	stb	r2,-25387(gp)
      if(g31){
  801430:	d0a73543 	ldbu	r2,-25387(gp)
  801434:	10803fcc 	andi	r2,r2,255
  801438:	1080201c 	xori	r2,r2,128
  80143c:	10bfe004 	addi	r2,r2,-128
  801440:	1005003a 	cmpeq	r2,r2,zero
  801444:	1000021e 	bne	r2,zero,801450 <tick+0xd18>
         _DDDPacemaker_local_idleURI = 1;
  801448:	00800044 	movi	r2,1
  80144c:	d0a76b45 	stb	r2,-25171(gp)
      }
      g26 =(PRE_g25);
  801450:	d0a743c3 	ldbu	r2,-25329(gp)
  801454:	d0a76a05 	stb	r2,-25176(gp)
      _cg26 = VSense;
  801458:	d0a74803 	ldbu	r2,-25312(gp)
  80145c:	d0a73705 	stb	r2,-25380(gp)
      g34 =(g26&&(!(_cg26)));
  801460:	d0a76a03 	ldbu	r2,-25176(gp)
  801464:	10803fcc 	andi	r2,r2,255
  801468:	1080201c 	xori	r2,r2,128
  80146c:	10bfe004 	addi	r2,r2,-128
  801470:	1005003a 	cmpeq	r2,r2,zero
  801474:	1000091e 	bne	r2,zero,80149c <tick+0xd64>
  801478:	d0a73703 	ldbu	r2,-25380(gp)
  80147c:	10803fcc 	andi	r2,r2,255
  801480:	1080201c 	xori	r2,r2,128
  801484:	10bfe004 	addi	r2,r2,-128
  801488:	1004c03a 	cmpne	r2,r2,zero
  80148c:	1000031e 	bne	r2,zero,80149c <tick+0xd64>
  801490:	00800044 	movi	r2,1
  801494:	e0bfe315 	stw	r2,-116(fp)
  801498:	00000106 	br	8014a0 <tick+0xd68>
  80149c:	e03fe315 	stw	zero,-116(fp)
  8014a0:	e0ffe317 	ldw	r3,-116(fp)
  8014a4:	1805883a 	mov	r2,r3
  8014a8:	d0a74145 	stb	r2,-25339(gp)
      _cg34 = VPace;
  8014ac:	d0a76403 	ldbu	r2,-25200(gp)
  8014b0:	d0a738c5 	stb	r2,-25373(gp)
      g25 =(g24||g31||(g34&&(!(_cg34))));
  8014b4:	d0a76683 	ldbu	r2,-25190(gp)
  8014b8:	10803fcc 	andi	r2,r2,255
  8014bc:	1080201c 	xori	r2,r2,128
  8014c0:	10bfe004 	addi	r2,r2,-128
  8014c4:	1004c03a 	cmpne	r2,r2,zero
  8014c8:	1000121e 	bne	r2,zero,801514 <tick+0xddc>
  8014cc:	d0a73543 	ldbu	r2,-25387(gp)
  8014d0:	10803fcc 	andi	r2,r2,255
  8014d4:	1080201c 	xori	r2,r2,128
  8014d8:	10bfe004 	addi	r2,r2,-128
  8014dc:	1004c03a 	cmpne	r2,r2,zero
  8014e0:	10000c1e 	bne	r2,zero,801514 <tick+0xddc>
  8014e4:	d0a74143 	ldbu	r2,-25339(gp)
  8014e8:	10803fcc 	andi	r2,r2,255
  8014ec:	1080201c 	xori	r2,r2,128
  8014f0:	10bfe004 	addi	r2,r2,-128
  8014f4:	1005003a 	cmpeq	r2,r2,zero
  8014f8:	1000091e 	bne	r2,zero,801520 <tick+0xde8>
  8014fc:	d0a738c3 	ldbu	r2,-25373(gp)
  801500:	10803fcc 	andi	r2,r2,255
  801504:	1080201c 	xori	r2,r2,128
  801508:	10bfe004 	addi	r2,r2,-128
  80150c:	1004c03a 	cmpne	r2,r2,zero
  801510:	1000031e 	bne	r2,zero,801520 <tick+0xde8>
  801514:	00800044 	movi	r2,1
  801518:	e0bfe215 	stw	r2,-120(fp)
  80151c:	00000106 	br	801524 <tick+0xdec>
  801520:	e03fe215 	stw	zero,-120(fp)
  801524:	e0ffe217 	ldw	r3,-120(fp)
  801528:	1805883a 	mov	r2,r3
  80152c:	d0a75e05 	stb	r2,-25224(gp)
      g27 =(g26&&_cg26);
  801530:	d0a76a03 	ldbu	r2,-25176(gp)
  801534:	10803fcc 	andi	r2,r2,255
  801538:	1080201c 	xori	r2,r2,128
  80153c:	10bfe004 	addi	r2,r2,-128
  801540:	1005003a 	cmpeq	r2,r2,zero
  801544:	1000091e 	bne	r2,zero,80156c <tick+0xe34>
  801548:	d0a73703 	ldbu	r2,-25380(gp)
  80154c:	10803fcc 	andi	r2,r2,255
  801550:	1080201c 	xori	r2,r2,128
  801554:	10bfe004 	addi	r2,r2,-128
  801558:	1005003a 	cmpeq	r2,r2,zero
  80155c:	1000031e 	bne	r2,zero,80156c <tick+0xe34>
  801560:	00800044 	movi	r2,1
  801564:	e0bfe115 	stw	r2,-124(fp)
  801568:	00000106 	br	801570 <tick+0xe38>
  80156c:	e03fe115 	stw	zero,-124(fp)
  801570:	e0ffe117 	ldw	r3,-124(fp)
  801574:	1805883a 	mov	r2,r3
  801578:	d0a727c5 	stb	r2,-25441(gp)
      if(g27){
  80157c:	d0a727c3 	ldbu	r2,-25441(gp)
  801580:	10803fcc 	andi	r2,r2,255
  801584:	1080201c 	xori	r2,r2,128
  801588:	10bfe004 	addi	r2,r2,-128
  80158c:	1005003a 	cmpeq	r2,r2,zero
  801590:	1000011e 	bne	r2,zero,801598 <tick+0xe60>
         _DDDPacemaker_local_idleURI = 0;
  801594:	d0276b45 	stb	zero,-25171(gp)
      }
      g35 =(g34&&_cg34);
  801598:	d0a74143 	ldbu	r2,-25339(gp)
  80159c:	10803fcc 	andi	r2,r2,255
  8015a0:	1080201c 	xori	r2,r2,128
  8015a4:	10bfe004 	addi	r2,r2,-128
  8015a8:	1005003a 	cmpeq	r2,r2,zero
  8015ac:	1000091e 	bne	r2,zero,8015d4 <tick+0xe9c>
  8015b0:	d0a738c3 	ldbu	r2,-25373(gp)
  8015b4:	10803fcc 	andi	r2,r2,255
  8015b8:	1080201c 	xori	r2,r2,128
  8015bc:	10bfe004 	addi	r2,r2,-128
  8015c0:	1005003a 	cmpeq	r2,r2,zero
  8015c4:	1000031e 	bne	r2,zero,8015d4 <tick+0xe9c>
  8015c8:	00800044 	movi	r2,1
  8015cc:	e0bfe015 	stw	r2,-128(fp)
  8015d0:	00000106 	br	8015d8 <tick+0xea0>
  8015d4:	e03fe015 	stw	zero,-128(fp)
  8015d8:	e0ffe017 	ldw	r3,-128(fp)
  8015dc:	1805883a 	mov	r2,r3
  8015e0:	d0a74c05 	stb	r2,-25296(gp)
      if(g35){
  8015e4:	d0a74c03 	ldbu	r2,-25296(gp)
  8015e8:	10803fcc 	andi	r2,r2,255
  8015ec:	1080201c 	xori	r2,r2,128
  8015f0:	10bfe004 	addi	r2,r2,-128
  8015f4:	1005003a 	cmpeq	r2,r2,zero
  8015f8:	1000011e 	bne	r2,zero,801600 <tick+0xec8>
         _DDDPacemaker_local_idleURI = 0;
  8015fc:	d0276b45 	stb	zero,-25171(gp)
      }
      g28 =(g27||g35);
  801600:	d0a727c3 	ldbu	r2,-25441(gp)
  801604:	10803fcc 	andi	r2,r2,255
  801608:	1080201c 	xori	r2,r2,128
  80160c:	10bfe004 	addi	r2,r2,-128
  801610:	1004c03a 	cmpne	r2,r2,zero
  801614:	1000061e 	bne	r2,zero,801630 <tick+0xef8>
  801618:	d0a74c03 	ldbu	r2,-25296(gp)
  80161c:	10803fcc 	andi	r2,r2,255
  801620:	1080201c 	xori	r2,r2,128
  801624:	10bfe004 	addi	r2,r2,-128
  801628:	1005003a 	cmpeq	r2,r2,zero
  80162c:	1000031e 	bne	r2,zero,80163c <tick+0xf04>
  801630:	00800044 	movi	r2,1
  801634:	e0bfdf15 	stw	r2,-132(fp)
  801638:	00000106 	br	801640 <tick+0xf08>
  80163c:	e03fdf15 	stw	zero,-132(fp)
  801640:	e0ffdf17 	ldw	r3,-132(fp)
  801644:	1805883a 	mov	r2,r3
  801648:	d0a75f45 	stb	r2,-25219(gp)
      if(g28){
  80164c:	d0a75f43 	ldbu	r2,-25219(gp)
  801650:	10803fcc 	andi	r2,r2,255
  801654:	1080201c 	xori	r2,r2,128
  801658:	10bfe004 	addi	r2,r2,-128
  80165c:	1005003a 	cmpeq	r2,r2,zero
  801660:	1000021e 	bne	r2,zero,80166c <tick+0xf34>
         _DDDPacemaker_local_URI_start =(_DDDPacemaker_local_URI_start||1);
  801664:	00800044 	movi	r2,1
  801668:	d0a73d05 	stb	r2,-25356(gp)
      }
      g32 =(g30b&&(!(_cg30)));
  80166c:	d0a73d83 	ldbu	r2,-25354(gp)
  801670:	10803fcc 	andi	r2,r2,255
  801674:	1080201c 	xori	r2,r2,128
  801678:	10bfe004 	addi	r2,r2,-128
  80167c:	1005003a 	cmpeq	r2,r2,zero
  801680:	1000091e 	bne	r2,zero,8016a8 <tick+0xf70>
  801684:	d0a75c03 	ldbu	r2,-25232(gp)
  801688:	10803fcc 	andi	r2,r2,255
  80168c:	1080201c 	xori	r2,r2,128
  801690:	10bfe004 	addi	r2,r2,-128
  801694:	1004c03a 	cmpne	r2,r2,zero
  801698:	1000031e 	bne	r2,zero,8016a8 <tick+0xf70>
  80169c:	00800044 	movi	r2,1
  8016a0:	e0bfde15 	stw	r2,-136(fp)
  8016a4:	00000106 	br	8016ac <tick+0xf74>
  8016a8:	e03fde15 	stw	zero,-136(fp)
  8016ac:	e0ffde17 	ldw	r3,-136(fp)
  8016b0:	1805883a 	mov	r2,r3
  8016b4:	d0a760c5 	stb	r2,-25213(gp)
      _cg32 = VPace;
  8016b8:	d0a76403 	ldbu	r2,-25200(gp)
  8016bc:	d0a76805 	stb	r2,-25184(gp)
      g33 =(g32&&(!(_cg32)));
  8016c0:	d0a760c3 	ldbu	r2,-25213(gp)
  8016c4:	10803fcc 	andi	r2,r2,255
  8016c8:	1080201c 	xori	r2,r2,128
  8016cc:	10bfe004 	addi	r2,r2,-128
  8016d0:	1005003a 	cmpeq	r2,r2,zero
  8016d4:	1000091e 	bne	r2,zero,8016fc <tick+0xfc4>
  8016d8:	d0a76803 	ldbu	r2,-25184(gp)
  8016dc:	10803fcc 	andi	r2,r2,255
  8016e0:	1080201c 	xori	r2,r2,128
  8016e4:	10bfe004 	addi	r2,r2,-128
  8016e8:	1004c03a 	cmpne	r2,r2,zero
  8016ec:	1000031e 	bne	r2,zero,8016fc <tick+0xfc4>
  8016f0:	00800044 	movi	r2,1
  8016f4:	e0bfdd15 	stw	r2,-140(fp)
  8016f8:	00000106 	br	801700 <tick+0xfc8>
  8016fc:	e03fdd15 	stw	zero,-140(fp)
  801700:	e0ffdd17 	ldw	r3,-140(fp)
  801704:	1805883a 	mov	r2,r3
  801708:	d0a748c5 	stb	r2,-25309(gp)
      _cg33 = VSense;
  80170c:	d0a74803 	ldbu	r2,-25312(gp)
  801710:	d0a73285 	stb	r2,-25398(gp)
      g29 =(g28||(g33&&_cg33)||(g32&&_cg32)||(g33&&_cg33));
  801714:	d0a75f43 	ldbu	r2,-25219(gp)
  801718:	10803fcc 	andi	r2,r2,255
  80171c:	1080201c 	xori	r2,r2,128
  801720:	10bfe004 	addi	r2,r2,-128
  801724:	1004c03a 	cmpne	r2,r2,zero
  801728:	1000241e 	bne	r2,zero,8017bc <tick+0x1084>
  80172c:	d0a748c3 	ldbu	r2,-25309(gp)
  801730:	10803fcc 	andi	r2,r2,255
  801734:	1080201c 	xori	r2,r2,128
  801738:	10bfe004 	addi	r2,r2,-128
  80173c:	1005003a 	cmpeq	r2,r2,zero
  801740:	1000061e 	bne	r2,zero,80175c <tick+0x1024>
  801744:	d0a73283 	ldbu	r2,-25398(gp)
  801748:	10803fcc 	andi	r2,r2,255
  80174c:	1080201c 	xori	r2,r2,128
  801750:	10bfe004 	addi	r2,r2,-128
  801754:	1004c03a 	cmpne	r2,r2,zero
  801758:	1000181e 	bne	r2,zero,8017bc <tick+0x1084>
  80175c:	d0a760c3 	ldbu	r2,-25213(gp)
  801760:	10803fcc 	andi	r2,r2,255
  801764:	1080201c 	xori	r2,r2,128
  801768:	10bfe004 	addi	r2,r2,-128
  80176c:	1005003a 	cmpeq	r2,r2,zero
  801770:	1000061e 	bne	r2,zero,80178c <tick+0x1054>
  801774:	d0a76803 	ldbu	r2,-25184(gp)
  801778:	10803fcc 	andi	r2,r2,255
  80177c:	1080201c 	xori	r2,r2,128
  801780:	10bfe004 	addi	r2,r2,-128
  801784:	1004c03a 	cmpne	r2,r2,zero
  801788:	10000c1e 	bne	r2,zero,8017bc <tick+0x1084>
  80178c:	d0a748c3 	ldbu	r2,-25309(gp)
  801790:	10803fcc 	andi	r2,r2,255
  801794:	1080201c 	xori	r2,r2,128
  801798:	10bfe004 	addi	r2,r2,-128
  80179c:	1005003a 	cmpeq	r2,r2,zero
  8017a0:	1000091e 	bne	r2,zero,8017c8 <tick+0x1090>
  8017a4:	d0a73283 	ldbu	r2,-25398(gp)
  8017a8:	10803fcc 	andi	r2,r2,255
  8017ac:	1080201c 	xori	r2,r2,128
  8017b0:	10bfe004 	addi	r2,r2,-128
  8017b4:	1005003a 	cmpeq	r2,r2,zero
  8017b8:	1000031e 	bne	r2,zero,8017c8 <tick+0x1090>
  8017bc:	00800044 	movi	r2,1
  8017c0:	e0bfdc15 	stw	r2,-144(fp)
  8017c4:	00000106 	br	8017cc <tick+0x1094>
  8017c8:	e03fdc15 	stw	zero,-144(fp)
  8017cc:	e0ffdc17 	ldw	r3,-144(fp)
  8017d0:	1805883a 	mov	r2,r3
  8017d4:	d0a76605 	stb	r2,-25192(gp)
      g37 = g1;
  8017d8:	d0a73043 	ldbu	r2,-25407(gp)
  8017dc:	d0a73585 	stb	r2,-25386(gp)
      g39 =(PRE_g38);
  8017e0:	d0a72683 	ldbu	r2,-25446(gp)
  8017e4:	d0a76485 	stb	r2,-25198(gp)
      g39b = g39;
  8017e8:	d0a76483 	ldbu	r2,-25198(gp)
  8017ec:	d0a73205 	stb	r2,-25400(gp)
      _cg39 = _DDDPacemaker_local_URI_start;
  8017f0:	d0a73d03 	ldbu	r2,-25356(gp)
  8017f4:	d0a76a85 	stb	r2,-25174(gp)
      g38 =(g42||(g39b&&(!(_cg39)))||g37);
  8017f8:	d0a72a43 	ldbu	r2,-25431(gp)
  8017fc:	10803fcc 	andi	r2,r2,255
  801800:	1080201c 	xori	r2,r2,128
  801804:	10bfe004 	addi	r2,r2,-128
  801808:	1004c03a 	cmpne	r2,r2,zero
  80180c:	1000121e 	bne	r2,zero,801858 <tick+0x1120>
  801810:	d0a73203 	ldbu	r2,-25400(gp)
  801814:	10803fcc 	andi	r2,r2,255
  801818:	1080201c 	xori	r2,r2,128
  80181c:	10bfe004 	addi	r2,r2,-128
  801820:	1005003a 	cmpeq	r2,r2,zero
  801824:	1000061e 	bne	r2,zero,801840 <tick+0x1108>
  801828:	d0a76a83 	ldbu	r2,-25174(gp)
  80182c:	10803fcc 	andi	r2,r2,255
  801830:	1080201c 	xori	r2,r2,128
  801834:	10bfe004 	addi	r2,r2,-128
  801838:	1005003a 	cmpeq	r2,r2,zero
  80183c:	1000061e 	bne	r2,zero,801858 <tick+0x1120>
  801840:	d0a73583 	ldbu	r2,-25386(gp)
  801844:	10803fcc 	andi	r2,r2,255
  801848:	1080201c 	xori	r2,r2,128
  80184c:	10bfe004 	addi	r2,r2,-128
  801850:	1005003a 	cmpeq	r2,r2,zero
  801854:	1000031e 	bne	r2,zero,801864 <tick+0x112c>
  801858:	00800044 	movi	r2,1
  80185c:	e0bfdb15 	stw	r2,-148(fp)
  801860:	00000106 	br	801868 <tick+0x1130>
  801864:	e03fdb15 	stw	zero,-148(fp)
  801868:	e0ffdb17 	ldw	r3,-148(fp)
  80186c:	1805883a 	mov	r2,r3
  801870:	d0a73b85 	stb	r2,-25362(gp)
      g40 =((g41&&(!(_cg41)))||(g39b&&_cg39));
  801874:	d0a73683 	ldbu	r2,-25382(gp)
  801878:	10803fcc 	andi	r2,r2,255
  80187c:	1080201c 	xori	r2,r2,128
  801880:	10bfe004 	addi	r2,r2,-128
  801884:	1005003a 	cmpeq	r2,r2,zero
  801888:	1000061e 	bne	r2,zero,8018a4 <tick+0x116c>
  80188c:	d0a75543 	ldbu	r2,-25259(gp)
  801890:	10803fcc 	andi	r2,r2,255
  801894:	1080201c 	xori	r2,r2,128
  801898:	10bfe004 	addi	r2,r2,-128
  80189c:	1005003a 	cmpeq	r2,r2,zero
  8018a0:	10000c1e 	bne	r2,zero,8018d4 <tick+0x119c>
  8018a4:	d0a73203 	ldbu	r2,-25400(gp)
  8018a8:	10803fcc 	andi	r2,r2,255
  8018ac:	1080201c 	xori	r2,r2,128
  8018b0:	10bfe004 	addi	r2,r2,-128
  8018b4:	1005003a 	cmpeq	r2,r2,zero
  8018b8:	1000091e 	bne	r2,zero,8018e0 <tick+0x11a8>
  8018bc:	d0a76a83 	ldbu	r2,-25174(gp)
  8018c0:	10803fcc 	andi	r2,r2,255
  8018c4:	1080201c 	xori	r2,r2,128
  8018c8:	10bfe004 	addi	r2,r2,-128
  8018cc:	1005003a 	cmpeq	r2,r2,zero
  8018d0:	1000031e 	bne	r2,zero,8018e0 <tick+0x11a8>
  8018d4:	00800044 	movi	r2,1
  8018d8:	e0bfda15 	stw	r2,-152(fp)
  8018dc:	00000106 	br	8018e4 <tick+0x11ac>
  8018e0:	e03fda15 	stw	zero,-152(fp)
  8018e4:	e0ffda17 	ldw	r3,-152(fp)
  8018e8:	1805883a 	mov	r2,r3
  8018ec:	d0a72445 	stb	r2,-25455(gp)
      g44 = g1;
  8018f0:	d0a73043 	ldbu	r2,-25407(gp)
  8018f4:	d0a72e85 	stb	r2,-25414(gp)
      g46 =(PRE_g45);
  8018f8:	d0a76283 	ldbu	r2,-25206(gp)
  8018fc:	d0a75205 	stb	r2,-25272(gp)
      _cg46 = VSense;
  801900:	d0a74803 	ldbu	r2,-25312(gp)
  801904:	d0a73445 	stb	r2,-25391(gp)
      g53 =(g46&&(!(_cg46)));
  801908:	d0a75203 	ldbu	r2,-25272(gp)
  80190c:	10803fcc 	andi	r2,r2,255
  801910:	1080201c 	xori	r2,r2,128
  801914:	10bfe004 	addi	r2,r2,-128
  801918:	1005003a 	cmpeq	r2,r2,zero
  80191c:	1000091e 	bne	r2,zero,801944 <tick+0x120c>
  801920:	d0a73443 	ldbu	r2,-25391(gp)
  801924:	10803fcc 	andi	r2,r2,255
  801928:	1080201c 	xori	r2,r2,128
  80192c:	10bfe004 	addi	r2,r2,-128
  801930:	1004c03a 	cmpne	r2,r2,zero
  801934:	1000031e 	bne	r2,zero,801944 <tick+0x120c>
  801938:	00800044 	movi	r2,1
  80193c:	e0bfd915 	stw	r2,-156(fp)
  801940:	00000106 	br	801948 <tick+0x1210>
  801944:	e03fd915 	stw	zero,-156(fp)
  801948:	e0ffd917 	ldw	r3,-156(fp)
  80194c:	1805883a 	mov	r2,r3
  801950:	d0a75645 	stb	r2,-25255(gp)
      _cg53 = VPace;
  801954:	d0a76403 	ldbu	r2,-25200(gp)
  801958:	d0a74305 	stb	r2,-25332(gp)
      g45 =(g50||g44||(g53&&(!(_cg53))));
  80195c:	d0a75303 	ldbu	r2,-25268(gp)
  801960:	10803fcc 	andi	r2,r2,255
  801964:	1080201c 	xori	r2,r2,128
  801968:	10bfe004 	addi	r2,r2,-128
  80196c:	1004c03a 	cmpne	r2,r2,zero
  801970:	1000121e 	bne	r2,zero,8019bc <tick+0x1284>
  801974:	d0a72e83 	ldbu	r2,-25414(gp)
  801978:	10803fcc 	andi	r2,r2,255
  80197c:	1080201c 	xori	r2,r2,128
  801980:	10bfe004 	addi	r2,r2,-128
  801984:	1004c03a 	cmpne	r2,r2,zero
  801988:	10000c1e 	bne	r2,zero,8019bc <tick+0x1284>
  80198c:	d0a75643 	ldbu	r2,-25255(gp)
  801990:	10803fcc 	andi	r2,r2,255
  801994:	1080201c 	xori	r2,r2,128
  801998:	10bfe004 	addi	r2,r2,-128
  80199c:	1005003a 	cmpeq	r2,r2,zero
  8019a0:	1000091e 	bne	r2,zero,8019c8 <tick+0x1290>
  8019a4:	d0a74303 	ldbu	r2,-25332(gp)
  8019a8:	10803fcc 	andi	r2,r2,255
  8019ac:	1080201c 	xori	r2,r2,128
  8019b0:	10bfe004 	addi	r2,r2,-128
  8019b4:	1004c03a 	cmpne	r2,r2,zero
  8019b8:	1000031e 	bne	r2,zero,8019c8 <tick+0x1290>
  8019bc:	00800044 	movi	r2,1
  8019c0:	e0bfd815 	stw	r2,-160(fp)
  8019c4:	00000106 	br	8019cc <tick+0x1294>
  8019c8:	e03fd815 	stw	zero,-160(fp)
  8019cc:	e0ffd817 	ldw	r3,-160(fp)
  8019d0:	1805883a 	mov	r2,r3
  8019d4:	d0a761c5 	stb	r2,-25209(gp)
      g47 =((g46&&_cg46)||(g53&&_cg53));
  8019d8:	d0a75203 	ldbu	r2,-25272(gp)
  8019dc:	10803fcc 	andi	r2,r2,255
  8019e0:	1080201c 	xori	r2,r2,128
  8019e4:	10bfe004 	addi	r2,r2,-128
  8019e8:	1005003a 	cmpeq	r2,r2,zero
  8019ec:	1000061e 	bne	r2,zero,801a08 <tick+0x12d0>
  8019f0:	d0a73443 	ldbu	r2,-25391(gp)
  8019f4:	10803fcc 	andi	r2,r2,255
  8019f8:	1080201c 	xori	r2,r2,128
  8019fc:	10bfe004 	addi	r2,r2,-128
  801a00:	1004c03a 	cmpne	r2,r2,zero
  801a04:	10000c1e 	bne	r2,zero,801a38 <tick+0x1300>
  801a08:	d0a75643 	ldbu	r2,-25255(gp)
  801a0c:	10803fcc 	andi	r2,r2,255
  801a10:	1080201c 	xori	r2,r2,128
  801a14:	10bfe004 	addi	r2,r2,-128
  801a18:	1005003a 	cmpeq	r2,r2,zero
  801a1c:	1000091e 	bne	r2,zero,801a44 <tick+0x130c>
  801a20:	d0a74303 	ldbu	r2,-25332(gp)
  801a24:	10803fcc 	andi	r2,r2,255
  801a28:	1080201c 	xori	r2,r2,128
  801a2c:	10bfe004 	addi	r2,r2,-128
  801a30:	1005003a 	cmpeq	r2,r2,zero
  801a34:	1000031e 	bne	r2,zero,801a44 <tick+0x130c>
  801a38:	00800044 	movi	r2,1
  801a3c:	e0bfd715 	stw	r2,-164(fp)
  801a40:	00000106 	br	801a48 <tick+0x1310>
  801a44:	e03fd715 	stw	zero,-164(fp)
  801a48:	e0ffd717 	ldw	r3,-164(fp)
  801a4c:	1805883a 	mov	r2,r3
  801a50:	d0a72a05 	stb	r2,-25432(gp)
      if(g47){
  801a54:	d0a72a03 	ldbu	r2,-25432(gp)
  801a58:	10803fcc 	andi	r2,r2,255
  801a5c:	1080201c 	xori	r2,r2,128
  801a60:	10bfe004 	addi	r2,r2,-128
  801a64:	1005003a 	cmpeq	r2,r2,zero
  801a68:	1000021e 	bne	r2,zero,801a74 <tick+0x133c>
         _DDDPacemaker_local_VRP_start =(_DDDPacemaker_local_VRP_start||1);
  801a6c:	00800044 	movi	r2,1
  801a70:	d0a75c45 	stb	r2,-25231(gp)
      }
      g48 =((g51&&(!(_cg51)))||g47||g52);
  801a74:	d0a75383 	ldbu	r2,-25266(gp)
  801a78:	10803fcc 	andi	r2,r2,255
  801a7c:	1080201c 	xori	r2,r2,128
  801a80:	10bfe004 	addi	r2,r2,-128
  801a84:	1005003a 	cmpeq	r2,r2,zero
  801a88:	1000061e 	bne	r2,zero,801aa4 <tick+0x136c>
  801a8c:	d0a74043 	ldbu	r2,-25343(gp)
  801a90:	10803fcc 	andi	r2,r2,255
  801a94:	1080201c 	xori	r2,r2,128
  801a98:	10bfe004 	addi	r2,r2,-128
  801a9c:	1005003a 	cmpeq	r2,r2,zero
  801aa0:	10000c1e 	bne	r2,zero,801ad4 <tick+0x139c>
  801aa4:	d0a72a03 	ldbu	r2,-25432(gp)
  801aa8:	10803fcc 	andi	r2,r2,255
  801aac:	1080201c 	xori	r2,r2,128
  801ab0:	10bfe004 	addi	r2,r2,-128
  801ab4:	1004c03a 	cmpne	r2,r2,zero
  801ab8:	1000061e 	bne	r2,zero,801ad4 <tick+0x139c>
  801abc:	d0a73383 	ldbu	r2,-25394(gp)
  801ac0:	10803fcc 	andi	r2,r2,255
  801ac4:	1080201c 	xori	r2,r2,128
  801ac8:	10bfe004 	addi	r2,r2,-128
  801acc:	1005003a 	cmpeq	r2,r2,zero
  801ad0:	1000031e 	bne	r2,zero,801ae0 <tick+0x13a8>
  801ad4:	00800044 	movi	r2,1
  801ad8:	e0bfd615 	stw	r2,-168(fp)
  801adc:	00000106 	br	801ae4 <tick+0x13ac>
  801ae0:	e03fd615 	stw	zero,-168(fp)
  801ae4:	e0ffd617 	ldw	r3,-168(fp)
  801ae8:	1805883a 	mov	r2,r3
  801aec:	d0a73a05 	stb	r2,-25368(gp)
      g55 = g1;
  801af0:	d0a73043 	ldbu	r2,-25407(gp)
  801af4:	d0a72745 	stb	r2,-25443(gp)
      g57 =(PRE_g56);
  801af8:	d0a72e03 	ldbu	r2,-25416(gp)
  801afc:	d0a75705 	stb	r2,-25252(gp)
      g57b = g57;
  801b00:	d0a75703 	ldbu	r2,-25252(gp)
  801b04:	d0a75285 	stb	r2,-25270(gp)
      _cg57 = _DDDPacemaker_local_VRP_start;
  801b08:	d0a75c43 	ldbu	r2,-25231(gp)
  801b0c:	d0a75d85 	stb	r2,-25226(gp)
      g56 =(g60||g55||(g57b&&(!(_cg57))));
  801b10:	d0a74f03 	ldbu	r2,-25284(gp)
  801b14:	10803fcc 	andi	r2,r2,255
  801b18:	1080201c 	xori	r2,r2,128
  801b1c:	10bfe004 	addi	r2,r2,-128
  801b20:	1004c03a 	cmpne	r2,r2,zero
  801b24:	1000121e 	bne	r2,zero,801b70 <tick+0x1438>
  801b28:	d0a72743 	ldbu	r2,-25443(gp)
  801b2c:	10803fcc 	andi	r2,r2,255
  801b30:	1080201c 	xori	r2,r2,128
  801b34:	10bfe004 	addi	r2,r2,-128
  801b38:	1004c03a 	cmpne	r2,r2,zero
  801b3c:	10000c1e 	bne	r2,zero,801b70 <tick+0x1438>
  801b40:	d0a75283 	ldbu	r2,-25270(gp)
  801b44:	10803fcc 	andi	r2,r2,255
  801b48:	1080201c 	xori	r2,r2,128
  801b4c:	10bfe004 	addi	r2,r2,-128
  801b50:	1005003a 	cmpeq	r2,r2,zero
  801b54:	1000091e 	bne	r2,zero,801b7c <tick+0x1444>
  801b58:	d0a75d83 	ldbu	r2,-25226(gp)
  801b5c:	10803fcc 	andi	r2,r2,255
  801b60:	1080201c 	xori	r2,r2,128
  801b64:	10bfe004 	addi	r2,r2,-128
  801b68:	1004c03a 	cmpne	r2,r2,zero
  801b6c:	1000031e 	bne	r2,zero,801b7c <tick+0x1444>
  801b70:	00800044 	movi	r2,1
  801b74:	e0bfd515 	stw	r2,-172(fp)
  801b78:	00000106 	br	801b80 <tick+0x1448>
  801b7c:	e03fd515 	stw	zero,-172(fp)
  801b80:	e0ffd517 	ldw	r3,-172(fp)
  801b84:	1805883a 	mov	r2,r3
  801b88:	d0a74745 	stb	r2,-25315(gp)
      g58 =((g57b&&_cg57)||(g59&&(!(_cg59))));
  801b8c:	d0a75283 	ldbu	r2,-25270(gp)
  801b90:	10803fcc 	andi	r2,r2,255
  801b94:	1080201c 	xori	r2,r2,128
  801b98:	10bfe004 	addi	r2,r2,-128
  801b9c:	1005003a 	cmpeq	r2,r2,zero
  801ba0:	1000061e 	bne	r2,zero,801bbc <tick+0x1484>
  801ba4:	d0a75d83 	ldbu	r2,-25226(gp)
  801ba8:	10803fcc 	andi	r2,r2,255
  801bac:	1080201c 	xori	r2,r2,128
  801bb0:	10bfe004 	addi	r2,r2,-128
  801bb4:	1004c03a 	cmpne	r2,r2,zero
  801bb8:	10000c1e 	bne	r2,zero,801bec <tick+0x14b4>
  801bbc:	d0a74483 	ldbu	r2,-25326(gp)
  801bc0:	10803fcc 	andi	r2,r2,255
  801bc4:	1080201c 	xori	r2,r2,128
  801bc8:	10bfe004 	addi	r2,r2,-128
  801bcc:	1005003a 	cmpeq	r2,r2,zero
  801bd0:	1000091e 	bne	r2,zero,801bf8 <tick+0x14c0>
  801bd4:	d0a72783 	ldbu	r2,-25442(gp)
  801bd8:	10803fcc 	andi	r2,r2,255
  801bdc:	1080201c 	xori	r2,r2,128
  801be0:	10bfe004 	addi	r2,r2,-128
  801be4:	1004c03a 	cmpne	r2,r2,zero
  801be8:	1000031e 	bne	r2,zero,801bf8 <tick+0x14c0>
  801bec:	00800044 	movi	r2,1
  801bf0:	e0bfd415 	stw	r2,-176(fp)
  801bf4:	00000106 	br	801bfc <tick+0x14c4>
  801bf8:	e03fd415 	stw	zero,-176(fp)
  801bfc:	e0ffd417 	ldw	r3,-176(fp)
  801c00:	1805883a 	mov	r2,r3
  801c04:	d0a75d05 	stb	r2,-25228(gp)
      g62 = g1;
  801c08:	d0a73043 	ldbu	r2,-25407(gp)
  801c0c:	d0a73605 	stb	r2,-25384(gp)
      g77 =(PRE_g76);
  801c10:	d0a75943 	ldbu	r2,-25243(gp)
  801c14:	d0a76085 	stb	r2,-25214(gp)
      _cg77 = PVARP_TO;
  801c18:	d0a76103 	ldbu	r2,-25212(gp)
  801c1c:	d0a75d45 	stb	r2,-25227(gp)
      g78 =(g77&&_cg77);
  801c20:	d0a76083 	ldbu	r2,-25214(gp)
  801c24:	10803fcc 	andi	r2,r2,255
  801c28:	1080201c 	xori	r2,r2,128
  801c2c:	10bfe004 	addi	r2,r2,-128
  801c30:	1005003a 	cmpeq	r2,r2,zero
  801c34:	1000091e 	bne	r2,zero,801c5c <tick+0x1524>
  801c38:	d0a75d43 	ldbu	r2,-25227(gp)
  801c3c:	10803fcc 	andi	r2,r2,255
  801c40:	1080201c 	xori	r2,r2,128
  801c44:	10bfe004 	addi	r2,r2,-128
  801c48:	1005003a 	cmpeq	r2,r2,zero
  801c4c:	1000031e 	bne	r2,zero,801c5c <tick+0x1524>
  801c50:	00800044 	movi	r2,1
  801c54:	e0bfd315 	stw	r2,-180(fp)
  801c58:	00000106 	br	801c60 <tick+0x1528>
  801c5c:	e03fd315 	stw	zero,-180(fp)
  801c60:	e0ffd317 	ldw	r3,-180(fp)
  801c64:	1805883a 	mov	r2,r3
  801c68:	d0a74885 	stb	r2,-25310(gp)
      if(g78){
  801c6c:	d0a74883 	ldbu	r2,-25310(gp)
  801c70:	10803fcc 	andi	r2,r2,255
  801c74:	1080201c 	xori	r2,r2,128
  801c78:	10bfe004 	addi	r2,r2,-128
  801c7c:	1005003a 	cmpeq	r2,r2,zero
  801c80:	1000021e 	bne	r2,zero,801c8c <tick+0x1554>
         _DDDPacemaker_local_PVARP_ex =(_DDDPacemaker_local_PVARP_ex||1);
  801c84:	00800044 	movi	r2,1
  801c88:	d0a745c5 	stb	r2,-25321(gp)
      }
      g67 =(PRE_g66);
  801c8c:	d0a75bc3 	ldbu	r2,-25233(gp)
  801c90:	d0a76645 	stb	r2,-25191(gp)
      g67b = g67;
  801c94:	d0a76643 	ldbu	r2,-25191(gp)
  801c98:	d0a73b45 	stb	r2,-25363(gp)
      _cg67 = _DDDPacemaker_local_PVARP_ex;
  801c9c:	d0a745c3 	ldbu	r2,-25321(gp)
  801ca0:	d0a768c5 	stb	r2,-25181(gp)
      g68 =(g67b&&_cg67);
  801ca4:	d0a73b43 	ldbu	r2,-25363(gp)
  801ca8:	10803fcc 	andi	r2,r2,255
  801cac:	1080201c 	xori	r2,r2,128
  801cb0:	10bfe004 	addi	r2,r2,-128
  801cb4:	1005003a 	cmpeq	r2,r2,zero
  801cb8:	1000091e 	bne	r2,zero,801ce0 <tick+0x15a8>
  801cbc:	d0a768c3 	ldbu	r2,-25181(gp)
  801cc0:	10803fcc 	andi	r2,r2,255
  801cc4:	1080201c 	xori	r2,r2,128
  801cc8:	10bfe004 	addi	r2,r2,-128
  801ccc:	1005003a 	cmpeq	r2,r2,zero
  801cd0:	1000031e 	bne	r2,zero,801ce0 <tick+0x15a8>
  801cd4:	00800044 	movi	r2,1
  801cd8:	e0bfd215 	stw	r2,-184(fp)
  801cdc:	00000106 	br	801ce4 <tick+0x15ac>
  801ce0:	e03fd215 	stw	zero,-184(fp)
  801ce4:	e0ffd217 	ldw	r3,-184(fp)
  801ce8:	1805883a 	mov	r2,r3
  801cec:	d0a75dc5 	stb	r2,-25225(gp)
      if(g68){
  801cf0:	d0a75dc3 	ldbu	r2,-25225(gp)
  801cf4:	10803fcc 	andi	r2,r2,255
  801cf8:	1080201c 	xori	r2,r2,128
  801cfc:	10bfe004 	addi	r2,r2,-128
  801d00:	1005003a 	cmpeq	r2,r2,zero
  801d04:	1000011e 	bne	r2,zero,801d0c <tick+0x15d4>
         _DDDPacemaker_local_AR = 0;
  801d08:	d0274005 	stb	zero,-25344(gp)
      }
      g64 =(PRE_g63);
  801d0c:	d0a72943 	ldbu	r2,-25435(gp)
  801d10:	d0a73f85 	stb	r2,-25346(gp)
      _cg64 = VSense;
  801d14:	d0a74803 	ldbu	r2,-25312(gp)
  801d18:	d0a74ac5 	stb	r2,-25301(gp)
      g71 =(g64&&(!(_cg64)));
  801d1c:	d0a73f83 	ldbu	r2,-25346(gp)
  801d20:	10803fcc 	andi	r2,r2,255
  801d24:	1080201c 	xori	r2,r2,128
  801d28:	10bfe004 	addi	r2,r2,-128
  801d2c:	1005003a 	cmpeq	r2,r2,zero
  801d30:	1000091e 	bne	r2,zero,801d58 <tick+0x1620>
  801d34:	d0a74ac3 	ldbu	r2,-25301(gp)
  801d38:	10803fcc 	andi	r2,r2,255
  801d3c:	1080201c 	xori	r2,r2,128
  801d40:	10bfe004 	addi	r2,r2,-128
  801d44:	1004c03a 	cmpne	r2,r2,zero
  801d48:	1000031e 	bne	r2,zero,801d58 <tick+0x1620>
  801d4c:	00800044 	movi	r2,1
  801d50:	e0bfd115 	stw	r2,-188(fp)
  801d54:	00000106 	br	801d5c <tick+0x1624>
  801d58:	e03fd115 	stw	zero,-188(fp)
  801d5c:	e0ffd117 	ldw	r3,-188(fp)
  801d60:	1805883a 	mov	r2,r3
  801d64:	d0a730c5 	stb	r2,-25405(gp)
      _cg71 = VPace;
  801d68:	d0a76403 	ldbu	r2,-25200(gp)
  801d6c:	d0a74c45 	stb	r2,-25295(gp)
      g63 =(g68||g62||(g71&&(!(_cg71))));
  801d70:	d0a75dc3 	ldbu	r2,-25225(gp)
  801d74:	10803fcc 	andi	r2,r2,255
  801d78:	1080201c 	xori	r2,r2,128
  801d7c:	10bfe004 	addi	r2,r2,-128
  801d80:	1004c03a 	cmpne	r2,r2,zero
  801d84:	1000121e 	bne	r2,zero,801dd0 <tick+0x1698>
  801d88:	d0a73603 	ldbu	r2,-25384(gp)
  801d8c:	10803fcc 	andi	r2,r2,255
  801d90:	1080201c 	xori	r2,r2,128
  801d94:	10bfe004 	addi	r2,r2,-128
  801d98:	1004c03a 	cmpne	r2,r2,zero
  801d9c:	10000c1e 	bne	r2,zero,801dd0 <tick+0x1698>
  801da0:	d0a730c3 	ldbu	r2,-25405(gp)
  801da4:	10803fcc 	andi	r2,r2,255
  801da8:	1080201c 	xori	r2,r2,128
  801dac:	10bfe004 	addi	r2,r2,-128
  801db0:	1005003a 	cmpeq	r2,r2,zero
  801db4:	1000091e 	bne	r2,zero,801ddc <tick+0x16a4>
  801db8:	d0a74c43 	ldbu	r2,-25295(gp)
  801dbc:	10803fcc 	andi	r2,r2,255
  801dc0:	1080201c 	xori	r2,r2,128
  801dc4:	10bfe004 	addi	r2,r2,-128
  801dc8:	1004c03a 	cmpne	r2,r2,zero
  801dcc:	1000031e 	bne	r2,zero,801ddc <tick+0x16a4>
  801dd0:	00800044 	movi	r2,1
  801dd4:	e0bfd015 	stw	r2,-192(fp)
  801dd8:	00000106 	br	801de0 <tick+0x16a8>
  801ddc:	e03fd015 	stw	zero,-192(fp)
  801de0:	e0ffd017 	ldw	r3,-192(fp)
  801de4:	1805883a 	mov	r2,r3
  801de8:	d0a74e85 	stb	r2,-25286(gp)
      g65 =((g71&&_cg71)||(g64&&_cg64));
  801dec:	d0a730c3 	ldbu	r2,-25405(gp)
  801df0:	10803fcc 	andi	r2,r2,255
  801df4:	1080201c 	xori	r2,r2,128
  801df8:	10bfe004 	addi	r2,r2,-128
  801dfc:	1005003a 	cmpeq	r2,r2,zero
  801e00:	1000061e 	bne	r2,zero,801e1c <tick+0x16e4>
  801e04:	d0a74c43 	ldbu	r2,-25295(gp)
  801e08:	10803fcc 	andi	r2,r2,255
  801e0c:	1080201c 	xori	r2,r2,128
  801e10:	10bfe004 	addi	r2,r2,-128
  801e14:	1004c03a 	cmpne	r2,r2,zero
  801e18:	10000c1e 	bne	r2,zero,801e4c <tick+0x1714>
  801e1c:	d0a73f83 	ldbu	r2,-25346(gp)
  801e20:	10803fcc 	andi	r2,r2,255
  801e24:	1080201c 	xori	r2,r2,128
  801e28:	10bfe004 	addi	r2,r2,-128
  801e2c:	1005003a 	cmpeq	r2,r2,zero
  801e30:	1000091e 	bne	r2,zero,801e58 <tick+0x1720>
  801e34:	d0a74ac3 	ldbu	r2,-25301(gp)
  801e38:	10803fcc 	andi	r2,r2,255
  801e3c:	1080201c 	xori	r2,r2,128
  801e40:	10bfe004 	addi	r2,r2,-128
  801e44:	1005003a 	cmpeq	r2,r2,zero
  801e48:	1000031e 	bne	r2,zero,801e58 <tick+0x1720>
  801e4c:	00800044 	movi	r2,1
  801e50:	e0bfcf15 	stw	r2,-196(fp)
  801e54:	00000106 	br	801e5c <tick+0x1724>
  801e58:	e03fcf15 	stw	zero,-196(fp)
  801e5c:	e0ffcf17 	ldw	r3,-196(fp)
  801e60:	1805883a 	mov	r2,r3
  801e64:	d0a75ec5 	stb	r2,-25221(gp)
      if(g65){
  801e68:	d0a75ec3 	ldbu	r2,-25221(gp)
  801e6c:	10803fcc 	andi	r2,r2,255
  801e70:	1080201c 	xori	r2,r2,128
  801e74:	10bfe004 	addi	r2,r2,-128
  801e78:	1005003a 	cmpeq	r2,r2,zero
  801e7c:	1000021e 	bne	r2,zero,801e88 <tick+0x1750>
         _DDDPacemaker_local_PVARP_start =(_DDDPacemaker_local_PVARP_start||1);
  801e80:	00800044 	movi	r2,1
  801e84:	d0a75145 	stb	r2,-25275(gp)
      }
      g69 =(g67b&&(!(_cg67)));
  801e88:	d0a73b43 	ldbu	r2,-25363(gp)
  801e8c:	10803fcc 	andi	r2,r2,255
  801e90:	1080201c 	xori	r2,r2,128
  801e94:	10bfe004 	addi	r2,r2,-128
  801e98:	1005003a 	cmpeq	r2,r2,zero
  801e9c:	1000091e 	bne	r2,zero,801ec4 <tick+0x178c>
  801ea0:	d0a768c3 	ldbu	r2,-25181(gp)
  801ea4:	10803fcc 	andi	r2,r2,255
  801ea8:	1080201c 	xori	r2,r2,128
  801eac:	10bfe004 	addi	r2,r2,-128
  801eb0:	1004c03a 	cmpne	r2,r2,zero
  801eb4:	1000031e 	bne	r2,zero,801ec4 <tick+0x178c>
  801eb8:	00800044 	movi	r2,1
  801ebc:	e0bfce15 	stw	r2,-200(fp)
  801ec0:	00000106 	br	801ec8 <tick+0x1790>
  801ec4:	e03fce15 	stw	zero,-200(fp)
  801ec8:	e0ffce17 	ldw	r3,-200(fp)
  801ecc:	1805883a 	mov	r2,r3
  801ed0:	d0a769c5 	stb	r2,-25177(gp)
      _cg69 = ASense;
  801ed4:	d0a73983 	ldbu	r2,-25370(gp)
  801ed8:	d0a73805 	stb	r2,-25376(gp)
      g70 =(g69&&_cg69);
  801edc:	d0a769c3 	ldbu	r2,-25177(gp)
  801ee0:	10803fcc 	andi	r2,r2,255
  801ee4:	1080201c 	xori	r2,r2,128
  801ee8:	10bfe004 	addi	r2,r2,-128
  801eec:	1005003a 	cmpeq	r2,r2,zero
  801ef0:	1000091e 	bne	r2,zero,801f18 <tick+0x17e0>
  801ef4:	d0a73803 	ldbu	r2,-25376(gp)
  801ef8:	10803fcc 	andi	r2,r2,255
  801efc:	1080201c 	xori	r2,r2,128
  801f00:	10bfe004 	addi	r2,r2,-128
  801f04:	1005003a 	cmpeq	r2,r2,zero
  801f08:	1000031e 	bne	r2,zero,801f18 <tick+0x17e0>
  801f0c:	00800044 	movi	r2,1
  801f10:	e0bfcd15 	stw	r2,-204(fp)
  801f14:	00000106 	br	801f1c <tick+0x17e4>
  801f18:	e03fcd15 	stw	zero,-204(fp)
  801f1c:	e0ffcd17 	ldw	r3,-204(fp)
  801f20:	1805883a 	mov	r2,r3
  801f24:	d0a75745 	stb	r2,-25251(gp)
      if(g70){
  801f28:	d0a75743 	ldbu	r2,-25251(gp)
  801f2c:	10803fcc 	andi	r2,r2,255
  801f30:	1080201c 	xori	r2,r2,128
  801f34:	10bfe004 	addi	r2,r2,-128
  801f38:	1005003a 	cmpeq	r2,r2,zero
  801f3c:	1000021e 	bne	r2,zero,801f48 <tick+0x1810>
         _DDDPacemaker_local_AR = 1;
  801f40:	00800044 	movi	r2,1
  801f44:	d0a74005 	stb	r2,-25344(gp)
      }
      g66 =(g70||(g69&&(!(_cg69)))||g65);
  801f48:	d0a75743 	ldbu	r2,-25251(gp)
  801f4c:	10803fcc 	andi	r2,r2,255
  801f50:	1080201c 	xori	r2,r2,128
  801f54:	10bfe004 	addi	r2,r2,-128
  801f58:	1004c03a 	cmpne	r2,r2,zero
  801f5c:	1000121e 	bne	r2,zero,801fa8 <tick+0x1870>
  801f60:	d0a769c3 	ldbu	r2,-25177(gp)
  801f64:	10803fcc 	andi	r2,r2,255
  801f68:	1080201c 	xori	r2,r2,128
  801f6c:	10bfe004 	addi	r2,r2,-128
  801f70:	1005003a 	cmpeq	r2,r2,zero
  801f74:	1000061e 	bne	r2,zero,801f90 <tick+0x1858>
  801f78:	d0a73803 	ldbu	r2,-25376(gp)
  801f7c:	10803fcc 	andi	r2,r2,255
  801f80:	1080201c 	xori	r2,r2,128
  801f84:	10bfe004 	addi	r2,r2,-128
  801f88:	1005003a 	cmpeq	r2,r2,zero
  801f8c:	1000061e 	bne	r2,zero,801fa8 <tick+0x1870>
  801f90:	d0a75ec3 	ldbu	r2,-25221(gp)
  801f94:	10803fcc 	andi	r2,r2,255
  801f98:	1080201c 	xori	r2,r2,128
  801f9c:	10bfe004 	addi	r2,r2,-128
  801fa0:	1005003a 	cmpeq	r2,r2,zero
  801fa4:	1000031e 	bne	r2,zero,801fb4 <tick+0x187c>
  801fa8:	00800044 	movi	r2,1
  801fac:	e0bfcc15 	stw	r2,-208(fp)
  801fb0:	00000106 	br	801fb8 <tick+0x1880>
  801fb4:	e03fcc15 	stw	zero,-208(fp)
  801fb8:	e0ffcc17 	ldw	r3,-208(fp)
  801fbc:	1805883a 	mov	r2,r3
  801fc0:	d0a74585 	stb	r2,-25322(gp)
      g73 = g1;
  801fc4:	d0a73043 	ldbu	r2,-25407(gp)
  801fc8:	d0a75f85 	stb	r2,-25218(gp)
      g75 =(PRE_g74);
  801fcc:	d0a75443 	ldbu	r2,-25263(gp)
  801fd0:	d0a75ac5 	stb	r2,-25237(gp)
      g75b = g75;
  801fd4:	d0a75ac3 	ldbu	r2,-25237(gp)
  801fd8:	d0a73d45 	stb	r2,-25355(gp)
      _cg75 = _DDDPacemaker_local_PVARP_start;
  801fdc:	d0a75143 	ldbu	r2,-25275(gp)
  801fe0:	d0a72f85 	stb	r2,-25410(gp)
      g74 =(g78||g73||(g75b&&(!(_cg75))));
  801fe4:	d0a74883 	ldbu	r2,-25310(gp)
  801fe8:	10803fcc 	andi	r2,r2,255
  801fec:	1080201c 	xori	r2,r2,128
  801ff0:	10bfe004 	addi	r2,r2,-128
  801ff4:	1004c03a 	cmpne	r2,r2,zero
  801ff8:	1000121e 	bne	r2,zero,802044 <tick+0x190c>
  801ffc:	d0a75f83 	ldbu	r2,-25218(gp)
  802000:	10803fcc 	andi	r2,r2,255
  802004:	1080201c 	xori	r2,r2,128
  802008:	10bfe004 	addi	r2,r2,-128
  80200c:	1004c03a 	cmpne	r2,r2,zero
  802010:	10000c1e 	bne	r2,zero,802044 <tick+0x190c>
  802014:	d0a73d43 	ldbu	r2,-25355(gp)
  802018:	10803fcc 	andi	r2,r2,255
  80201c:	1080201c 	xori	r2,r2,128
  802020:	10bfe004 	addi	r2,r2,-128
  802024:	1005003a 	cmpeq	r2,r2,zero
  802028:	1000091e 	bne	r2,zero,802050 <tick+0x1918>
  80202c:	d0a72f83 	ldbu	r2,-25410(gp)
  802030:	10803fcc 	andi	r2,r2,255
  802034:	1080201c 	xori	r2,r2,128
  802038:	10bfe004 	addi	r2,r2,-128
  80203c:	1004c03a 	cmpne	r2,r2,zero
  802040:	1000031e 	bne	r2,zero,802050 <tick+0x1918>
  802044:	00800044 	movi	r2,1
  802048:	e0bfcb15 	stw	r2,-212(fp)
  80204c:	00000106 	br	802054 <tick+0x191c>
  802050:	e03fcb15 	stw	zero,-212(fp)
  802054:	e0ffcb17 	ldw	r3,-212(fp)
  802058:	1805883a 	mov	r2,r3
  80205c:	d0a76b05 	stb	r2,-25172(gp)
      g76 =((g75b&&_cg75)||(g77&&(!(_cg77))));
  802060:	d0a73d43 	ldbu	r2,-25355(gp)
  802064:	10803fcc 	andi	r2,r2,255
  802068:	1080201c 	xori	r2,r2,128
  80206c:	10bfe004 	addi	r2,r2,-128
  802070:	1005003a 	cmpeq	r2,r2,zero
  802074:	1000061e 	bne	r2,zero,802090 <tick+0x1958>
  802078:	d0a72f83 	ldbu	r2,-25410(gp)
  80207c:	10803fcc 	andi	r2,r2,255
  802080:	1080201c 	xori	r2,r2,128
  802084:	10bfe004 	addi	r2,r2,-128
  802088:	1004c03a 	cmpne	r2,r2,zero
  80208c:	10000c1e 	bne	r2,zero,8020c0 <tick+0x1988>
  802090:	d0a76083 	ldbu	r2,-25214(gp)
  802094:	10803fcc 	andi	r2,r2,255
  802098:	1080201c 	xori	r2,r2,128
  80209c:	10bfe004 	addi	r2,r2,-128
  8020a0:	1005003a 	cmpeq	r2,r2,zero
  8020a4:	1000091e 	bne	r2,zero,8020cc <tick+0x1994>
  8020a8:	d0a75d43 	ldbu	r2,-25227(gp)
  8020ac:	10803fcc 	andi	r2,r2,255
  8020b0:	1080201c 	xori	r2,r2,128
  8020b4:	10bfe004 	addi	r2,r2,-128
  8020b8:	1004c03a 	cmpne	r2,r2,zero
  8020bc:	1000031e 	bne	r2,zero,8020cc <tick+0x1994>
  8020c0:	00800044 	movi	r2,1
  8020c4:	e0bfca15 	stw	r2,-216(fp)
  8020c8:	00000106 	br	8020d0 <tick+0x1998>
  8020cc:	e03fca15 	stw	zero,-216(fp)
  8020d0:	e0ffca17 	ldw	r3,-216(fp)
  8020d4:	1805883a 	mov	r2,r3
  8020d8:	d0a73505 	stb	r2,-25388(gp)
      g80 = g1;
  8020dc:	d0a73043 	ldbu	r2,-25407(gp)
  8020e0:	d0a74385 	stb	r2,-25330(gp)
      g82 =(PRE_g81);
  8020e4:	d0a73943 	ldbu	r2,-25371(gp)
  8020e8:	d0a73245 	stb	r2,-25399(gp)
      g82b = g82;
  8020ec:	d0a73243 	ldbu	r2,-25399(gp)
  8020f0:	d0a75845 	stb	r2,-25247(gp)
      _cg82 =(ASense&&(!(_DDDPacemaker_local_AR)));
  8020f4:	d0a73983 	ldbu	r2,-25370(gp)
  8020f8:	10803fcc 	andi	r2,r2,255
  8020fc:	1080201c 	xori	r2,r2,128
  802100:	10bfe004 	addi	r2,r2,-128
  802104:	1005003a 	cmpeq	r2,r2,zero
  802108:	1000091e 	bne	r2,zero,802130 <tick+0x19f8>
  80210c:	d0a74003 	ldbu	r2,-25344(gp)
  802110:	10803fcc 	andi	r2,r2,255
  802114:	1080201c 	xori	r2,r2,128
  802118:	10bfe004 	addi	r2,r2,-128
  80211c:	1004c03a 	cmpne	r2,r2,zero
  802120:	1000031e 	bne	r2,zero,802130 <tick+0x19f8>
  802124:	00800044 	movi	r2,1
  802128:	e0bfc915 	stw	r2,-220(fp)
  80212c:	00000106 	br	802134 <tick+0x19fc>
  802130:	e03fc915 	stw	zero,-220(fp)
  802134:	e0ffc917 	ldw	r3,-220(fp)
  802138:	1805883a 	mov	r2,r3
  80213c:	d0a73f45 	stb	r2,-25347(gp)
      g81 =((g82b&&(!(_cg82)))||g80);
  802140:	d0a75843 	ldbu	r2,-25247(gp)
  802144:	10803fcc 	andi	r2,r2,255
  802148:	1080201c 	xori	r2,r2,128
  80214c:	10bfe004 	addi	r2,r2,-128
  802150:	1005003a 	cmpeq	r2,r2,zero
  802154:	1000061e 	bne	r2,zero,802170 <tick+0x1a38>
  802158:	d0a73f43 	ldbu	r2,-25347(gp)
  80215c:	10803fcc 	andi	r2,r2,255
  802160:	1080201c 	xori	r2,r2,128
  802164:	10bfe004 	addi	r2,r2,-128
  802168:	1005003a 	cmpeq	r2,r2,zero
  80216c:	1000061e 	bne	r2,zero,802188 <tick+0x1a50>
  802170:	d0a74383 	ldbu	r2,-25330(gp)
  802174:	10803fcc 	andi	r2,r2,255
  802178:	1080201c 	xori	r2,r2,128
  80217c:	10bfe004 	addi	r2,r2,-128
  802180:	1005003a 	cmpeq	r2,r2,zero
  802184:	1000031e 	bne	r2,zero,802194 <tick+0x1a5c>
  802188:	00800044 	movi	r2,1
  80218c:	e0bfc815 	stw	r2,-224(fp)
  802190:	00000106 	br	802198 <tick+0x1a60>
  802194:	e03fc815 	stw	zero,-224(fp)
  802198:	e0ffc817 	ldw	r3,-224(fp)
  80219c:	1805883a 	mov	r2,r3
  8021a0:	d0a75905 	stb	r2,-25244(gp)
      g83 =(g82b&&_cg82);
  8021a4:	d0a75843 	ldbu	r2,-25247(gp)
  8021a8:	10803fcc 	andi	r2,r2,255
  8021ac:	1080201c 	xori	r2,r2,128
  8021b0:	10bfe004 	addi	r2,r2,-128
  8021b4:	1005003a 	cmpeq	r2,r2,zero
  8021b8:	1000091e 	bne	r2,zero,8021e0 <tick+0x1aa8>
  8021bc:	d0a73f43 	ldbu	r2,-25347(gp)
  8021c0:	10803fcc 	andi	r2,r2,255
  8021c4:	1080201c 	xori	r2,r2,128
  8021c8:	10bfe004 	addi	r2,r2,-128
  8021cc:	1005003a 	cmpeq	r2,r2,zero
  8021d0:	1000031e 	bne	r2,zero,8021e0 <tick+0x1aa8>
  8021d4:	00800044 	movi	r2,1
  8021d8:	e0bfc715 	stw	r2,-228(fp)
  8021dc:	00000106 	br	8021e4 <tick+0x1aac>
  8021e0:	e03fc715 	stw	zero,-228(fp)
  8021e4:	e0ffc717 	ldw	r3,-228(fp)
  8021e8:	1805883a 	mov	r2,r3
  8021ec:	d0a72405 	stb	r2,-25456(gp)
      if(g83){
  8021f0:	d0a72403 	ldbu	r2,-25456(gp)
  8021f4:	10803fcc 	andi	r2,r2,255
  8021f8:	1080201c 	xori	r2,r2,128
  8021fc:	10bfe004 	addi	r2,r2,-128
  802200:	1005003a 	cmpeq	r2,r2,zero
  802204:	1000021e 	bne	r2,zero,802210 <tick+0x1ad8>
         _DDDPacemaker_local_AVI_start =(_DDDPacemaker_local_AVI_start||1);
  802208:	00800044 	movi	r2,1
  80220c:	d0a72805 	stb	r2,-25440(gp)
      }
      g106 =(PRE_g105);
  802210:	d0a765c3 	ldbu	r2,-25193(gp)
  802214:	d0a76905 	stb	r2,-25180(gp)
      g106b = g106;
  802218:	d0a76903 	ldbu	r2,-25180(gp)
  80221c:	d0a735c5 	stb	r2,-25385(gp)
      _cg106 =(ASense&&(!(_DDDPacemaker_local_AR)));
  802220:	d0a73983 	ldbu	r2,-25370(gp)
  802224:	10803fcc 	andi	r2,r2,255
  802228:	1080201c 	xori	r2,r2,128
  80222c:	10bfe004 	addi	r2,r2,-128
  802230:	1005003a 	cmpeq	r2,r2,zero
  802234:	1000091e 	bne	r2,zero,80225c <tick+0x1b24>
  802238:	d0a74003 	ldbu	r2,-25344(gp)
  80223c:	10803fcc 	andi	r2,r2,255
  802240:	1080201c 	xori	r2,r2,128
  802244:	10bfe004 	addi	r2,r2,-128
  802248:	1004c03a 	cmpne	r2,r2,zero
  80224c:	1000031e 	bne	r2,zero,80225c <tick+0x1b24>
  802250:	00800044 	movi	r2,1
  802254:	e0bfc615 	stw	r2,-232(fp)
  802258:	00000106 	br	802260 <tick+0x1b28>
  80225c:	e03fc615 	stw	zero,-232(fp)
  802260:	e0ffc617 	ldw	r3,-232(fp)
  802264:	1805883a 	mov	r2,r3
  802268:	d0a75245 	stb	r2,-25271(gp)
      g107 =(g106b&&_cg106);
  80226c:	d0a735c3 	ldbu	r2,-25385(gp)
  802270:	10803fcc 	andi	r2,r2,255
  802274:	1080201c 	xori	r2,r2,128
  802278:	10bfe004 	addi	r2,r2,-128
  80227c:	1005003a 	cmpeq	r2,r2,zero
  802280:	1000091e 	bne	r2,zero,8022a8 <tick+0x1b70>
  802284:	d0a75243 	ldbu	r2,-25271(gp)
  802288:	10803fcc 	andi	r2,r2,255
  80228c:	1080201c 	xori	r2,r2,128
  802290:	10bfe004 	addi	r2,r2,-128
  802294:	1005003a 	cmpeq	r2,r2,zero
  802298:	1000031e 	bne	r2,zero,8022a8 <tick+0x1b70>
  80229c:	00800044 	movi	r2,1
  8022a0:	e0bfc515 	stw	r2,-236(fp)
  8022a4:	00000106 	br	8022ac <tick+0x1b74>
  8022a8:	e03fc515 	stw	zero,-236(fp)
  8022ac:	e0ffc517 	ldw	r3,-236(fp)
  8022b0:	1805883a 	mov	r2,r3
  8022b4:	d0a75405 	stb	r2,-25264(gp)
      if(g107){
  8022b8:	d0a75403 	ldbu	r2,-25264(gp)
  8022bc:	10803fcc 	andi	r2,r2,255
  8022c0:	1080201c 	xori	r2,r2,128
  8022c4:	10bfe004 	addi	r2,r2,-128
  8022c8:	1005003a 	cmpeq	r2,r2,zero
  8022cc:	1000021e 	bne	r2,zero,8022d8 <tick+0x1ba0>
         _DDDPacemaker_local_AEI_stop =(_DDDPacemaker_local_AEI_stop||1);
  8022d0:	00800044 	movi	r2,1
  8022d4:	d0a75e45 	stb	r2,-25223(gp)
      }
      g118 =(PRE_g117);
  8022d8:	d0a76983 	ldbu	r2,-25178(gp)
  8022dc:	d0a73745 	stb	r2,-25379(gp)
      g118b = g118;
  8022e0:	d0a73743 	ldbu	r2,-25379(gp)
  8022e4:	d0a73a45 	stb	r2,-25367(gp)
      _cg118 = _DDDPacemaker_local_AEI_stop;
  8022e8:	d0a75e43 	ldbu	r2,-25223(gp)
  8022ec:	d0a73e45 	stb	r2,-25351(gp)
      g119 =(g118b&&(!(_cg118)));
  8022f0:	d0a73a43 	ldbu	r2,-25367(gp)
  8022f4:	10803fcc 	andi	r2,r2,255
  8022f8:	1080201c 	xori	r2,r2,128
  8022fc:	10bfe004 	addi	r2,r2,-128
  802300:	1005003a 	cmpeq	r2,r2,zero
  802304:	1000091e 	bne	r2,zero,80232c <tick+0x1bf4>
  802308:	d0a73e43 	ldbu	r2,-25351(gp)
  80230c:	10803fcc 	andi	r2,r2,255
  802310:	1080201c 	xori	r2,r2,128
  802314:	10bfe004 	addi	r2,r2,-128
  802318:	1004c03a 	cmpne	r2,r2,zero
  80231c:	1000031e 	bne	r2,zero,80232c <tick+0x1bf4>
  802320:	00800044 	movi	r2,1
  802324:	e0bfc415 	stw	r2,-240(fp)
  802328:	00000106 	br	802330 <tick+0x1bf8>
  80232c:	e03fc415 	stw	zero,-240(fp)
  802330:	e0ffc417 	ldw	r3,-240(fp)
  802334:	1805883a 	mov	r2,r3
  802338:	d0a75005 	stb	r2,-25280(gp)
      _cg119 = AEI_TO;
  80233c:	d0a753c3 	ldbu	r2,-25265(gp)
  802340:	d0a736c5 	stb	r2,-25381(gp)
      g120 =(g119&&_cg119);
  802344:	d0a75003 	ldbu	r2,-25280(gp)
  802348:	10803fcc 	andi	r2,r2,255
  80234c:	1080201c 	xori	r2,r2,128
  802350:	10bfe004 	addi	r2,r2,-128
  802354:	1005003a 	cmpeq	r2,r2,zero
  802358:	1000091e 	bne	r2,zero,802380 <tick+0x1c48>
  80235c:	d0a736c3 	ldbu	r2,-25381(gp)
  802360:	10803fcc 	andi	r2,r2,255
  802364:	1080201c 	xori	r2,r2,128
  802368:	10bfe004 	addi	r2,r2,-128
  80236c:	1005003a 	cmpeq	r2,r2,zero
  802370:	1000031e 	bne	r2,zero,802380 <tick+0x1c48>
  802374:	00800044 	movi	r2,1
  802378:	e0bfc315 	stw	r2,-244(fp)
  80237c:	00000106 	br	802384 <tick+0x1c4c>
  802380:	e03fc315 	stw	zero,-244(fp)
  802384:	e0ffc317 	ldw	r3,-244(fp)
  802388:	1805883a 	mov	r2,r3
  80238c:	d0a76545 	stb	r2,-25195(gp)
      if(g120){
  802390:	d0a76543 	ldbu	r2,-25195(gp)
  802394:	10803fcc 	andi	r2,r2,255
  802398:	1080201c 	xori	r2,r2,128
  80239c:	10bfe004 	addi	r2,r2,-128
  8023a0:	1005003a 	cmpeq	r2,r2,zero
  8023a4:	1000021e 	bne	r2,zero,8023b0 <tick+0x1c78>
         _DDDPacemaker_local_AEI_ex =(_DDDPacemaker_local_AEI_ex||1);
  8023a8:	00800044 	movi	r2,1
  8023ac:	d0a72545 	stb	r2,-25451(gp)
      }
      g111 =(g106b&&(!(_cg106)));
  8023b0:	d0a735c3 	ldbu	r2,-25385(gp)
  8023b4:	10803fcc 	andi	r2,r2,255
  8023b8:	1080201c 	xori	r2,r2,128
  8023bc:	10bfe004 	addi	r2,r2,-128
  8023c0:	1005003a 	cmpeq	r2,r2,zero
  8023c4:	1000091e 	bne	r2,zero,8023ec <tick+0x1cb4>
  8023c8:	d0a75243 	ldbu	r2,-25271(gp)
  8023cc:	10803fcc 	andi	r2,r2,255
  8023d0:	1080201c 	xori	r2,r2,128
  8023d4:	10bfe004 	addi	r2,r2,-128
  8023d8:	1004c03a 	cmpne	r2,r2,zero
  8023dc:	1000031e 	bne	r2,zero,8023ec <tick+0x1cb4>
  8023e0:	00800044 	movi	r2,1
  8023e4:	e0bfc215 	stw	r2,-248(fp)
  8023e8:	00000106 	br	8023f0 <tick+0x1cb8>
  8023ec:	e03fc215 	stw	zero,-248(fp)
  8023f0:	e0ffc217 	ldw	r3,-248(fp)
  8023f4:	1805883a 	mov	r2,r3
  8023f8:	d0a72645 	stb	r2,-25447(gp)
      _cg111 = _DDDPacemaker_local_AEI_ex;
  8023fc:	d0a72543 	ldbu	r2,-25451(gp)
  802400:	d0a73b05 	stb	r2,-25364(gp)
      g112 =(g111&&_cg111);
  802404:	d0a72643 	ldbu	r2,-25447(gp)
  802408:	10803fcc 	andi	r2,r2,255
  80240c:	1080201c 	xori	r2,r2,128
  802410:	10bfe004 	addi	r2,r2,-128
  802414:	1005003a 	cmpeq	r2,r2,zero
  802418:	1000091e 	bne	r2,zero,802440 <tick+0x1d08>
  80241c:	d0a73b03 	ldbu	r2,-25364(gp)
  802420:	10803fcc 	andi	r2,r2,255
  802424:	1080201c 	xori	r2,r2,128
  802428:	10bfe004 	addi	r2,r2,-128
  80242c:	1005003a 	cmpeq	r2,r2,zero
  802430:	1000031e 	bne	r2,zero,802440 <tick+0x1d08>
  802434:	00800044 	movi	r2,1
  802438:	e0bfc115 	stw	r2,-252(fp)
  80243c:	00000106 	br	802444 <tick+0x1d0c>
  802440:	e03fc115 	stw	zero,-252(fp)
  802444:	e0ffc117 	ldw	r3,-252(fp)
  802448:	1805883a 	mov	r2,r3
  80244c:	d0a72885 	stb	r2,-25438(gp)
      if(g112){
  802450:	d0a72883 	ldbu	r2,-25438(gp)
  802454:	10803fcc 	andi	r2,r2,255
  802458:	1080201c 	xori	r2,r2,128
  80245c:	10bfe004 	addi	r2,r2,-128
  802460:	1005003a 	cmpeq	r2,r2,zero
  802464:	1000021e 	bne	r2,zero,802470 <tick+0x1d38>
         APace =(APace||1);
  802468:	00800044 	movi	r2,1
  80246c:	d0a72505 	stb	r2,-25452(gp)
      }
      g88 =(PRE_g87);
  802470:	d0a73cc3 	ldbu	r2,-25357(gp)
  802474:	d0a76185 	stb	r2,-25210(gp)
      g88b = g88;
  802478:	d0a76183 	ldbu	r2,-25210(gp)
  80247c:	d0a72fc5 	stb	r2,-25409(gp)
      _cg88 =((!(_DDDPacemaker_local_AR))&&(ASense||APace));
  802480:	d0a74003 	ldbu	r2,-25344(gp)
  802484:	10803fcc 	andi	r2,r2,255
  802488:	1080201c 	xori	r2,r2,128
  80248c:	10bfe004 	addi	r2,r2,-128
  802490:	1004c03a 	cmpne	r2,r2,zero
  802494:	10000f1e 	bne	r2,zero,8024d4 <tick+0x1d9c>
  802498:	d0a73983 	ldbu	r2,-25370(gp)
  80249c:	10803fcc 	andi	r2,r2,255
  8024a0:	1080201c 	xori	r2,r2,128
  8024a4:	10bfe004 	addi	r2,r2,-128
  8024a8:	1004c03a 	cmpne	r2,r2,zero
  8024ac:	1000061e 	bne	r2,zero,8024c8 <tick+0x1d90>
  8024b0:	d0a72503 	ldbu	r2,-25452(gp)
  8024b4:	10803fcc 	andi	r2,r2,255
  8024b8:	1080201c 	xori	r2,r2,128
  8024bc:	10bfe004 	addi	r2,r2,-128
  8024c0:	1005003a 	cmpeq	r2,r2,zero
  8024c4:	1000031e 	bne	r2,zero,8024d4 <tick+0x1d9c>
  8024c8:	00800044 	movi	r2,1
  8024cc:	e0bfc015 	stw	r2,-256(fp)
  8024d0:	00000106 	br	8024d8 <tick+0x1da0>
  8024d4:	e03fc015 	stw	zero,-256(fp)
  8024d8:	e0ffc017 	ldw	r3,-256(fp)
  8024dc:	1805883a 	mov	r2,r3
  8024e0:	d0a764c5 	stb	r2,-25197(gp)
      g89 =(g88b&&_cg88);
  8024e4:	d0a72fc3 	ldbu	r2,-25409(gp)
  8024e8:	10803fcc 	andi	r2,r2,255
  8024ec:	1080201c 	xori	r2,r2,128
  8024f0:	10bfe004 	addi	r2,r2,-128
  8024f4:	1005003a 	cmpeq	r2,r2,zero
  8024f8:	1000091e 	bne	r2,zero,802520 <tick+0x1de8>
  8024fc:	d0a764c3 	ldbu	r2,-25197(gp)
  802500:	10803fcc 	andi	r2,r2,255
  802504:	1080201c 	xori	r2,r2,128
  802508:	10bfe004 	addi	r2,r2,-128
  80250c:	1005003a 	cmpeq	r2,r2,zero
  802510:	1000031e 	bne	r2,zero,802520 <tick+0x1de8>
  802514:	00800044 	movi	r2,1
  802518:	e0bfbf15 	stw	r2,-260(fp)
  80251c:	00000106 	br	802524 <tick+0x1dec>
  802520:	e03fbf15 	stw	zero,-260(fp)
  802524:	e0ffbf17 	ldw	r3,-260(fp)
  802528:	1805883a 	mov	r2,r3
  80252c:	d0a751c5 	stb	r2,-25273(gp)
      if(g89){
  802530:	d0a751c3 	ldbu	r2,-25273(gp)
  802534:	10803fcc 	andi	r2,r2,255
  802538:	1080201c 	xori	r2,r2,128
  80253c:	10bfe004 	addi	r2,r2,-128
  802540:	1005003a 	cmpeq	r2,r2,zero
  802544:	1000021e 	bne	r2,zero,802550 <tick+0x1e18>
         _DDDPacemaker_local_AVI_start =(_DDDPacemaker_local_AVI_start||1);
  802548:	00800044 	movi	r2,1
  80254c:	d0a72805 	stb	r2,-25440(gp)
      }
      g84 =(g89||(g90&&(!(_cg90)))||g83);
  802550:	d0a751c3 	ldbu	r2,-25273(gp)
  802554:	10803fcc 	andi	r2,r2,255
  802558:	1080201c 	xori	r2,r2,128
  80255c:	10bfe004 	addi	r2,r2,-128
  802560:	1004c03a 	cmpne	r2,r2,zero
  802564:	1000121e 	bne	r2,zero,8025b0 <tick+0x1e78>
  802568:	d0a74d03 	ldbu	r2,-25292(gp)
  80256c:	10803fcc 	andi	r2,r2,255
  802570:	1080201c 	xori	r2,r2,128
  802574:	10bfe004 	addi	r2,r2,-128
  802578:	1005003a 	cmpeq	r2,r2,zero
  80257c:	1000061e 	bne	r2,zero,802598 <tick+0x1e60>
  802580:	d0a74343 	ldbu	r2,-25331(gp)
  802584:	10803fcc 	andi	r2,r2,255
  802588:	1080201c 	xori	r2,r2,128
  80258c:	10bfe004 	addi	r2,r2,-128
  802590:	1005003a 	cmpeq	r2,r2,zero
  802594:	1000061e 	bne	r2,zero,8025b0 <tick+0x1e78>
  802598:	d0a72403 	ldbu	r2,-25456(gp)
  80259c:	10803fcc 	andi	r2,r2,255
  8025a0:	1080201c 	xori	r2,r2,128
  8025a4:	10bfe004 	addi	r2,r2,-128
  8025a8:	1005003a 	cmpeq	r2,r2,zero
  8025ac:	1000031e 	bne	r2,zero,8025bc <tick+0x1e84>
  8025b0:	00800044 	movi	r2,1
  8025b4:	e0bfbe15 	stw	r2,-264(fp)
  8025b8:	00000106 	br	8025c0 <tick+0x1e88>
  8025bc:	e03fbe15 	stw	zero,-264(fp)
  8025c0:	e0ffbe17 	ldw	r3,-264(fp)
  8025c4:	1805883a 	mov	r2,r3
  8025c8:	d0a73645 	stb	r2,-25383(gp)
      g87 =(g86||(g88b&&(!(_cg88)))||g91);
  8025cc:	d0a750c3 	ldbu	r2,-25277(gp)
  8025d0:	10803fcc 	andi	r2,r2,255
  8025d4:	1080201c 	xori	r2,r2,128
  8025d8:	10bfe004 	addi	r2,r2,-128
  8025dc:	1004c03a 	cmpne	r2,r2,zero
  8025e0:	1000121e 	bne	r2,zero,80262c <tick+0x1ef4>
  8025e4:	d0a72fc3 	ldbu	r2,-25409(gp)
  8025e8:	10803fcc 	andi	r2,r2,255
  8025ec:	1080201c 	xori	r2,r2,128
  8025f0:	10bfe004 	addi	r2,r2,-128
  8025f4:	1005003a 	cmpeq	r2,r2,zero
  8025f8:	1000061e 	bne	r2,zero,802614 <tick+0x1edc>
  8025fc:	d0a764c3 	ldbu	r2,-25197(gp)
  802600:	10803fcc 	andi	r2,r2,255
  802604:	1080201c 	xori	r2,r2,128
  802608:	10bfe004 	addi	r2,r2,-128
  80260c:	1005003a 	cmpeq	r2,r2,zero
  802610:	1000061e 	bne	r2,zero,80262c <tick+0x1ef4>
  802614:	d0a724c3 	ldbu	r2,-25453(gp)
  802618:	10803fcc 	andi	r2,r2,255
  80261c:	1080201c 	xori	r2,r2,128
  802620:	10bfe004 	addi	r2,r2,-128
  802624:	1005003a 	cmpeq	r2,r2,zero
  802628:	1000031e 	bne	r2,zero,802638 <tick+0x1f00>
  80262c:	00800044 	movi	r2,1
  802630:	e0bfbd15 	stw	r2,-268(fp)
  802634:	00000106 	br	80263c <tick+0x1f04>
  802638:	e03fbd15 	stw	zero,-268(fp)
  80263c:	e0ffbd17 	ldw	r3,-268(fp)
  802640:	1805883a 	mov	r2,r3
  802644:	d0a72e45 	stb	r2,-25415(gp)
      g93 = g1;
  802648:	d0a73043 	ldbu	r2,-25407(gp)
  80264c:	d0a74fc5 	stb	r2,-25281(gp)
      g95 =(PRE_g94);
  802650:	d0a73883 	ldbu	r2,-25374(gp)
  802654:	d0a752c5 	stb	r2,-25269(gp)
      g95b = g95;
  802658:	d0a752c3 	ldbu	r2,-25269(gp)
  80265c:	d0a73145 	stb	r2,-25403(gp)
      _cg95 = _DDDPacemaker_local_AVI_start;
  802660:	d0a72803 	ldbu	r2,-25440(gp)
  802664:	d0a73ac5 	stb	r2,-25365(gp)
      g94 =((g97b&&_cg97)||g99||(g95b&&(!(_cg95)))||g93);
  802668:	d0a72f03 	ldbu	r2,-25412(gp)
  80266c:	10803fcc 	andi	r2,r2,255
  802670:	1080201c 	xori	r2,r2,128
  802674:	10bfe004 	addi	r2,r2,-128
  802678:	1005003a 	cmpeq	r2,r2,zero
  80267c:	1000061e 	bne	r2,zero,802698 <tick+0x1f60>
  802680:	d0a73c03 	ldbu	r2,-25360(gp)
  802684:	10803fcc 	andi	r2,r2,255
  802688:	1080201c 	xori	r2,r2,128
  80268c:	10bfe004 	addi	r2,r2,-128
  802690:	1004c03a 	cmpne	r2,r2,zero
  802694:	1000181e 	bne	r2,zero,8026f8 <tick+0x1fc0>
  802698:	d0a74503 	ldbu	r2,-25324(gp)
  80269c:	10803fcc 	andi	r2,r2,255
  8026a0:	1080201c 	xori	r2,r2,128
  8026a4:	10bfe004 	addi	r2,r2,-128
  8026a8:	1004c03a 	cmpne	r2,r2,zero
  8026ac:	1000121e 	bne	r2,zero,8026f8 <tick+0x1fc0>
  8026b0:	d0a73143 	ldbu	r2,-25403(gp)
  8026b4:	10803fcc 	andi	r2,r2,255
  8026b8:	1080201c 	xori	r2,r2,128
  8026bc:	10bfe004 	addi	r2,r2,-128
  8026c0:	1005003a 	cmpeq	r2,r2,zero
  8026c4:	1000061e 	bne	r2,zero,8026e0 <tick+0x1fa8>
  8026c8:	d0a73ac3 	ldbu	r2,-25365(gp)
  8026cc:	10803fcc 	andi	r2,r2,255
  8026d0:	1080201c 	xori	r2,r2,128
  8026d4:	10bfe004 	addi	r2,r2,-128
  8026d8:	1005003a 	cmpeq	r2,r2,zero
  8026dc:	1000061e 	bne	r2,zero,8026f8 <tick+0x1fc0>
  8026e0:	d0a74fc3 	ldbu	r2,-25281(gp)
  8026e4:	10803fcc 	andi	r2,r2,255
  8026e8:	1080201c 	xori	r2,r2,128
  8026ec:	10bfe004 	addi	r2,r2,-128
  8026f0:	1005003a 	cmpeq	r2,r2,zero
  8026f4:	1000031e 	bne	r2,zero,802704 <tick+0x1fcc>
  8026f8:	00800044 	movi	r2,1
  8026fc:	e0bfbc15 	stw	r2,-272(fp)
  802700:	00000106 	br	802708 <tick+0x1fd0>
  802704:	e03fbc15 	stw	zero,-272(fp)
  802708:	e0ffbc17 	ldw	r3,-272(fp)
  80270c:	1805883a 	mov	r2,r3
  802710:	d0a741c5 	stb	r2,-25337(gp)
      g96 =((g95b&&_cg95)||(g98&&(!(_cg98))));
  802714:	d0a73143 	ldbu	r2,-25403(gp)
  802718:	10803fcc 	andi	r2,r2,255
  80271c:	1080201c 	xori	r2,r2,128
  802720:	10bfe004 	addi	r2,r2,-128
  802724:	1005003a 	cmpeq	r2,r2,zero
  802728:	1000061e 	bne	r2,zero,802744 <tick+0x200c>
  80272c:	d0a73ac3 	ldbu	r2,-25365(gp)
  802730:	10803fcc 	andi	r2,r2,255
  802734:	1080201c 	xori	r2,r2,128
  802738:	10bfe004 	addi	r2,r2,-128
  80273c:	1004c03a 	cmpne	r2,r2,zero
  802740:	10000c1e 	bne	r2,zero,802774 <tick+0x203c>
  802744:	d0a75683 	ldbu	r2,-25254(gp)
  802748:	10803fcc 	andi	r2,r2,255
  80274c:	1080201c 	xori	r2,r2,128
  802750:	10bfe004 	addi	r2,r2,-128
  802754:	1005003a 	cmpeq	r2,r2,zero
  802758:	1000091e 	bne	r2,zero,802780 <tick+0x2048>
  80275c:	d0a732c3 	ldbu	r2,-25397(gp)
  802760:	10803fcc 	andi	r2,r2,255
  802764:	1080201c 	xori	r2,r2,128
  802768:	10bfe004 	addi	r2,r2,-128
  80276c:	1004c03a 	cmpne	r2,r2,zero
  802770:	1000031e 	bne	r2,zero,802780 <tick+0x2048>
  802774:	00800044 	movi	r2,1
  802778:	e0bfbb15 	stw	r2,-276(fp)
  80277c:	00000106 	br	802784 <tick+0x204c>
  802780:	e03fbb15 	stw	zero,-276(fp)
  802784:	e0ffbb17 	ldw	r3,-276(fp)
  802788:	1805883a 	mov	r2,r3
  80278c:	d0a75345 	stb	r2,-25267(gp)
      g101 = g1;
  802790:	d0a73043 	ldbu	r2,-25407(gp)
  802794:	d0a746c5 	stb	r2,-25317(gp)
      g103 =(PRE_g102);
  802798:	d0a726c3 	ldbu	r2,-25445(gp)
  80279c:	d0a729c5 	stb	r2,-25433(gp)
      g103b = g103;
  8027a0:	d0a729c3 	ldbu	r2,-25433(gp)
  8027a4:	d0a74b05 	stb	r2,-25300(gp)
      _cg103 =(VSense&&(!(_DDDPacemaker_local_VR)));
  8027a8:	d0a74803 	ldbu	r2,-25312(gp)
  8027ac:	10803fcc 	andi	r2,r2,255
  8027b0:	1080201c 	xori	r2,r2,128
  8027b4:	10bfe004 	addi	r2,r2,-128
  8027b8:	1005003a 	cmpeq	r2,r2,zero
  8027bc:	1000091e 	bne	r2,zero,8027e4 <tick+0x20ac>
  8027c0:	d0a76003 	ldbu	r2,-25216(gp)
  8027c4:	10803fcc 	andi	r2,r2,255
  8027c8:	1080201c 	xori	r2,r2,128
  8027cc:	10bfe004 	addi	r2,r2,-128
  8027d0:	1004c03a 	cmpne	r2,r2,zero
  8027d4:	1000031e 	bne	r2,zero,8027e4 <tick+0x20ac>
  8027d8:	00800044 	movi	r2,1
  8027dc:	e0bfba15 	stw	r2,-280(fp)
  8027e0:	00000106 	br	8027e8 <tick+0x20b0>
  8027e4:	e03fba15 	stw	zero,-280(fp)
  8027e8:	e0ffba17 	ldw	r3,-280(fp)
  8027ec:	1805883a 	mov	r2,r3
  8027f0:	d0a76205 	stb	r2,-25208(gp)
      g102 =(g101||(g103b&&(!(_cg103))));
  8027f4:	d0a746c3 	ldbu	r2,-25317(gp)
  8027f8:	10803fcc 	andi	r2,r2,255
  8027fc:	1080201c 	xori	r2,r2,128
  802800:	10bfe004 	addi	r2,r2,-128
  802804:	1004c03a 	cmpne	r2,r2,zero
  802808:	10000c1e 	bne	r2,zero,80283c <tick+0x2104>
  80280c:	d0a74b03 	ldbu	r2,-25300(gp)
  802810:	10803fcc 	andi	r2,r2,255
  802814:	1080201c 	xori	r2,r2,128
  802818:	10bfe004 	addi	r2,r2,-128
  80281c:	1005003a 	cmpeq	r2,r2,zero
  802820:	1000091e 	bne	r2,zero,802848 <tick+0x2110>
  802824:	d0a76203 	ldbu	r2,-25208(gp)
  802828:	10803fcc 	andi	r2,r2,255
  80282c:	1080201c 	xori	r2,r2,128
  802830:	10bfe004 	addi	r2,r2,-128
  802834:	1004c03a 	cmpne	r2,r2,zero
  802838:	1000031e 	bne	r2,zero,802848 <tick+0x2110>
  80283c:	00800044 	movi	r2,1
  802840:	e0bfb915 	stw	r2,-284(fp)
  802844:	00000106 	br	80284c <tick+0x2114>
  802848:	e03fb915 	stw	zero,-284(fp)
  80284c:	e0ffb917 	ldw	r3,-284(fp)
  802850:	1805883a 	mov	r2,r3
  802854:	d0a72d45 	stb	r2,-25419(gp)
      g104 =(g103b&&_cg103);
  802858:	d0a74b03 	ldbu	r2,-25300(gp)
  80285c:	10803fcc 	andi	r2,r2,255
  802860:	1080201c 	xori	r2,r2,128
  802864:	10bfe004 	addi	r2,r2,-128
  802868:	1005003a 	cmpeq	r2,r2,zero
  80286c:	1000091e 	bne	r2,zero,802894 <tick+0x215c>
  802870:	d0a76203 	ldbu	r2,-25208(gp)
  802874:	10803fcc 	andi	r2,r2,255
  802878:	1080201c 	xori	r2,r2,128
  80287c:	10bfe004 	addi	r2,r2,-128
  802880:	1005003a 	cmpeq	r2,r2,zero
  802884:	1000031e 	bne	r2,zero,802894 <tick+0x215c>
  802888:	00800044 	movi	r2,1
  80288c:	e0bfb815 	stw	r2,-288(fp)
  802890:	00000106 	br	802898 <tick+0x2160>
  802894:	e03fb815 	stw	zero,-288(fp)
  802898:	e0ffb817 	ldw	r3,-288(fp)
  80289c:	1805883a 	mov	r2,r3
  8028a0:	d0a75585 	stb	r2,-25258(gp)
      if(g104){
  8028a4:	d0a75583 	ldbu	r2,-25258(gp)
  8028a8:	10803fcc 	andi	r2,r2,255
  8028ac:	1080201c 	xori	r2,r2,128
  8028b0:	10bfe004 	addi	r2,r2,-128
  8028b4:	1005003a 	cmpeq	r2,r2,zero
  8028b8:	1000021e 	bne	r2,zero,8028c4 <tick+0x218c>
         _DDDPacemaker_local_AEI_start =(_DDDPacemaker_local_AEI_start||1);
  8028bc:	00800044 	movi	r2,1
  8028c0:	d0a76845 	stb	r2,-25183(gp)
      }
      g109 =(PRE_g108);
  8028c4:	d0a76583 	ldbu	r2,-25194(gp)
  8028c8:	d0a76785 	stb	r2,-25186(gp)
      g109b = g109;
  8028cc:	d0a76783 	ldbu	r2,-25186(gp)
  8028d0:	d0a74985 	stb	r2,-25306(gp)
      _cg109 =((!(_DDDPacemaker_local_VR))&&(VSense||VPace));
  8028d4:	d0a76003 	ldbu	r2,-25216(gp)
  8028d8:	10803fcc 	andi	r2,r2,255
  8028dc:	1080201c 	xori	r2,r2,128
  8028e0:	10bfe004 	addi	r2,r2,-128
  8028e4:	1004c03a 	cmpne	r2,r2,zero
  8028e8:	10000f1e 	bne	r2,zero,802928 <tick+0x21f0>
  8028ec:	d0a74803 	ldbu	r2,-25312(gp)
  8028f0:	10803fcc 	andi	r2,r2,255
  8028f4:	1080201c 	xori	r2,r2,128
  8028f8:	10bfe004 	addi	r2,r2,-128
  8028fc:	1004c03a 	cmpne	r2,r2,zero
  802900:	1000061e 	bne	r2,zero,80291c <tick+0x21e4>
  802904:	d0a76403 	ldbu	r2,-25200(gp)
  802908:	10803fcc 	andi	r2,r2,255
  80290c:	1080201c 	xori	r2,r2,128
  802910:	10bfe004 	addi	r2,r2,-128
  802914:	1005003a 	cmpeq	r2,r2,zero
  802918:	1000031e 	bne	r2,zero,802928 <tick+0x21f0>
  80291c:	00800044 	movi	r2,1
  802920:	e0bfb715 	stw	r2,-292(fp)
  802924:	00000106 	br	80292c <tick+0x21f4>
  802928:	e03fb715 	stw	zero,-292(fp)
  80292c:	e0ffb717 	ldw	r3,-292(fp)
  802930:	1805883a 	mov	r2,r3
  802934:	d0a763c5 	stb	r2,-25201(gp)
      g110 =(g109b&&_cg109);
  802938:	d0a74983 	ldbu	r2,-25306(gp)
  80293c:	10803fcc 	andi	r2,r2,255
  802940:	1080201c 	xori	r2,r2,128
  802944:	10bfe004 	addi	r2,r2,-128
  802948:	1005003a 	cmpeq	r2,r2,zero
  80294c:	1000091e 	bne	r2,zero,802974 <tick+0x223c>
  802950:	d0a763c3 	ldbu	r2,-25201(gp)
  802954:	10803fcc 	andi	r2,r2,255
  802958:	1080201c 	xori	r2,r2,128
  80295c:	10bfe004 	addi	r2,r2,-128
  802960:	1005003a 	cmpeq	r2,r2,zero
  802964:	1000031e 	bne	r2,zero,802974 <tick+0x223c>
  802968:	00800044 	movi	r2,1
  80296c:	e0bfb615 	stw	r2,-296(fp)
  802970:	00000106 	br	802978 <tick+0x2240>
  802974:	e03fb615 	stw	zero,-296(fp)
  802978:	e0ffb617 	ldw	r3,-296(fp)
  80297c:	1805883a 	mov	r2,r3
  802980:	d0a74205 	stb	r2,-25336(gp)
      if(g110){
  802984:	d0a74203 	ldbu	r2,-25336(gp)
  802988:	10803fcc 	andi	r2,r2,255
  80298c:	1080201c 	xori	r2,r2,128
  802990:	10bfe004 	addi	r2,r2,-128
  802994:	1005003a 	cmpeq	r2,r2,zero
  802998:	1000021e 	bne	r2,zero,8029a4 <tick+0x226c>
         _DDDPacemaker_local_AEI_start =(_DDDPacemaker_local_AEI_start||1);
  80299c:	00800044 	movi	r2,1
  8029a0:	d0a76845 	stb	r2,-25183(gp)
      }
      g105 =(g104||g110||(g111&&(!(_cg111))));
  8029a4:	d0a75583 	ldbu	r2,-25258(gp)
  8029a8:	10803fcc 	andi	r2,r2,255
  8029ac:	1080201c 	xori	r2,r2,128
  8029b0:	10bfe004 	addi	r2,r2,-128
  8029b4:	1004c03a 	cmpne	r2,r2,zero
  8029b8:	1000121e 	bne	r2,zero,802a04 <tick+0x22cc>
  8029bc:	d0a74203 	ldbu	r2,-25336(gp)
  8029c0:	10803fcc 	andi	r2,r2,255
  8029c4:	1080201c 	xori	r2,r2,128
  8029c8:	10bfe004 	addi	r2,r2,-128
  8029cc:	1004c03a 	cmpne	r2,r2,zero
  8029d0:	10000c1e 	bne	r2,zero,802a04 <tick+0x22cc>
  8029d4:	d0a72643 	ldbu	r2,-25447(gp)
  8029d8:	10803fcc 	andi	r2,r2,255
  8029dc:	1080201c 	xori	r2,r2,128
  8029e0:	10bfe004 	addi	r2,r2,-128
  8029e4:	1005003a 	cmpeq	r2,r2,zero
  8029e8:	1000091e 	bne	r2,zero,802a10 <tick+0x22d8>
  8029ec:	d0a73b03 	ldbu	r2,-25364(gp)
  8029f0:	10803fcc 	andi	r2,r2,255
  8029f4:	1080201c 	xori	r2,r2,128
  8029f8:	10bfe004 	addi	r2,r2,-128
  8029fc:	1004c03a 	cmpne	r2,r2,zero
  802a00:	1000031e 	bne	r2,zero,802a10 <tick+0x22d8>
  802a04:	00800044 	movi	r2,1
  802a08:	e0bfb515 	stw	r2,-300(fp)
  802a0c:	00000106 	br	802a14 <tick+0x22dc>
  802a10:	e03fb515 	stw	zero,-300(fp)
  802a14:	e0ffb517 	ldw	r3,-300(fp)
  802a18:	1805883a 	mov	r2,r3
  802a1c:	d0a73bc5 	stb	r2,-25361(gp)
      g108 =(g112||(g109b&&(!(_cg109)))||g107);
  802a20:	d0a72883 	ldbu	r2,-25438(gp)
  802a24:	10803fcc 	andi	r2,r2,255
  802a28:	1080201c 	xori	r2,r2,128
  802a2c:	10bfe004 	addi	r2,r2,-128
  802a30:	1004c03a 	cmpne	r2,r2,zero
  802a34:	1000121e 	bne	r2,zero,802a80 <tick+0x2348>
  802a38:	d0a74983 	ldbu	r2,-25306(gp)
  802a3c:	10803fcc 	andi	r2,r2,255
  802a40:	1080201c 	xori	r2,r2,128
  802a44:	10bfe004 	addi	r2,r2,-128
  802a48:	1005003a 	cmpeq	r2,r2,zero
  802a4c:	1000061e 	bne	r2,zero,802a68 <tick+0x2330>
  802a50:	d0a763c3 	ldbu	r2,-25201(gp)
  802a54:	10803fcc 	andi	r2,r2,255
  802a58:	1080201c 	xori	r2,r2,128
  802a5c:	10bfe004 	addi	r2,r2,-128
  802a60:	1005003a 	cmpeq	r2,r2,zero
  802a64:	1000061e 	bne	r2,zero,802a80 <tick+0x2348>
  802a68:	d0a75403 	ldbu	r2,-25264(gp)
  802a6c:	10803fcc 	andi	r2,r2,255
  802a70:	1080201c 	xori	r2,r2,128
  802a74:	10bfe004 	addi	r2,r2,-128
  802a78:	1005003a 	cmpeq	r2,r2,zero
  802a7c:	1000031e 	bne	r2,zero,802a8c <tick+0x2354>
  802a80:	00800044 	movi	r2,1
  802a84:	e0bfb415 	stw	r2,-304(fp)
  802a88:	00000106 	br	802a90 <tick+0x2358>
  802a8c:	e03fb415 	stw	zero,-304(fp)
  802a90:	e0ffb417 	ldw	r3,-304(fp)
  802a94:	1805883a 	mov	r2,r3
  802a98:	d0a725c5 	stb	r2,-25449(gp)
      g114 = g1;
  802a9c:	d0a73043 	ldbu	r2,-25407(gp)
  802aa0:	d0a74705 	stb	r2,-25316(gp)
      g116 =(PRE_g115);
  802aa4:	d0a75603 	ldbu	r2,-25256(gp)
  802aa8:	d0a75785 	stb	r2,-25250(gp)
      g116b = g116;
  802aac:	d0a75783 	ldbu	r2,-25250(gp)
  802ab0:	d0a74bc5 	stb	r2,-25297(gp)
      _cg116 = _DDDPacemaker_local_AEI_start;
  802ab4:	d0a76843 	ldbu	r2,-25183(gp)
  802ab8:	d0a72845 	stb	r2,-25439(gp)
      g115 =((g116b&&(!(_cg116)))||g114||(g118b&&_cg118)||g120);
  802abc:	d0a74bc3 	ldbu	r2,-25297(gp)
  802ac0:	10803fcc 	andi	r2,r2,255
  802ac4:	1080201c 	xori	r2,r2,128
  802ac8:	10bfe004 	addi	r2,r2,-128
  802acc:	1005003a 	cmpeq	r2,r2,zero
  802ad0:	1000061e 	bne	r2,zero,802aec <tick+0x23b4>
  802ad4:	d0a72843 	ldbu	r2,-25439(gp)
  802ad8:	10803fcc 	andi	r2,r2,255
  802adc:	1080201c 	xori	r2,r2,128
  802ae0:	10bfe004 	addi	r2,r2,-128
  802ae4:	1005003a 	cmpeq	r2,r2,zero
  802ae8:	1000181e 	bne	r2,zero,802b4c <tick+0x2414>
  802aec:	d0a74703 	ldbu	r2,-25316(gp)
  802af0:	10803fcc 	andi	r2,r2,255
  802af4:	1080201c 	xori	r2,r2,128
  802af8:	10bfe004 	addi	r2,r2,-128
  802afc:	1004c03a 	cmpne	r2,r2,zero
  802b00:	1000121e 	bne	r2,zero,802b4c <tick+0x2414>
  802b04:	d0a73a43 	ldbu	r2,-25367(gp)
  802b08:	10803fcc 	andi	r2,r2,255
  802b0c:	1080201c 	xori	r2,r2,128
  802b10:	10bfe004 	addi	r2,r2,-128
  802b14:	1005003a 	cmpeq	r2,r2,zero
  802b18:	1000061e 	bne	r2,zero,802b34 <tick+0x23fc>
  802b1c:	d0a73e43 	ldbu	r2,-25351(gp)
  802b20:	10803fcc 	andi	r2,r2,255
  802b24:	1080201c 	xori	r2,r2,128
  802b28:	10bfe004 	addi	r2,r2,-128
  802b2c:	1004c03a 	cmpne	r2,r2,zero
  802b30:	1000061e 	bne	r2,zero,802b4c <tick+0x2414>
  802b34:	d0a76543 	ldbu	r2,-25195(gp)
  802b38:	10803fcc 	andi	r2,r2,255
  802b3c:	1080201c 	xori	r2,r2,128
  802b40:	10bfe004 	addi	r2,r2,-128
  802b44:	1005003a 	cmpeq	r2,r2,zero
  802b48:	1000031e 	bne	r2,zero,802b58 <tick+0x2420>
  802b4c:	00800044 	movi	r2,1
  802b50:	e0bfb315 	stw	r2,-308(fp)
  802b54:	00000106 	br	802b5c <tick+0x2424>
  802b58:	e03fb315 	stw	zero,-308(fp)
  802b5c:	e0ffb317 	ldw	r3,-308(fp)
  802b60:	1805883a 	mov	r2,r3
  802b64:	d0a72dc5 	stb	r2,-25417(gp)
      g117 =((g116b&&_cg116)||(g119&&(!(_cg119))));
  802b68:	d0a74bc3 	ldbu	r2,-25297(gp)
  802b6c:	10803fcc 	andi	r2,r2,255
  802b70:	1080201c 	xori	r2,r2,128
  802b74:	10bfe004 	addi	r2,r2,-128
  802b78:	1005003a 	cmpeq	r2,r2,zero
  802b7c:	1000061e 	bne	r2,zero,802b98 <tick+0x2460>
  802b80:	d0a72843 	ldbu	r2,-25439(gp)
  802b84:	10803fcc 	andi	r2,r2,255
  802b88:	1080201c 	xori	r2,r2,128
  802b8c:	10bfe004 	addi	r2,r2,-128
  802b90:	1004c03a 	cmpne	r2,r2,zero
  802b94:	10000c1e 	bne	r2,zero,802bc8 <tick+0x2490>
  802b98:	d0a75003 	ldbu	r2,-25280(gp)
  802b9c:	10803fcc 	andi	r2,r2,255
  802ba0:	1080201c 	xori	r2,r2,128
  802ba4:	10bfe004 	addi	r2,r2,-128
  802ba8:	1005003a 	cmpeq	r2,r2,zero
  802bac:	1000091e 	bne	r2,zero,802bd4 <tick+0x249c>
  802bb0:	d0a736c3 	ldbu	r2,-25381(gp)
  802bb4:	10803fcc 	andi	r2,r2,255
  802bb8:	1080201c 	xori	r2,r2,128
  802bbc:	10bfe004 	addi	r2,r2,-128
  802bc0:	1004c03a 	cmpne	r2,r2,zero
  802bc4:	1000031e 	bne	r2,zero,802bd4 <tick+0x249c>
  802bc8:	00800044 	movi	r2,1
  802bcc:	e0bfb215 	stw	r2,-312(fp)
  802bd0:	00000106 	br	802bd8 <tick+0x24a0>
  802bd4:	e03fb215 	stw	zero,-312(fp)
  802bd8:	e0ffb217 	ldw	r3,-312(fp)
  802bdc:	1805883a 	mov	r2,r3
  802be0:	d0a73dc5 	stb	r2,-25353(gp)
      g15_e1 =(!((g4||g7||g9||g12)));
  802be4:	d0a72583 	ldbu	r2,-25450(gp)
  802be8:	10803fcc 	andi	r2,r2,255
  802bec:	1080201c 	xori	r2,r2,128
  802bf0:	10bfe004 	addi	r2,r2,-128
  802bf4:	1004c03a 	cmpne	r2,r2,zero
  802bf8:	1000151e 	bne	r2,zero,802c50 <tick+0x2518>
  802bfc:	d0a742c3 	ldbu	r2,-25333(gp)
  802c00:	10803fcc 	andi	r2,r2,255
  802c04:	1080201c 	xori	r2,r2,128
  802c08:	10bfe004 	addi	r2,r2,-128
  802c0c:	1004c03a 	cmpne	r2,r2,zero
  802c10:	10000f1e 	bne	r2,zero,802c50 <tick+0x2518>
  802c14:	d0a72ac3 	ldbu	r2,-25429(gp)
  802c18:	10803fcc 	andi	r2,r2,255
  802c1c:	1080201c 	xori	r2,r2,128
  802c20:	10bfe004 	addi	r2,r2,-128
  802c24:	1004c03a 	cmpne	r2,r2,zero
  802c28:	1000091e 	bne	r2,zero,802c50 <tick+0x2518>
  802c2c:	d0a73303 	ldbu	r2,-25396(gp)
  802c30:	10803fcc 	andi	r2,r2,255
  802c34:	1080201c 	xori	r2,r2,128
  802c38:	10bfe004 	addi	r2,r2,-128
  802c3c:	1004c03a 	cmpne	r2,r2,zero
  802c40:	1000031e 	bne	r2,zero,802c50 <tick+0x2518>
  802c44:	00800044 	movi	r2,1
  802c48:	e0bfb115 	stw	r2,-316(fp)
  802c4c:	00000106 	br	802c54 <tick+0x251c>
  802c50:	e03fb115 	stw	zero,-316(fp)
  802c54:	e0ffb117 	ldw	r3,-316(fp)
  802c58:	1805883a 	mov	r2,r3
  802c5c:	d0a75fc5 	stb	r2,-25217(gp)
      g23_e2 =(!((g18||g20)));
  802c60:	d0a73903 	ldbu	r2,-25372(gp)
  802c64:	10803fcc 	andi	r2,r2,255
  802c68:	1080201c 	xori	r2,r2,128
  802c6c:	10bfe004 	addi	r2,r2,-128
  802c70:	1004c03a 	cmpne	r2,r2,zero
  802c74:	1000091e 	bne	r2,zero,802c9c <tick+0x2564>
  802c78:	d0a74ec3 	ldbu	r2,-25285(gp)
  802c7c:	10803fcc 	andi	r2,r2,255
  802c80:	1080201c 	xori	r2,r2,128
  802c84:	10bfe004 	addi	r2,r2,-128
  802c88:	1004c03a 	cmpne	r2,r2,zero
  802c8c:	1000031e 	bne	r2,zero,802c9c <tick+0x2564>
  802c90:	00800044 	movi	r2,1
  802c94:	e0bfb015 	stw	r2,-320(fp)
  802c98:	00000106 	br	802ca0 <tick+0x2568>
  802c9c:	e03fb015 	stw	zero,-320(fp)
  802ca0:	e0ffb017 	ldw	r3,-320(fp)
  802ca4:	1805883a 	mov	r2,r3
  802ca8:	d0a76a45 	stb	r2,-25175(gp)
      g36_e3 =(!((g26||g30)));
  802cac:	d0a76a03 	ldbu	r2,-25176(gp)
  802cb0:	10803fcc 	andi	r2,r2,255
  802cb4:	1080201c 	xori	r2,r2,128
  802cb8:	10bfe004 	addi	r2,r2,-128
  802cbc:	1004c03a 	cmpne	r2,r2,zero
  802cc0:	1000091e 	bne	r2,zero,802ce8 <tick+0x25b0>
  802cc4:	d0a75b03 	ldbu	r2,-25236(gp)
  802cc8:	10803fcc 	andi	r2,r2,255
  802ccc:	1080201c 	xori	r2,r2,128
  802cd0:	10bfe004 	addi	r2,r2,-128
  802cd4:	1004c03a 	cmpne	r2,r2,zero
  802cd8:	1000031e 	bne	r2,zero,802ce8 <tick+0x25b0>
  802cdc:	00800044 	movi	r2,1
  802ce0:	e0bfaf15 	stw	r2,-324(fp)
  802ce4:	00000106 	br	802cec <tick+0x25b4>
  802ce8:	e03faf15 	stw	zero,-324(fp)
  802cec:	e0ffaf17 	ldw	r3,-324(fp)
  802cf0:	1805883a 	mov	r2,r3
  802cf4:	d0a74c85 	stb	r2,-25294(gp)
      g43_e4 =(!((g39||g41)));
  802cf8:	d0a76483 	ldbu	r2,-25198(gp)
  802cfc:	10803fcc 	andi	r2,r2,255
  802d00:	1080201c 	xori	r2,r2,128
  802d04:	10bfe004 	addi	r2,r2,-128
  802d08:	1004c03a 	cmpne	r2,r2,zero
  802d0c:	1000091e 	bne	r2,zero,802d34 <tick+0x25fc>
  802d10:	d0a73683 	ldbu	r2,-25382(gp)
  802d14:	10803fcc 	andi	r2,r2,255
  802d18:	1080201c 	xori	r2,r2,128
  802d1c:	10bfe004 	addi	r2,r2,-128
  802d20:	1004c03a 	cmpne	r2,r2,zero
  802d24:	1000031e 	bne	r2,zero,802d34 <tick+0x25fc>
  802d28:	00800044 	movi	r2,1
  802d2c:	e0bfae15 	stw	r2,-328(fp)
  802d30:	00000106 	br	802d38 <tick+0x2600>
  802d34:	e03fae15 	stw	zero,-328(fp)
  802d38:	e0ffae17 	ldw	r3,-328(fp)
  802d3c:	1805883a 	mov	r2,r3
  802d40:	d0a74e45 	stb	r2,-25287(gp)
      g54_e5 =(!((g46||g49)));
  802d44:	d0a75203 	ldbu	r2,-25272(gp)
  802d48:	10803fcc 	andi	r2,r2,255
  802d4c:	1080201c 	xori	r2,r2,128
  802d50:	10bfe004 	addi	r2,r2,-128
  802d54:	1004c03a 	cmpne	r2,r2,zero
  802d58:	1000091e 	bne	r2,zero,802d80 <tick+0x2648>
  802d5c:	d0a74243 	ldbu	r2,-25335(gp)
  802d60:	10803fcc 	andi	r2,r2,255
  802d64:	1080201c 	xori	r2,r2,128
  802d68:	10bfe004 	addi	r2,r2,-128
  802d6c:	1004c03a 	cmpne	r2,r2,zero
  802d70:	1000031e 	bne	r2,zero,802d80 <tick+0x2648>
  802d74:	00800044 	movi	r2,1
  802d78:	e0bfad15 	stw	r2,-332(fp)
  802d7c:	00000106 	br	802d84 <tick+0x264c>
  802d80:	e03fad15 	stw	zero,-332(fp)
  802d84:	e0ffad17 	ldw	r3,-332(fp)
  802d88:	1805883a 	mov	r2,r3
  802d8c:	d0a754c5 	stb	r2,-25261(gp)
      g61_e6 =(!((g57||g59)));
  802d90:	d0a75703 	ldbu	r2,-25252(gp)
  802d94:	10803fcc 	andi	r2,r2,255
  802d98:	1080201c 	xori	r2,r2,128
  802d9c:	10bfe004 	addi	r2,r2,-128
  802da0:	1004c03a 	cmpne	r2,r2,zero
  802da4:	1000091e 	bne	r2,zero,802dcc <tick+0x2694>
  802da8:	d0a74483 	ldbu	r2,-25326(gp)
  802dac:	10803fcc 	andi	r2,r2,255
  802db0:	1080201c 	xori	r2,r2,128
  802db4:	10bfe004 	addi	r2,r2,-128
  802db8:	1004c03a 	cmpne	r2,r2,zero
  802dbc:	1000031e 	bne	r2,zero,802dcc <tick+0x2694>
  802dc0:	00800044 	movi	r2,1
  802dc4:	e0bfac15 	stw	r2,-336(fp)
  802dc8:	00000106 	br	802dd0 <tick+0x2698>
  802dcc:	e03fac15 	stw	zero,-336(fp)
  802dd0:	e0ffac17 	ldw	r3,-336(fp)
  802dd4:	1805883a 	mov	r2,r3
  802dd8:	d0a75cc5 	stb	r2,-25229(gp)
      g72_e7 =(!((g64||g67)));
  802ddc:	d0a73f83 	ldbu	r2,-25346(gp)
  802de0:	10803fcc 	andi	r2,r2,255
  802de4:	1080201c 	xori	r2,r2,128
  802de8:	10bfe004 	addi	r2,r2,-128
  802dec:	1004c03a 	cmpne	r2,r2,zero
  802df0:	1000091e 	bne	r2,zero,802e18 <tick+0x26e0>
  802df4:	d0a76643 	ldbu	r2,-25191(gp)
  802df8:	10803fcc 	andi	r2,r2,255
  802dfc:	1080201c 	xori	r2,r2,128
  802e00:	10bfe004 	addi	r2,r2,-128
  802e04:	1004c03a 	cmpne	r2,r2,zero
  802e08:	1000031e 	bne	r2,zero,802e18 <tick+0x26e0>
  802e0c:	00800044 	movi	r2,1
  802e10:	e0bfab15 	stw	r2,-340(fp)
  802e14:	00000106 	br	802e1c <tick+0x26e4>
  802e18:	e03fab15 	stw	zero,-340(fp)
  802e1c:	e0ffab17 	ldw	r3,-340(fp)
  802e20:	1805883a 	mov	r2,r3
  802e24:	d0a733c5 	stb	r2,-25393(gp)
      g79_e8 =(!((g75||g77)));
  802e28:	d0a75ac3 	ldbu	r2,-25237(gp)
  802e2c:	10803fcc 	andi	r2,r2,255
  802e30:	1080201c 	xori	r2,r2,128
  802e34:	10bfe004 	addi	r2,r2,-128
  802e38:	1004c03a 	cmpne	r2,r2,zero
  802e3c:	1000091e 	bne	r2,zero,802e64 <tick+0x272c>
  802e40:	d0a76083 	ldbu	r2,-25214(gp)
  802e44:	10803fcc 	andi	r2,r2,255
  802e48:	1080201c 	xori	r2,r2,128
  802e4c:	10bfe004 	addi	r2,r2,-128
  802e50:	1004c03a 	cmpne	r2,r2,zero
  802e54:	1000031e 	bne	r2,zero,802e64 <tick+0x272c>
  802e58:	00800044 	movi	r2,1
  802e5c:	e0bfaa15 	stw	r2,-344(fp)
  802e60:	00000106 	br	802e68 <tick+0x2730>
  802e64:	e03faa15 	stw	zero,-344(fp)
  802e68:	e0ffaa17 	ldw	r3,-344(fp)
  802e6c:	1805883a 	mov	r2,r3
  802e70:	d0a75b85 	stb	r2,-25234(gp)
      g92_e9 =(!((g82||g85||g88)));
  802e74:	d0a73243 	ldbu	r2,-25399(gp)
  802e78:	10803fcc 	andi	r2,r2,255
  802e7c:	1080201c 	xori	r2,r2,128
  802e80:	10bfe004 	addi	r2,r2,-128
  802e84:	1004c03a 	cmpne	r2,r2,zero
  802e88:	10000f1e 	bne	r2,zero,802ec8 <tick+0x2790>
  802e8c:	d0a72a83 	ldbu	r2,-25430(gp)
  802e90:	10803fcc 	andi	r2,r2,255
  802e94:	1080201c 	xori	r2,r2,128
  802e98:	10bfe004 	addi	r2,r2,-128
  802e9c:	1004c03a 	cmpne	r2,r2,zero
  802ea0:	1000091e 	bne	r2,zero,802ec8 <tick+0x2790>
  802ea4:	d0a76183 	ldbu	r2,-25210(gp)
  802ea8:	10803fcc 	andi	r2,r2,255
  802eac:	1080201c 	xori	r2,r2,128
  802eb0:	10bfe004 	addi	r2,r2,-128
  802eb4:	1004c03a 	cmpne	r2,r2,zero
  802eb8:	1000031e 	bne	r2,zero,802ec8 <tick+0x2790>
  802ebc:	00800044 	movi	r2,1
  802ec0:	e0bfa915 	stw	r2,-348(fp)
  802ec4:	00000106 	br	802ecc <tick+0x2794>
  802ec8:	e03fa915 	stw	zero,-348(fp)
  802ecc:	e0ffa917 	ldw	r3,-348(fp)
  802ed0:	1805883a 	mov	r2,r3
  802ed4:	d0a74e05 	stb	r2,-25288(gp)
      g100_e10 =(!((g95||g97)));
  802ed8:	d0a752c3 	ldbu	r2,-25269(gp)
  802edc:	10803fcc 	andi	r2,r2,255
  802ee0:	1080201c 	xori	r2,r2,128
  802ee4:	10bfe004 	addi	r2,r2,-128
  802ee8:	1004c03a 	cmpne	r2,r2,zero
  802eec:	1000091e 	bne	r2,zero,802f14 <tick+0x27dc>
  802ef0:	d0a73343 	ldbu	r2,-25395(gp)
  802ef4:	10803fcc 	andi	r2,r2,255
  802ef8:	1080201c 	xori	r2,r2,128
  802efc:	10bfe004 	addi	r2,r2,-128
  802f00:	1004c03a 	cmpne	r2,r2,zero
  802f04:	1000031e 	bne	r2,zero,802f14 <tick+0x27dc>
  802f08:	00800044 	movi	r2,1
  802f0c:	e0bfa815 	stw	r2,-352(fp)
  802f10:	00000106 	br	802f18 <tick+0x27e0>
  802f14:	e03fa815 	stw	zero,-352(fp)
  802f18:	e0ffa817 	ldw	r3,-352(fp)
  802f1c:	1805883a 	mov	r2,r3
  802f20:	d0a767c5 	stb	r2,-25185(gp)
      g113_e11 =(!((g103||g106||g109)));
  802f24:	d0a729c3 	ldbu	r2,-25433(gp)
  802f28:	10803fcc 	andi	r2,r2,255
  802f2c:	1080201c 	xori	r2,r2,128
  802f30:	10bfe004 	addi	r2,r2,-128
  802f34:	1004c03a 	cmpne	r2,r2,zero
  802f38:	10000f1e 	bne	r2,zero,802f78 <tick+0x2840>
  802f3c:	d0a76903 	ldbu	r2,-25180(gp)
  802f40:	10803fcc 	andi	r2,r2,255
  802f44:	1080201c 	xori	r2,r2,128
  802f48:	10bfe004 	addi	r2,r2,-128
  802f4c:	1004c03a 	cmpne	r2,r2,zero
  802f50:	1000091e 	bne	r2,zero,802f78 <tick+0x2840>
  802f54:	d0a76783 	ldbu	r2,-25186(gp)
  802f58:	10803fcc 	andi	r2,r2,255
  802f5c:	1080201c 	xori	r2,r2,128
  802f60:	10bfe004 	addi	r2,r2,-128
  802f64:	1004c03a 	cmpne	r2,r2,zero
  802f68:	1000031e 	bne	r2,zero,802f78 <tick+0x2840>
  802f6c:	00800044 	movi	r2,1
  802f70:	e0bfa715 	stw	r2,-356(fp)
  802f74:	00000106 	br	802f7c <tick+0x2844>
  802f78:	e03fa715 	stw	zero,-356(fp)
  802f7c:	e0ffa717 	ldw	r3,-356(fp)
  802f80:	1805883a 	mov	r2,r3
  802f84:	d0a749c5 	stb	r2,-25305(gp)
      g121_e12 =(!((g116||g118)));
  802f88:	d0a75783 	ldbu	r2,-25250(gp)
  802f8c:	10803fcc 	andi	r2,r2,255
  802f90:	1080201c 	xori	r2,r2,128
  802f94:	10bfe004 	addi	r2,r2,-128
  802f98:	1004c03a 	cmpne	r2,r2,zero
  802f9c:	1000091e 	bne	r2,zero,802fc4 <tick+0x288c>
  802fa0:	d0a73743 	ldbu	r2,-25379(gp)
  802fa4:	10803fcc 	andi	r2,r2,255
  802fa8:	1080201c 	xori	r2,r2,128
  802fac:	10bfe004 	addi	r2,r2,-128
  802fb0:	1004c03a 	cmpne	r2,r2,zero
  802fb4:	1000031e 	bne	r2,zero,802fc4 <tick+0x288c>
  802fb8:	00800044 	movi	r2,1
  802fbc:	e0bfa615 	stw	r2,-360(fp)
  802fc0:	00000106 	br	802fc8 <tick+0x2890>
  802fc4:	e03fa615 	stw	zero,-360(fp)
  802fc8:	e0ffa617 	ldw	r3,-360(fp)
  802fcc:	1805883a 	mov	r2,r3
  802fd0:	d0a740c5 	stb	r2,-25341(gp)
      g125_e13 =(!(g124));
  802fd4:	d0a759c3 	ldbu	r2,-25241(gp)
  802fd8:	10803fcc 	andi	r2,r2,255
  802fdc:	1080201c 	xori	r2,r2,128
  802fe0:	10bfe004 	addi	r2,r2,-128
  802fe4:	1005003a 	cmpeq	r2,r2,zero
  802fe8:	d0a73c45 	stb	r2,-25359(gp)
      g126_fix0 =((g15_e1||g15)&&(g23_e2||g23)&&(g36_e3||g36)&&(g43_e4||g43));
  802fec:	d0a75fc3 	ldbu	r2,-25217(gp)
  802ff0:	10803fcc 	andi	r2,r2,255
  802ff4:	1080201c 	xori	r2,r2,128
  802ff8:	10bfe004 	addi	r2,r2,-128
  802ffc:	1004c03a 	cmpne	r2,r2,zero
  803000:	1000061e 	bne	r2,zero,80301c <tick+0x28e4>
  803004:	d0a74cc3 	ldbu	r2,-25293(gp)
  803008:	10803fcc 	andi	r2,r2,255
  80300c:	1080201c 	xori	r2,r2,128
  803010:	10bfe004 	addi	r2,r2,-128
  803014:	1005003a 	cmpeq	r2,r2,zero
  803018:	1000271e 	bne	r2,zero,8030b8 <tick+0x2980>
  80301c:	d0a76a43 	ldbu	r2,-25175(gp)
  803020:	10803fcc 	andi	r2,r2,255
  803024:	1080201c 	xori	r2,r2,128
  803028:	10bfe004 	addi	r2,r2,-128
  80302c:	1004c03a 	cmpne	r2,r2,zero
  803030:	1000061e 	bne	r2,zero,80304c <tick+0x2914>
  803034:	d0a74543 	ldbu	r2,-25323(gp)
  803038:	10803fcc 	andi	r2,r2,255
  80303c:	1080201c 	xori	r2,r2,128
  803040:	10bfe004 	addi	r2,r2,-128
  803044:	1005003a 	cmpeq	r2,r2,zero
  803048:	10001b1e 	bne	r2,zero,8030b8 <tick+0x2980>
  80304c:	d0a74c83 	ldbu	r2,-25294(gp)
  803050:	10803fcc 	andi	r2,r2,255
  803054:	1080201c 	xori	r2,r2,128
  803058:	10bfe004 	addi	r2,r2,-128
  80305c:	1004c03a 	cmpne	r2,r2,zero
  803060:	1000061e 	bne	r2,zero,80307c <tick+0x2944>
  803064:	d0a75183 	ldbu	r2,-25274(gp)
  803068:	10803fcc 	andi	r2,r2,255
  80306c:	1080201c 	xori	r2,r2,128
  803070:	10bfe004 	addi	r2,r2,-128
  803074:	1005003a 	cmpeq	r2,r2,zero
  803078:	10000f1e 	bne	r2,zero,8030b8 <tick+0x2980>
  80307c:	d0a74e43 	ldbu	r2,-25287(gp)
  803080:	10803fcc 	andi	r2,r2,255
  803084:	1080201c 	xori	r2,r2,128
  803088:	10bfe004 	addi	r2,r2,-128
  80308c:	1004c03a 	cmpne	r2,r2,zero
  803090:	1000061e 	bne	r2,zero,8030ac <tick+0x2974>
  803094:	d0a75083 	ldbu	r2,-25278(gp)
  803098:	10803fcc 	andi	r2,r2,255
  80309c:	1080201c 	xori	r2,r2,128
  8030a0:	10bfe004 	addi	r2,r2,-128
  8030a4:	1005003a 	cmpeq	r2,r2,zero
  8030a8:	1000031e 	bne	r2,zero,8030b8 <tick+0x2980>
  8030ac:	00800044 	movi	r2,1
  8030b0:	e0bfa515 	stw	r2,-364(fp)
  8030b4:	00000106 	br	8030bc <tick+0x2984>
  8030b8:	e03fa515 	stw	zero,-364(fp)
  8030bc:	e0ffa517 	ldw	r3,-364(fp)
  8030c0:	1805883a 	mov	r2,r3
  8030c4:	d0a73a85 	stb	r2,-25366(gp)
      g126_fix1 =(g126_fix0&&(g54_e5||g54)&&(g61_e6||g61)&&(g72_e7||g72));
  8030c8:	d0a73a83 	ldbu	r2,-25366(gp)
  8030cc:	10803fcc 	andi	r2,r2,255
  8030d0:	1080201c 	xori	r2,r2,128
  8030d4:	10bfe004 	addi	r2,r2,-128
  8030d8:	1005003a 	cmpeq	r2,r2,zero
  8030dc:	1000271e 	bne	r2,zero,80317c <tick+0x2a44>
  8030e0:	d0a754c3 	ldbu	r2,-25261(gp)
  8030e4:	10803fcc 	andi	r2,r2,255
  8030e8:	1080201c 	xori	r2,r2,128
  8030ec:	10bfe004 	addi	r2,r2,-128
  8030f0:	1004c03a 	cmpne	r2,r2,zero
  8030f4:	1000061e 	bne	r2,zero,803110 <tick+0x29d8>
  8030f8:	d0a744c3 	ldbu	r2,-25325(gp)
  8030fc:	10803fcc 	andi	r2,r2,255
  803100:	1080201c 	xori	r2,r2,128
  803104:	10bfe004 	addi	r2,r2,-128
  803108:	1005003a 	cmpeq	r2,r2,zero
  80310c:	10001b1e 	bne	r2,zero,80317c <tick+0x2a44>
  803110:	d0a75cc3 	ldbu	r2,-25229(gp)
  803114:	10803fcc 	andi	r2,r2,255
  803118:	1080201c 	xori	r2,r2,128
  80311c:	10bfe004 	addi	r2,r2,-128
  803120:	1004c03a 	cmpne	r2,r2,zero
  803124:	1000061e 	bne	r2,zero,803140 <tick+0x2a08>
  803128:	d0a73083 	ldbu	r2,-25406(gp)
  80312c:	10803fcc 	andi	r2,r2,255
  803130:	1080201c 	xori	r2,r2,128
  803134:	10bfe004 	addi	r2,r2,-128
  803138:	1005003a 	cmpeq	r2,r2,zero
  80313c:	10000f1e 	bne	r2,zero,80317c <tick+0x2a44>
  803140:	d0a733c3 	ldbu	r2,-25393(gp)
  803144:	10803fcc 	andi	r2,r2,255
  803148:	1080201c 	xori	r2,r2,128
  80314c:	10bfe004 	addi	r2,r2,-128
  803150:	1004c03a 	cmpne	r2,r2,zero
  803154:	1000061e 	bne	r2,zero,803170 <tick+0x2a38>
  803158:	d0a75883 	ldbu	r2,-25246(gp)
  80315c:	10803fcc 	andi	r2,r2,255
  803160:	1080201c 	xori	r2,r2,128
  803164:	10bfe004 	addi	r2,r2,-128
  803168:	1005003a 	cmpeq	r2,r2,zero
  80316c:	1000031e 	bne	r2,zero,80317c <tick+0x2a44>
  803170:	00800044 	movi	r2,1
  803174:	e0bfa415 	stw	r2,-368(fp)
  803178:	00000106 	br	803180 <tick+0x2a48>
  80317c:	e03fa415 	stw	zero,-368(fp)
  803180:	e0ffa417 	ldw	r3,-368(fp)
  803184:	1805883a 	mov	r2,r3
  803188:	d0a74905 	stb	r2,-25308(gp)
      g126_fix2 =(g15||g23||g36||g43);
  80318c:	d0a74cc3 	ldbu	r2,-25293(gp)
  803190:	10803fcc 	andi	r2,r2,255
  803194:	1080201c 	xori	r2,r2,128
  803198:	10bfe004 	addi	r2,r2,-128
  80319c:	1004c03a 	cmpne	r2,r2,zero
  8031a0:	1000121e 	bne	r2,zero,8031ec <tick+0x2ab4>
  8031a4:	d0a74543 	ldbu	r2,-25323(gp)
  8031a8:	10803fcc 	andi	r2,r2,255
  8031ac:	1080201c 	xori	r2,r2,128
  8031b0:	10bfe004 	addi	r2,r2,-128
  8031b4:	1004c03a 	cmpne	r2,r2,zero
  8031b8:	10000c1e 	bne	r2,zero,8031ec <tick+0x2ab4>
  8031bc:	d0a75183 	ldbu	r2,-25274(gp)
  8031c0:	10803fcc 	andi	r2,r2,255
  8031c4:	1080201c 	xori	r2,r2,128
  8031c8:	10bfe004 	addi	r2,r2,-128
  8031cc:	1004c03a 	cmpne	r2,r2,zero
  8031d0:	1000061e 	bne	r2,zero,8031ec <tick+0x2ab4>
  8031d4:	d0a75083 	ldbu	r2,-25278(gp)
  8031d8:	10803fcc 	andi	r2,r2,255
  8031dc:	1080201c 	xori	r2,r2,128
  8031e0:	10bfe004 	addi	r2,r2,-128
  8031e4:	1005003a 	cmpeq	r2,r2,zero
  8031e8:	1000031e 	bne	r2,zero,8031f8 <tick+0x2ac0>
  8031ec:	00800044 	movi	r2,1
  8031f0:	e0bfa315 	stw	r2,-372(fp)
  8031f4:	00000106 	br	8031fc <tick+0x2ac4>
  8031f8:	e03fa315 	stw	zero,-372(fp)
  8031fc:	e0ffa317 	ldw	r3,-372(fp)
  803200:	1805883a 	mov	r2,r3
  803204:	d0a728c5 	stb	r2,-25437(gp)
      g126_fix3 =(g126_fix2||g54||g61||g72);
  803208:	d0a728c3 	ldbu	r2,-25437(gp)
  80320c:	10803fcc 	andi	r2,r2,255
  803210:	1080201c 	xori	r2,r2,128
  803214:	10bfe004 	addi	r2,r2,-128
  803218:	1004c03a 	cmpne	r2,r2,zero
  80321c:	1000121e 	bne	r2,zero,803268 <tick+0x2b30>
  803220:	d0a744c3 	ldbu	r2,-25325(gp)
  803224:	10803fcc 	andi	r2,r2,255
  803228:	1080201c 	xori	r2,r2,128
  80322c:	10bfe004 	addi	r2,r2,-128
  803230:	1004c03a 	cmpne	r2,r2,zero
  803234:	10000c1e 	bne	r2,zero,803268 <tick+0x2b30>
  803238:	d0a73083 	ldbu	r2,-25406(gp)
  80323c:	10803fcc 	andi	r2,r2,255
  803240:	1080201c 	xori	r2,r2,128
  803244:	10bfe004 	addi	r2,r2,-128
  803248:	1004c03a 	cmpne	r2,r2,zero
  80324c:	1000061e 	bne	r2,zero,803268 <tick+0x2b30>
  803250:	d0a75883 	ldbu	r2,-25246(gp)
  803254:	10803fcc 	andi	r2,r2,255
  803258:	1080201c 	xori	r2,r2,128
  80325c:	10bfe004 	addi	r2,r2,-128
  803260:	1005003a 	cmpeq	r2,r2,zero
  803264:	1000031e 	bne	r2,zero,803274 <tick+0x2b3c>
  803268:	00800044 	movi	r2,1
  80326c:	e0bfa215 	stw	r2,-376(fp)
  803270:	00000106 	br	803278 <tick+0x2b40>
  803274:	e03fa215 	stw	zero,-376(fp)
  803278:	e0ffa217 	ldw	r3,-376(fp)
  80327c:	1805883a 	mov	r2,r3
  803280:	d0a74945 	stb	r2,-25307(gp)
      g129_e1_fix_fix =(g97||g118||g7||g49||g67||g85||g106||g30||g9||g88||g109);
  803284:	d0a73343 	ldbu	r2,-25395(gp)
  803288:	10803fcc 	andi	r2,r2,255
  80328c:	1080201c 	xori	r2,r2,128
  803290:	10bfe004 	addi	r2,r2,-128
  803294:	1004c03a 	cmpne	r2,r2,zero
  803298:	10003c1e 	bne	r2,zero,80338c <tick+0x2c54>
  80329c:	d0a73743 	ldbu	r2,-25379(gp)
  8032a0:	10803fcc 	andi	r2,r2,255
  8032a4:	1080201c 	xori	r2,r2,128
  8032a8:	10bfe004 	addi	r2,r2,-128
  8032ac:	1004c03a 	cmpne	r2,r2,zero
  8032b0:	1000361e 	bne	r2,zero,80338c <tick+0x2c54>
  8032b4:	d0a742c3 	ldbu	r2,-25333(gp)
  8032b8:	10803fcc 	andi	r2,r2,255
  8032bc:	1080201c 	xori	r2,r2,128
  8032c0:	10bfe004 	addi	r2,r2,-128
  8032c4:	1004c03a 	cmpne	r2,r2,zero
  8032c8:	1000301e 	bne	r2,zero,80338c <tick+0x2c54>
  8032cc:	d0a74243 	ldbu	r2,-25335(gp)
  8032d0:	10803fcc 	andi	r2,r2,255
  8032d4:	1080201c 	xori	r2,r2,128
  8032d8:	10bfe004 	addi	r2,r2,-128
  8032dc:	1004c03a 	cmpne	r2,r2,zero
  8032e0:	10002a1e 	bne	r2,zero,80338c <tick+0x2c54>
  8032e4:	d0a76643 	ldbu	r2,-25191(gp)
  8032e8:	10803fcc 	andi	r2,r2,255
  8032ec:	1080201c 	xori	r2,r2,128
  8032f0:	10bfe004 	addi	r2,r2,-128
  8032f4:	1004c03a 	cmpne	r2,r2,zero
  8032f8:	1000241e 	bne	r2,zero,80338c <tick+0x2c54>
  8032fc:	d0a72a83 	ldbu	r2,-25430(gp)
  803300:	10803fcc 	andi	r2,r2,255
  803304:	1080201c 	xori	r2,r2,128
  803308:	10bfe004 	addi	r2,r2,-128
  80330c:	1004c03a 	cmpne	r2,r2,zero
  803310:	10001e1e 	bne	r2,zero,80338c <tick+0x2c54>
  803314:	d0a76903 	ldbu	r2,-25180(gp)
  803318:	10803fcc 	andi	r2,r2,255
  80331c:	1080201c 	xori	r2,r2,128
  803320:	10bfe004 	addi	r2,r2,-128
  803324:	1004c03a 	cmpne	r2,r2,zero
  803328:	1000181e 	bne	r2,zero,80338c <tick+0x2c54>
  80332c:	d0a75b03 	ldbu	r2,-25236(gp)
  803330:	10803fcc 	andi	r2,r2,255
  803334:	1080201c 	xori	r2,r2,128
  803338:	10bfe004 	addi	r2,r2,-128
  80333c:	1004c03a 	cmpne	r2,r2,zero
  803340:	1000121e 	bne	r2,zero,80338c <tick+0x2c54>
  803344:	d0a72ac3 	ldbu	r2,-25429(gp)
  803348:	10803fcc 	andi	r2,r2,255
  80334c:	1080201c 	xori	r2,r2,128
  803350:	10bfe004 	addi	r2,r2,-128
  803354:	1004c03a 	cmpne	r2,r2,zero
  803358:	10000c1e 	bne	r2,zero,80338c <tick+0x2c54>
  80335c:	d0a76183 	ldbu	r2,-25210(gp)
  803360:	10803fcc 	andi	r2,r2,255
  803364:	1080201c 	xori	r2,r2,128
  803368:	10bfe004 	addi	r2,r2,-128
  80336c:	1004c03a 	cmpne	r2,r2,zero
  803370:	1000061e 	bne	r2,zero,80338c <tick+0x2c54>
  803374:	d0a76783 	ldbu	r2,-25186(gp)
  803378:	10803fcc 	andi	r2,r2,255
  80337c:	1080201c 	xori	r2,r2,128
  803380:	10bfe004 	addi	r2,r2,-128
  803384:	1005003a 	cmpeq	r2,r2,zero
  803388:	1000031e 	bne	r2,zero,803398 <tick+0x2c60>
  80338c:	00800044 	movi	r2,1
  803390:	e0bfa115 	stw	r2,-380(fp)
  803394:	00000106 	br	80339c <tick+0x2c64>
  803398:	e03fa115 	stw	zero,-380(fp)
  80339c:	e0ffa117 	ldw	r3,-380(fp)
  8033a0:	1805883a 	mov	r2,r3
  8033a4:	d0a75045 	stb	r2,-25279(gp)
      g129_e1_fix =(g82||g95||g103||g116||g20||g41||g59||g77||g12||g129_e1_fix_fix);
  8033a8:	d0a73243 	ldbu	r2,-25399(gp)
  8033ac:	10803fcc 	andi	r2,r2,255
  8033b0:	1080201c 	xori	r2,r2,128
  8033b4:	10bfe004 	addi	r2,r2,-128
  8033b8:	1004c03a 	cmpne	r2,r2,zero
  8033bc:	1000361e 	bne	r2,zero,803498 <tick+0x2d60>
  8033c0:	d0a752c3 	ldbu	r2,-25269(gp)
  8033c4:	10803fcc 	andi	r2,r2,255
  8033c8:	1080201c 	xori	r2,r2,128
  8033cc:	10bfe004 	addi	r2,r2,-128
  8033d0:	1004c03a 	cmpne	r2,r2,zero
  8033d4:	1000301e 	bne	r2,zero,803498 <tick+0x2d60>
  8033d8:	d0a729c3 	ldbu	r2,-25433(gp)
  8033dc:	10803fcc 	andi	r2,r2,255
  8033e0:	1080201c 	xori	r2,r2,128
  8033e4:	10bfe004 	addi	r2,r2,-128
  8033e8:	1004c03a 	cmpne	r2,r2,zero
  8033ec:	10002a1e 	bne	r2,zero,803498 <tick+0x2d60>
  8033f0:	d0a75783 	ldbu	r2,-25250(gp)
  8033f4:	10803fcc 	andi	r2,r2,255
  8033f8:	1080201c 	xori	r2,r2,128
  8033fc:	10bfe004 	addi	r2,r2,-128
  803400:	1004c03a 	cmpne	r2,r2,zero
  803404:	1000241e 	bne	r2,zero,803498 <tick+0x2d60>
  803408:	d0a74ec3 	ldbu	r2,-25285(gp)
  80340c:	10803fcc 	andi	r2,r2,255
  803410:	1080201c 	xori	r2,r2,128
  803414:	10bfe004 	addi	r2,r2,-128
  803418:	1004c03a 	cmpne	r2,r2,zero
  80341c:	10001e1e 	bne	r2,zero,803498 <tick+0x2d60>
  803420:	d0a73683 	ldbu	r2,-25382(gp)
  803424:	10803fcc 	andi	r2,r2,255
  803428:	1080201c 	xori	r2,r2,128
  80342c:	10bfe004 	addi	r2,r2,-128
  803430:	1004c03a 	cmpne	r2,r2,zero
  803434:	1000181e 	bne	r2,zero,803498 <tick+0x2d60>
  803438:	d0a74483 	ldbu	r2,-25326(gp)
  80343c:	10803fcc 	andi	r2,r2,255
  803440:	1080201c 	xori	r2,r2,128
  803444:	10bfe004 	addi	r2,r2,-128
  803448:	1004c03a 	cmpne	r2,r2,zero
  80344c:	1000121e 	bne	r2,zero,803498 <tick+0x2d60>
  803450:	d0a76083 	ldbu	r2,-25214(gp)
  803454:	10803fcc 	andi	r2,r2,255
  803458:	1080201c 	xori	r2,r2,128
  80345c:	10bfe004 	addi	r2,r2,-128
  803460:	1004c03a 	cmpne	r2,r2,zero
  803464:	10000c1e 	bne	r2,zero,803498 <tick+0x2d60>
  803468:	d0a73303 	ldbu	r2,-25396(gp)
  80346c:	10803fcc 	andi	r2,r2,255
  803470:	1080201c 	xori	r2,r2,128
  803474:	10bfe004 	addi	r2,r2,-128
  803478:	1004c03a 	cmpne	r2,r2,zero
  80347c:	1000061e 	bne	r2,zero,803498 <tick+0x2d60>
  803480:	d0a75043 	ldbu	r2,-25279(gp)
  803484:	10803fcc 	andi	r2,r2,255
  803488:	1080201c 	xori	r2,r2,128
  80348c:	10bfe004 	addi	r2,r2,-128
  803490:	1005003a 	cmpeq	r2,r2,zero
  803494:	1000031e 	bne	r2,zero,8034a4 <tick+0x2d6c>
  803498:	00800044 	movi	r2,1
  80349c:	e0bfa015 	stw	r2,-384(fp)
  8034a0:	00000106 	br	8034a8 <tick+0x2d70>
  8034a4:	e03fa015 	stw	zero,-384(fp)
  8034a8:	e0ffa017 	ldw	r3,-384(fp)
  8034ac:	1805883a 	mov	r2,r3
  8034b0:	d0a74b45 	stb	r2,-25299(gp)
      g129_e1 =(!((g4||g18||g26||g39||g46||g57||g64||g75||g124||g129_e1_fix)));
  8034b4:	d0a72583 	ldbu	r2,-25450(gp)
  8034b8:	10803fcc 	andi	r2,r2,255
  8034bc:	1080201c 	xori	r2,r2,128
  8034c0:	10bfe004 	addi	r2,r2,-128
  8034c4:	1004c03a 	cmpne	r2,r2,zero
  8034c8:	1000391e 	bne	r2,zero,8035b0 <tick+0x2e78>
  8034cc:	d0a73903 	ldbu	r2,-25372(gp)
  8034d0:	10803fcc 	andi	r2,r2,255
  8034d4:	1080201c 	xori	r2,r2,128
  8034d8:	10bfe004 	addi	r2,r2,-128
  8034dc:	1004c03a 	cmpne	r2,r2,zero
  8034e0:	1000331e 	bne	r2,zero,8035b0 <tick+0x2e78>
  8034e4:	d0a76a03 	ldbu	r2,-25176(gp)
  8034e8:	10803fcc 	andi	r2,r2,255
  8034ec:	1080201c 	xori	r2,r2,128
  8034f0:	10bfe004 	addi	r2,r2,-128
  8034f4:	1004c03a 	cmpne	r2,r2,zero
  8034f8:	10002d1e 	bne	r2,zero,8035b0 <tick+0x2e78>
  8034fc:	d0a76483 	ldbu	r2,-25198(gp)
  803500:	10803fcc 	andi	r2,r2,255
  803504:	1080201c 	xori	r2,r2,128
  803508:	10bfe004 	addi	r2,r2,-128
  80350c:	1004c03a 	cmpne	r2,r2,zero
  803510:	1000271e 	bne	r2,zero,8035b0 <tick+0x2e78>
  803514:	d0a75203 	ldbu	r2,-25272(gp)
  803518:	10803fcc 	andi	r2,r2,255
  80351c:	1080201c 	xori	r2,r2,128
  803520:	10bfe004 	addi	r2,r2,-128
  803524:	1004c03a 	cmpne	r2,r2,zero
  803528:	1000211e 	bne	r2,zero,8035b0 <tick+0x2e78>
  80352c:	d0a75703 	ldbu	r2,-25252(gp)
  803530:	10803fcc 	andi	r2,r2,255
  803534:	1080201c 	xori	r2,r2,128
  803538:	10bfe004 	addi	r2,r2,-128
  80353c:	1004c03a 	cmpne	r2,r2,zero
  803540:	10001b1e 	bne	r2,zero,8035b0 <tick+0x2e78>
  803544:	d0a73f83 	ldbu	r2,-25346(gp)
  803548:	10803fcc 	andi	r2,r2,255
  80354c:	1080201c 	xori	r2,r2,128
  803550:	10bfe004 	addi	r2,r2,-128
  803554:	1004c03a 	cmpne	r2,r2,zero
  803558:	1000151e 	bne	r2,zero,8035b0 <tick+0x2e78>
  80355c:	d0a75ac3 	ldbu	r2,-25237(gp)
  803560:	10803fcc 	andi	r2,r2,255
  803564:	1080201c 	xori	r2,r2,128
  803568:	10bfe004 	addi	r2,r2,-128
  80356c:	1004c03a 	cmpne	r2,r2,zero
  803570:	10000f1e 	bne	r2,zero,8035b0 <tick+0x2e78>
  803574:	d0a759c3 	ldbu	r2,-25241(gp)
  803578:	10803fcc 	andi	r2,r2,255
  80357c:	1080201c 	xori	r2,r2,128
  803580:	10bfe004 	addi	r2,r2,-128
  803584:	1004c03a 	cmpne	r2,r2,zero
  803588:	1000091e 	bne	r2,zero,8035b0 <tick+0x2e78>
  80358c:	d0a74b43 	ldbu	r2,-25299(gp)
  803590:	10803fcc 	andi	r2,r2,255
  803594:	1080201c 	xori	r2,r2,128
  803598:	10bfe004 	addi	r2,r2,-128
  80359c:	1004c03a 	cmpne	r2,r2,zero
  8035a0:	1000031e 	bne	r2,zero,8035b0 <tick+0x2e78>
  8035a4:	00800044 	movi	r2,1
  8035a8:	e0bf9f15 	stw	r2,-388(fp)
  8035ac:	00000106 	br	8035b4 <tick+0x2e7c>
  8035b0:	e03f9f15 	stw	zero,-388(fp)
  8035b4:	e0ff9f17 	ldw	r3,-388(fp)
  8035b8:	1805883a 	mov	r2,r3
  8035bc:	d0a74085 	stb	r2,-25342(gp)
      g133_e2 =(!(g132));
  8035c0:	d0a739c3 	ldbu	r2,-25369(gp)
  8035c4:	10803fcc 	andi	r2,r2,255
  8035c8:	1080201c 	xori	r2,r2,128
  8035cc:	10bfe004 	addi	r2,r2,-128
  8035d0:	1005003a 	cmpeq	r2,r2,zero
  8035d4:	d0a74d45 	stb	r2,-25291(gp)
   }
   PRE_g3 = g3;
  8035d8:	d0a72903 	ldbu	r2,-25436(gp)
  8035dc:	d0a72d05 	stb	r2,-25420(gp)
   PRE_g6 = g6;
  8035e0:	d0a757c3 	ldbu	r2,-25249(gp)
  8035e4:	d0a74845 	stb	r2,-25311(gp)
   PRE_g8 = g8;
  8035e8:	d0a756c3 	ldbu	r2,-25253(gp)
  8035ec:	d0a737c5 	stb	r2,-25377(gp)
   PRE_g11 = g11;
  8035f0:	d0a75e83 	ldbu	r2,-25222(gp)
  8035f4:	d0a74dc5 	stb	r2,-25289(gp)
   PRE_g17 = g17;
  8035f8:	d0a734c3 	ldbu	r2,-25389(gp)
  8035fc:	d0a73845 	stb	r2,-25375(gp)
   PRE_g19 = g19;
  803600:	d0a72603 	ldbu	r2,-25448(gp)
  803604:	d0a74f45 	stb	r2,-25283(gp)
   PRE_g25 = g25;
  803608:	d0a75e03 	ldbu	r2,-25224(gp)
  80360c:	d0a743c5 	stb	r2,-25329(gp)
   PRE_g29 = g29;
  803610:	d0a76603 	ldbu	r2,-25192(gp)
  803614:	d0a72d85 	stb	r2,-25418(gp)
   PRE_g38 = g38;
  803618:	d0a73b83 	ldbu	r2,-25362(gp)
  80361c:	d0a72685 	stb	r2,-25446(gp)
   PRE_g40 = g40;
  803620:	d0a72443 	ldbu	r2,-25455(gp)
  803624:	d0a73785 	stb	r2,-25378(gp)
   PRE_g45 = g45;
  803628:	d0a761c3 	ldbu	r2,-25209(gp)
  80362c:	d0a76285 	stb	r2,-25206(gp)
   PRE_g48 = g48;
  803630:	d0a73a03 	ldbu	r2,-25368(gp)
  803634:	d0a75505 	stb	r2,-25260(gp)
   PRE_g56 = g56;
  803638:	d0a74743 	ldbu	r2,-25315(gp)
  80363c:	d0a72e05 	stb	r2,-25416(gp)
   PRE_g58 = g58;
  803640:	d0a75d03 	ldbu	r2,-25228(gp)
  803644:	d0a75b45 	stb	r2,-25235(gp)
   PRE_g63 = g63;
  803648:	d0a74e83 	ldbu	r2,-25286(gp)
  80364c:	d0a72945 	stb	r2,-25435(gp)
   PRE_g66 = g66;
  803650:	d0a74583 	ldbu	r2,-25322(gp)
  803654:	d0a75bc5 	stb	r2,-25233(gp)
   PRE_g74 = g74;
  803658:	d0a76b03 	ldbu	r2,-25172(gp)
  80365c:	d0a75445 	stb	r2,-25263(gp)
   PRE_g76 = g76;
  803660:	d0a73503 	ldbu	r2,-25388(gp)
  803664:	d0a75945 	stb	r2,-25243(gp)
   PRE_g81 = g81;
  803668:	d0a75903 	ldbu	r2,-25244(gp)
  80366c:	d0a73945 	stb	r2,-25371(gp)
   PRE_g84 = g84;
  803670:	d0a73643 	ldbu	r2,-25383(gp)
  803674:	d0a74645 	stb	r2,-25319(gp)
   PRE_g87 = g87;
  803678:	d0a72e43 	ldbu	r2,-25415(gp)
  80367c:	d0a73cc5 	stb	r2,-25357(gp)
   PRE_g94 = g94;
  803680:	d0a741c3 	ldbu	r2,-25337(gp)
  803684:	d0a73885 	stb	r2,-25374(gp)
   PRE_g96 = g96;
  803688:	d0a75343 	ldbu	r2,-25267(gp)
  80368c:	d0a74a85 	stb	r2,-25302(gp)
   PRE_g102 = g102;
  803690:	d0a72d43 	ldbu	r2,-25419(gp)
  803694:	d0a726c5 	stb	r2,-25445(gp)
   PRE_g105 = g105;
  803698:	d0a73bc3 	ldbu	r2,-25361(gp)
  80369c:	d0a765c5 	stb	r2,-25193(gp)
   PRE_g108 = g108;
  8036a0:	d0a725c3 	ldbu	r2,-25449(gp)
  8036a4:	d0a76585 	stb	r2,-25194(gp)
   PRE_g115 = g115;
  8036a8:	d0a72dc3 	ldbu	r2,-25417(gp)
  8036ac:	d0a75605 	stb	r2,-25256(gp)
   PRE_g117 = g117;
  8036b0:	d0a73dc3 	ldbu	r2,-25353(gp)
  8036b4:	d0a76985 	stb	r2,-25178(gp)
   PRE_g123 = g123;
  8036b8:	d0a72f43 	ldbu	r2,-25411(gp)
  8036bc:	d0a73e85 	stb	r2,-25350(gp)
   PRE_g131 = g131;
  8036c0:	d0a747c3 	ldbu	r2,-25313(gp)
  8036c4:	d0a75105 	stb	r2,-25276(gp)
   _PRE_GO = _GO;
  8036c8:	d0a74d83 	ldbu	r2,-25290(gp)
  8036cc:	10803fcc 	andi	r2,r2,255
  8036d0:	1080201c 	xori	r2,r2,128
  8036d4:	10bfe004 	addi	r2,r2,-128
  8036d8:	d0a72c15 	stw	r2,-25424(gp)
   return;
}
  8036dc:	e037883a 	mov	sp,fp
  8036e0:	df000017 	ldw	fp,0(sp)
  8036e4:	dec00104 	addi	sp,sp,4
  8036e8:	f800283a 	ret

008036ec <printf>:
  8036ec:	defffb04 	addi	sp,sp,-20
  8036f0:	dfc00115 	stw	ra,4(sp)
  8036f4:	d9400215 	stw	r5,8(sp)
  8036f8:	d9800315 	stw	r6,12(sp)
  8036fc:	d9c00415 	stw	r7,16(sp)
  803700:	00802074 	movhi	r2,129
  803704:	108d9704 	addi	r2,r2,13916
  803708:	10c00017 	ldw	r3,0(r2)
  80370c:	200b883a 	mov	r5,r4
  803710:	d8800204 	addi	r2,sp,8
  803714:	19000217 	ldw	r4,8(r3)
  803718:	100d883a 	mov	r6,r2
  80371c:	d8800015 	stw	r2,0(sp)
  803720:	08056680 	call	805668 <__vfprintf_internal>
  803724:	dfc00117 	ldw	ra,4(sp)
  803728:	dec00504 	addi	sp,sp,20
  80372c:	f800283a 	ret

00803730 <_printf_r>:
  803730:	defffc04 	addi	sp,sp,-16
  803734:	dfc00115 	stw	ra,4(sp)
  803738:	d9800215 	stw	r6,8(sp)
  80373c:	d9c00315 	stw	r7,12(sp)
  803740:	280d883a 	mov	r6,r5
  803744:	21400217 	ldw	r5,8(r4)
  803748:	d8c00204 	addi	r3,sp,8
  80374c:	180f883a 	mov	r7,r3
  803750:	d8c00015 	stw	r3,0(sp)
  803754:	08037bc0 	call	8037bc <___vfprintf_internal_r>
  803758:	dfc00117 	ldw	ra,4(sp)
  80375c:	dec00404 	addi	sp,sp,16
  803760:	f800283a 	ret

00803764 <__sprint_r>:
  803764:	30800217 	ldw	r2,8(r6)
  803768:	defffe04 	addi	sp,sp,-8
  80376c:	dc000015 	stw	r16,0(sp)
  803770:	dfc00115 	stw	ra,4(sp)
  803774:	3021883a 	mov	r16,r6
  803778:	0007883a 	mov	r3,zero
  80377c:	1000061e 	bne	r2,zero,803798 <__sprint_r+0x34>
  803780:	1805883a 	mov	r2,r3
  803784:	30000115 	stw	zero,4(r6)
  803788:	dfc00117 	ldw	ra,4(sp)
  80378c:	dc000017 	ldw	r16,0(sp)
  803790:	dec00204 	addi	sp,sp,8
  803794:	f800283a 	ret
  803798:	08078c40 	call	8078c4 <__sfvwrite_r>
  80379c:	1007883a 	mov	r3,r2
  8037a0:	1805883a 	mov	r2,r3
  8037a4:	80000115 	stw	zero,4(r16)
  8037a8:	80000215 	stw	zero,8(r16)
  8037ac:	dfc00117 	ldw	ra,4(sp)
  8037b0:	dc000017 	ldw	r16,0(sp)
  8037b4:	dec00204 	addi	sp,sp,8
  8037b8:	f800283a 	ret

008037bc <___vfprintf_internal_r>:
  8037bc:	defea304 	addi	sp,sp,-1396
  8037c0:	dd815915 	stw	r22,1380(sp)
  8037c4:	dc015315 	stw	r16,1356(sp)
  8037c8:	d9c15215 	stw	r7,1352(sp)
  8037cc:	dfc15c15 	stw	ra,1392(sp)
  8037d0:	df015b15 	stw	fp,1388(sp)
  8037d4:	ddc15a15 	stw	r23,1384(sp)
  8037d8:	dd415815 	stw	r21,1376(sp)
  8037dc:	dd015715 	stw	r20,1372(sp)
  8037e0:	dcc15615 	stw	r19,1368(sp)
  8037e4:	dc815515 	stw	r18,1364(sp)
  8037e8:	dc415415 	stw	r17,1360(sp)
  8037ec:	282d883a 	mov	r22,r5
  8037f0:	3021883a 	mov	r16,r6
  8037f4:	d9015015 	stw	r4,1344(sp)
  8037f8:	0807ee80 	call	807ee8 <_localeconv_r>
  8037fc:	10800017 	ldw	r2,0(r2)
  803800:	d9c15217 	ldw	r7,1352(sp)
  803804:	d8814a15 	stw	r2,1320(sp)
  803808:	d8815017 	ldw	r2,1344(sp)
  80380c:	10000226 	beq	r2,zero,803818 <___vfprintf_internal_r+0x5c>
  803810:	10800e17 	ldw	r2,56(r2)
  803814:	10020d26 	beq	r2,zero,80404c <___vfprintf_internal_r+0x890>
  803818:	b080030b 	ldhu	r2,12(r22)
  80381c:	1080020c 	andi	r2,r2,8
  803820:	10020e26 	beq	r2,zero,80405c <___vfprintf_internal_r+0x8a0>
  803824:	b0800417 	ldw	r2,16(r22)
  803828:	10020c26 	beq	r2,zero,80405c <___vfprintf_internal_r+0x8a0>
  80382c:	b200030b 	ldhu	r8,12(r22)
  803830:	00800284 	movi	r2,10
  803834:	40c0068c 	andi	r3,r8,26
  803838:	18802f1e 	bne	r3,r2,8038f8 <___vfprintf_internal_r+0x13c>
  80383c:	b080038f 	ldh	r2,14(r22)
  803840:	10002d16 	blt	r2,zero,8038f8 <___vfprintf_internal_r+0x13c>
  803844:	b240038b 	ldhu	r9,14(r22)
  803848:	b2800717 	ldw	r10,28(r22)
  80384c:	b2c00917 	ldw	r11,36(r22)
  803850:	d9015017 	ldw	r4,1344(sp)
  803854:	dc402a04 	addi	r17,sp,168
  803858:	d8804104 	addi	r2,sp,260
  80385c:	00c10004 	movi	r3,1024
  803860:	423fff4c 	andi	r8,r8,65533
  803864:	800d883a 	mov	r6,r16
  803868:	880b883a 	mov	r5,r17
  80386c:	da002d0d 	sth	r8,180(sp)
  803870:	da402d8d 	sth	r9,182(sp)
  803874:	da803115 	stw	r10,196(sp)
  803878:	dac03315 	stw	r11,204(sp)
  80387c:	d8802e15 	stw	r2,184(sp)
  803880:	d8c02f15 	stw	r3,188(sp)
  803884:	d8802a15 	stw	r2,168(sp)
  803888:	d8c02c15 	stw	r3,176(sp)
  80388c:	d8003015 	stw	zero,192(sp)
  803890:	08037bc0 	call	8037bc <___vfprintf_internal_r>
  803894:	d8814c15 	stw	r2,1328(sp)
  803898:	10000416 	blt	r2,zero,8038ac <___vfprintf_internal_r+0xf0>
  80389c:	d9015017 	ldw	r4,1344(sp)
  8038a0:	880b883a 	mov	r5,r17
  8038a4:	0806f940 	call	806f94 <_fflush_r>
  8038a8:	1002321e 	bne	r2,zero,804174 <___vfprintf_internal_r+0x9b8>
  8038ac:	d8802d0b 	ldhu	r2,180(sp)
  8038b0:	1080100c 	andi	r2,r2,64
  8038b4:	10000326 	beq	r2,zero,8038c4 <___vfprintf_internal_r+0x108>
  8038b8:	b080030b 	ldhu	r2,12(r22)
  8038bc:	10801014 	ori	r2,r2,64
  8038c0:	b080030d 	sth	r2,12(r22)
  8038c4:	d8814c17 	ldw	r2,1328(sp)
  8038c8:	dfc15c17 	ldw	ra,1392(sp)
  8038cc:	df015b17 	ldw	fp,1388(sp)
  8038d0:	ddc15a17 	ldw	r23,1384(sp)
  8038d4:	dd815917 	ldw	r22,1380(sp)
  8038d8:	dd415817 	ldw	r21,1376(sp)
  8038dc:	dd015717 	ldw	r20,1372(sp)
  8038e0:	dcc15617 	ldw	r19,1368(sp)
  8038e4:	dc815517 	ldw	r18,1364(sp)
  8038e8:	dc415417 	ldw	r17,1360(sp)
  8038ec:	dc015317 	ldw	r16,1356(sp)
  8038f0:	dec15d04 	addi	sp,sp,1396
  8038f4:	f800283a 	ret
  8038f8:	0005883a 	mov	r2,zero
  8038fc:	0007883a 	mov	r3,zero
  803900:	dd401a04 	addi	r21,sp,104
  803904:	d8814315 	stw	r2,1292(sp)
  803908:	802f883a 	mov	r23,r16
  80390c:	d8c14415 	stw	r3,1296(sp)
  803910:	d8014c15 	stw	zero,1328(sp)
  803914:	d8014915 	stw	zero,1316(sp)
  803918:	d8014515 	stw	zero,1300(sp)
  80391c:	d8014815 	stw	zero,1312(sp)
  803920:	dd400d15 	stw	r21,52(sp)
  803924:	d8000f15 	stw	zero,60(sp)
  803928:	d8000e15 	stw	zero,56(sp)
  80392c:	b8800007 	ldb	r2,0(r23)
  803930:	10001926 	beq	r2,zero,803998 <___vfprintf_internal_r+0x1dc>
  803934:	00c00944 	movi	r3,37
  803938:	10c01726 	beq	r2,r3,803998 <___vfprintf_internal_r+0x1dc>
  80393c:	b821883a 	mov	r16,r23
  803940:	00000106 	br	803948 <___vfprintf_internal_r+0x18c>
  803944:	10c00326 	beq	r2,r3,803954 <___vfprintf_internal_r+0x198>
  803948:	84000044 	addi	r16,r16,1
  80394c:	80800007 	ldb	r2,0(r16)
  803950:	103ffc1e 	bne	r2,zero,803944 <___vfprintf_internal_r+0x188>
  803954:	85e7c83a 	sub	r19,r16,r23
  803958:	98000e26 	beq	r19,zero,803994 <___vfprintf_internal_r+0x1d8>
  80395c:	dc800f17 	ldw	r18,60(sp)
  803960:	dc400e17 	ldw	r17,56(sp)
  803964:	008001c4 	movi	r2,7
  803968:	94e5883a 	add	r18,r18,r19
  80396c:	8c400044 	addi	r17,r17,1
  803970:	adc00015 	stw	r23,0(r21)
  803974:	dc800f15 	stw	r18,60(sp)
  803978:	acc00115 	stw	r19,4(r21)
  80397c:	dc400e15 	stw	r17,56(sp)
  803980:	14428b16 	blt	r2,r17,8043b0 <___vfprintf_internal_r+0xbf4>
  803984:	ad400204 	addi	r21,r21,8
  803988:	d9014c17 	ldw	r4,1328(sp)
  80398c:	24c9883a 	add	r4,r4,r19
  803990:	d9014c15 	stw	r4,1328(sp)
  803994:	802f883a 	mov	r23,r16
  803998:	b8800007 	ldb	r2,0(r23)
  80399c:	10013c26 	beq	r2,zero,803e90 <___vfprintf_internal_r+0x6d4>
  8039a0:	bdc00044 	addi	r23,r23,1
  8039a4:	d8000405 	stb	zero,16(sp)
  8039a8:	b8c00007 	ldb	r3,0(r23)
  8039ac:	04ffffc4 	movi	r19,-1
  8039b0:	d8014d15 	stw	zero,1332(sp)
  8039b4:	d8014b15 	stw	zero,1324(sp)
  8039b8:	d8c14e15 	stw	r3,1336(sp)
  8039bc:	bdc00044 	addi	r23,r23,1
  8039c0:	d9414e17 	ldw	r5,1336(sp)
  8039c4:	00801604 	movi	r2,88
  8039c8:	28fff804 	addi	r3,r5,-32
  8039cc:	10c06036 	bltu	r2,r3,803b50 <___vfprintf_internal_r+0x394>
  8039d0:	18c5883a 	add	r2,r3,r3
  8039d4:	1085883a 	add	r2,r2,r2
  8039d8:	00c02034 	movhi	r3,128
  8039dc:	18ce7b04 	addi	r3,r3,14828
  8039e0:	10c5883a 	add	r2,r2,r3
  8039e4:	11000017 	ldw	r4,0(r2)
  8039e8:	2000683a 	jmp	r4
  8039ec:	00804960 	cmpeqi	r2,zero,293
  8039f0:	00803b50 	cmplti	r2,zero,237
  8039f4:	00803b50 	cmplti	r2,zero,237
  8039f8:	0080494c 	andi	r2,zero,293
  8039fc:	00803b50 	cmplti	r2,zero,237
  803a00:	00803b50 	cmplti	r2,zero,237
  803a04:	00803b50 	cmplti	r2,zero,237
  803a08:	00803b50 	cmplti	r2,zero,237
  803a0c:	00803b50 	cmplti	r2,zero,237
  803a10:	00803b50 	cmplti	r2,zero,237
  803a14:	0080472c 	andhi	r2,zero,284
  803a18:	0080493c 	xorhi	r2,zero,292
  803a1c:	00803b50 	cmplti	r2,zero,237
  803a20:	00804744 	movi	r2,285
  803a24:	008049d8 	cmpnei	r2,zero,295
  803a28:	00803b50 	cmplti	r2,zero,237
  803a2c:	008049c4 	movi	r2,295
  803a30:	0080498c 	andi	r2,zero,294
  803a34:	0080498c 	andi	r2,zero,294
  803a38:	0080498c 	andi	r2,zero,294
  803a3c:	0080498c 	andi	r2,zero,294
  803a40:	0080498c 	andi	r2,zero,294
  803a44:	0080498c 	andi	r2,zero,294
  803a48:	0080498c 	andi	r2,zero,294
  803a4c:	0080498c 	andi	r2,zero,294
  803a50:	0080498c 	andi	r2,zero,294
  803a54:	00803b50 	cmplti	r2,zero,237
  803a58:	00803b50 	cmplti	r2,zero,237
  803a5c:	00803b50 	cmplti	r2,zero,237
  803a60:	00803b50 	cmplti	r2,zero,237
  803a64:	00803b50 	cmplti	r2,zero,237
  803a68:	00803b50 	cmplti	r2,zero,237
  803a6c:	00803b50 	cmplti	r2,zero,237
  803a70:	00803b50 	cmplti	r2,zero,237
  803a74:	00803b50 	cmplti	r2,zero,237
  803a78:	00803b50 	cmplti	r2,zero,237
  803a7c:	008041a8 	cmpgeui	r2,zero,262
  803a80:	00804814 	movui	r2,288
  803a84:	00803b50 	cmplti	r2,zero,237
  803a88:	00804814 	movui	r2,288
  803a8c:	00803b50 	cmplti	r2,zero,237
  803a90:	00803b50 	cmplti	r2,zero,237
  803a94:	00803b50 	cmplti	r2,zero,237
  803a98:	00803b50 	cmplti	r2,zero,237
  803a9c:	00804978 	rdprs	r2,zero,293
  803aa0:	00803b50 	cmplti	r2,zero,237
  803aa4:	00803b50 	cmplti	r2,zero,237
  803aa8:	0080425c 	xori	r2,zero,265
  803aac:	00803b50 	cmplti	r2,zero,237
  803ab0:	00803b50 	cmplti	r2,zero,237
  803ab4:	00803b50 	cmplti	r2,zero,237
  803ab8:	00803b50 	cmplti	r2,zero,237
  803abc:	00803b50 	cmplti	r2,zero,237
  803ac0:	008042a8 	cmpgeui	r2,zero,266
  803ac4:	00803b50 	cmplti	r2,zero,237
  803ac8:	00803b50 	cmplti	r2,zero,237
  803acc:	008048c8 	cmpgei	r2,zero,291
  803ad0:	00803b50 	cmplti	r2,zero,237
  803ad4:	00803b50 	cmplti	r2,zero,237
  803ad8:	00803b50 	cmplti	r2,zero,237
  803adc:	00803b50 	cmplti	r2,zero,237
  803ae0:	00803b50 	cmplti	r2,zero,237
  803ae4:	00803b50 	cmplti	r2,zero,237
  803ae8:	00803b50 	cmplti	r2,zero,237
  803aec:	00803b50 	cmplti	r2,zero,237
  803af0:	00803b50 	cmplti	r2,zero,237
  803af4:	00803b50 	cmplti	r2,zero,237
  803af8:	0080489c 	xori	r2,zero,290
  803afc:	008041b4 	movhi	r2,262
  803b00:	00804814 	movui	r2,288
  803b04:	00804814 	movui	r2,288
  803b08:	00804814 	movui	r2,288
  803b0c:	00804800 	call	80480 <__reset-0x77fb80>
  803b10:	008041b4 	movhi	r2,262
  803b14:	00803b50 	cmplti	r2,zero,237
  803b18:	00803b50 	cmplti	r2,zero,237
  803b1c:	00804788 	cmpgei	r2,zero,286
  803b20:	00803b50 	cmplti	r2,zero,237
  803b24:	00804758 	cmpnei	r2,zero,285
  803b28:	00804268 	cmpgeui	r2,zero,265
  803b2c:	008047b8 	rdprs	r2,zero,286
  803b30:	008047a4 	muli	r2,zero,286
  803b34:	00803b50 	cmplti	r2,zero,237
  803b38:	00804a34 	movhi	r2,296
  803b3c:	00803b50 	cmplti	r2,zero,237
  803b40:	008042b4 	movhi	r2,266
  803b44:	00803b50 	cmplti	r2,zero,237
  803b48:	00803b50 	cmplti	r2,zero,237
  803b4c:	0080492c 	andhi	r2,zero,292
  803b50:	d9014e17 	ldw	r4,1336(sp)
  803b54:	2000ce26 	beq	r4,zero,803e90 <___vfprintf_internal_r+0x6d4>
  803b58:	01400044 	movi	r5,1
  803b5c:	d9801004 	addi	r6,sp,64
  803b60:	d9c14115 	stw	r7,1284(sp)
  803b64:	d9414615 	stw	r5,1304(sp)
  803b68:	d9814215 	stw	r6,1288(sp)
  803b6c:	280f883a 	mov	r7,r5
  803b70:	d9001005 	stb	r4,64(sp)
  803b74:	d8000405 	stb	zero,16(sp)
  803b78:	d8014715 	stw	zero,1308(sp)
  803b7c:	d8c14d17 	ldw	r3,1332(sp)
  803b80:	1880008c 	andi	r2,r3,2
  803b84:	1005003a 	cmpeq	r2,r2,zero
  803b88:	d8815115 	stw	r2,1348(sp)
  803b8c:	1000031e 	bne	r2,zero,803b9c <___vfprintf_internal_r+0x3e0>
  803b90:	d9014617 	ldw	r4,1304(sp)
  803b94:	21000084 	addi	r4,r4,2
  803b98:	d9014615 	stw	r4,1304(sp)
  803b9c:	d9414d17 	ldw	r5,1332(sp)
  803ba0:	2940210c 	andi	r5,r5,132
  803ba4:	d9414f15 	stw	r5,1340(sp)
  803ba8:	28002d1e 	bne	r5,zero,803c60 <___vfprintf_internal_r+0x4a4>
  803bac:	d9814b17 	ldw	r6,1324(sp)
  803bb0:	d8814617 	ldw	r2,1304(sp)
  803bb4:	30a1c83a 	sub	r16,r6,r2
  803bb8:	0400290e 	bge	zero,r16,803c60 <___vfprintf_internal_r+0x4a4>
  803bbc:	00800404 	movi	r2,16
  803bc0:	1404580e 	bge	r2,r16,804d24 <___vfprintf_internal_r+0x1568>
  803bc4:	dc800f17 	ldw	r18,60(sp)
  803bc8:	dc400e17 	ldw	r17,56(sp)
  803bcc:	1027883a 	mov	r19,r2
  803bd0:	07002074 	movhi	fp,129
  803bd4:	e7053e04 	addi	fp,fp,5368
  803bd8:	050001c4 	movi	r20,7
  803bdc:	00000306 	br	803bec <___vfprintf_internal_r+0x430>
  803be0:	843ffc04 	addi	r16,r16,-16
  803be4:	ad400204 	addi	r21,r21,8
  803be8:	9c00130e 	bge	r19,r16,803c38 <___vfprintf_internal_r+0x47c>
  803bec:	94800404 	addi	r18,r18,16
  803bf0:	8c400044 	addi	r17,r17,1
  803bf4:	af000015 	stw	fp,0(r21)
  803bf8:	acc00115 	stw	r19,4(r21)
  803bfc:	dc800f15 	stw	r18,60(sp)
  803c00:	dc400e15 	stw	r17,56(sp)
  803c04:	a47ff60e 	bge	r20,r17,803be0 <___vfprintf_internal_r+0x424>
  803c08:	d9015017 	ldw	r4,1344(sp)
  803c0c:	b00b883a 	mov	r5,r22
  803c10:	d9800d04 	addi	r6,sp,52
  803c14:	d9c15215 	stw	r7,1352(sp)
  803c18:	08037640 	call	803764 <__sprint_r>
  803c1c:	d9c15217 	ldw	r7,1352(sp)
  803c20:	10009e1e 	bne	r2,zero,803e9c <___vfprintf_internal_r+0x6e0>
  803c24:	843ffc04 	addi	r16,r16,-16
  803c28:	dc800f17 	ldw	r18,60(sp)
  803c2c:	dc400e17 	ldw	r17,56(sp)
  803c30:	dd401a04 	addi	r21,sp,104
  803c34:	9c3fed16 	blt	r19,r16,803bec <___vfprintf_internal_r+0x430>
  803c38:	9425883a 	add	r18,r18,r16
  803c3c:	8c400044 	addi	r17,r17,1
  803c40:	008001c4 	movi	r2,7
  803c44:	af000015 	stw	fp,0(r21)
  803c48:	ac000115 	stw	r16,4(r21)
  803c4c:	dc800f15 	stw	r18,60(sp)
  803c50:	dc400e15 	stw	r17,56(sp)
  803c54:	1441f516 	blt	r2,r17,80442c <___vfprintf_internal_r+0xc70>
  803c58:	ad400204 	addi	r21,r21,8
  803c5c:	00000206 	br	803c68 <___vfprintf_internal_r+0x4ac>
  803c60:	dc800f17 	ldw	r18,60(sp)
  803c64:	dc400e17 	ldw	r17,56(sp)
  803c68:	d8800407 	ldb	r2,16(sp)
  803c6c:	10000b26 	beq	r2,zero,803c9c <___vfprintf_internal_r+0x4e0>
  803c70:	00800044 	movi	r2,1
  803c74:	94800044 	addi	r18,r18,1
  803c78:	8c400044 	addi	r17,r17,1
  803c7c:	a8800115 	stw	r2,4(r21)
  803c80:	d8c00404 	addi	r3,sp,16
  803c84:	008001c4 	movi	r2,7
  803c88:	a8c00015 	stw	r3,0(r21)
  803c8c:	dc800f15 	stw	r18,60(sp)
  803c90:	dc400e15 	stw	r17,56(sp)
  803c94:	1441da16 	blt	r2,r17,804400 <___vfprintf_internal_r+0xc44>
  803c98:	ad400204 	addi	r21,r21,8
  803c9c:	d9015117 	ldw	r4,1348(sp)
  803ca0:	20000b1e 	bne	r4,zero,803cd0 <___vfprintf_internal_r+0x514>
  803ca4:	d8800504 	addi	r2,sp,20
  803ca8:	94800084 	addi	r18,r18,2
  803cac:	8c400044 	addi	r17,r17,1
  803cb0:	a8800015 	stw	r2,0(r21)
  803cb4:	00c00084 	movi	r3,2
  803cb8:	008001c4 	movi	r2,7
  803cbc:	a8c00115 	stw	r3,4(r21)
  803cc0:	dc800f15 	stw	r18,60(sp)
  803cc4:	dc400e15 	stw	r17,56(sp)
  803cc8:	1441c216 	blt	r2,r17,8043d4 <___vfprintf_internal_r+0xc18>
  803ccc:	ad400204 	addi	r21,r21,8
  803cd0:	d9414f17 	ldw	r5,1340(sp)
  803cd4:	00802004 	movi	r2,128
  803cd8:	2880b126 	beq	r5,r2,803fa0 <___vfprintf_internal_r+0x7e4>
  803cdc:	d8c14717 	ldw	r3,1308(sp)
  803ce0:	19e1c83a 	sub	r16,r3,r7
  803ce4:	0400260e 	bge	zero,r16,803d80 <___vfprintf_internal_r+0x5c4>
  803ce8:	00800404 	movi	r2,16
  803cec:	1403c90e 	bge	r2,r16,804c14 <___vfprintf_internal_r+0x1458>
  803cf0:	1027883a 	mov	r19,r2
  803cf4:	07002074 	movhi	fp,129
  803cf8:	e7053a04 	addi	fp,fp,5352
  803cfc:	050001c4 	movi	r20,7
  803d00:	00000306 	br	803d10 <___vfprintf_internal_r+0x554>
  803d04:	843ffc04 	addi	r16,r16,-16
  803d08:	ad400204 	addi	r21,r21,8
  803d0c:	9c00130e 	bge	r19,r16,803d5c <___vfprintf_internal_r+0x5a0>
  803d10:	94800404 	addi	r18,r18,16
  803d14:	8c400044 	addi	r17,r17,1
  803d18:	af000015 	stw	fp,0(r21)
  803d1c:	acc00115 	stw	r19,4(r21)
  803d20:	dc800f15 	stw	r18,60(sp)
  803d24:	dc400e15 	stw	r17,56(sp)
  803d28:	a47ff60e 	bge	r20,r17,803d04 <___vfprintf_internal_r+0x548>
  803d2c:	d9015017 	ldw	r4,1344(sp)
  803d30:	b00b883a 	mov	r5,r22
  803d34:	d9800d04 	addi	r6,sp,52
  803d38:	d9c15215 	stw	r7,1352(sp)
  803d3c:	08037640 	call	803764 <__sprint_r>
  803d40:	d9c15217 	ldw	r7,1352(sp)
  803d44:	1000551e 	bne	r2,zero,803e9c <___vfprintf_internal_r+0x6e0>
  803d48:	843ffc04 	addi	r16,r16,-16
  803d4c:	dc800f17 	ldw	r18,60(sp)
  803d50:	dc400e17 	ldw	r17,56(sp)
  803d54:	dd401a04 	addi	r21,sp,104
  803d58:	9c3fed16 	blt	r19,r16,803d10 <___vfprintf_internal_r+0x554>
  803d5c:	9425883a 	add	r18,r18,r16
  803d60:	8c400044 	addi	r17,r17,1
  803d64:	008001c4 	movi	r2,7
  803d68:	af000015 	stw	fp,0(r21)
  803d6c:	ac000115 	stw	r16,4(r21)
  803d70:	dc800f15 	stw	r18,60(sp)
  803d74:	dc400e15 	stw	r17,56(sp)
  803d78:	14418216 	blt	r2,r17,804384 <___vfprintf_internal_r+0xbc8>
  803d7c:	ad400204 	addi	r21,r21,8
  803d80:	d9014d17 	ldw	r4,1332(sp)
  803d84:	2080400c 	andi	r2,r4,256
  803d88:	10004a1e 	bne	r2,zero,803eb4 <___vfprintf_internal_r+0x6f8>
  803d8c:	d9414217 	ldw	r5,1288(sp)
  803d90:	91e5883a 	add	r18,r18,r7
  803d94:	8c400044 	addi	r17,r17,1
  803d98:	008001c4 	movi	r2,7
  803d9c:	a9400015 	stw	r5,0(r21)
  803da0:	a9c00115 	stw	r7,4(r21)
  803da4:	dc800f15 	stw	r18,60(sp)
  803da8:	dc400e15 	stw	r17,56(sp)
  803dac:	14416716 	blt	r2,r17,80434c <___vfprintf_internal_r+0xb90>
  803db0:	a8c00204 	addi	r3,r21,8
  803db4:	d9814d17 	ldw	r6,1332(sp)
  803db8:	3080010c 	andi	r2,r6,4
  803dbc:	10002826 	beq	r2,zero,803e60 <___vfprintf_internal_r+0x6a4>
  803dc0:	d8814b17 	ldw	r2,1324(sp)
  803dc4:	d9014617 	ldw	r4,1304(sp)
  803dc8:	1121c83a 	sub	r16,r2,r4
  803dcc:	0400240e 	bge	zero,r16,803e60 <___vfprintf_internal_r+0x6a4>
  803dd0:	00800404 	movi	r2,16
  803dd4:	14044f0e 	bge	r2,r16,804f14 <___vfprintf_internal_r+0x1758>
  803dd8:	dc400e17 	ldw	r17,56(sp)
  803ddc:	1027883a 	mov	r19,r2
  803de0:	07002074 	movhi	fp,129
  803de4:	e7053e04 	addi	fp,fp,5368
  803de8:	050001c4 	movi	r20,7
  803dec:	00000306 	br	803dfc <___vfprintf_internal_r+0x640>
  803df0:	843ffc04 	addi	r16,r16,-16
  803df4:	18c00204 	addi	r3,r3,8
  803df8:	9c00110e 	bge	r19,r16,803e40 <___vfprintf_internal_r+0x684>
  803dfc:	94800404 	addi	r18,r18,16
  803e00:	8c400044 	addi	r17,r17,1
  803e04:	1f000015 	stw	fp,0(r3)
  803e08:	1cc00115 	stw	r19,4(r3)
  803e0c:	dc800f15 	stw	r18,60(sp)
  803e10:	dc400e15 	stw	r17,56(sp)
  803e14:	a47ff60e 	bge	r20,r17,803df0 <___vfprintf_internal_r+0x634>
  803e18:	d9015017 	ldw	r4,1344(sp)
  803e1c:	b00b883a 	mov	r5,r22
  803e20:	d9800d04 	addi	r6,sp,52
  803e24:	08037640 	call	803764 <__sprint_r>
  803e28:	10001c1e 	bne	r2,zero,803e9c <___vfprintf_internal_r+0x6e0>
  803e2c:	843ffc04 	addi	r16,r16,-16
  803e30:	dc800f17 	ldw	r18,60(sp)
  803e34:	dc400e17 	ldw	r17,56(sp)
  803e38:	d8c01a04 	addi	r3,sp,104
  803e3c:	9c3fef16 	blt	r19,r16,803dfc <___vfprintf_internal_r+0x640>
  803e40:	9425883a 	add	r18,r18,r16
  803e44:	8c400044 	addi	r17,r17,1
  803e48:	008001c4 	movi	r2,7
  803e4c:	1f000015 	stw	fp,0(r3)
  803e50:	1c000115 	stw	r16,4(r3)
  803e54:	dc800f15 	stw	r18,60(sp)
  803e58:	dc400e15 	stw	r17,56(sp)
  803e5c:	1440cb16 	blt	r2,r17,80418c <___vfprintf_internal_r+0x9d0>
  803e60:	d8814b17 	ldw	r2,1324(sp)
  803e64:	d9414617 	ldw	r5,1304(sp)
  803e68:	1140010e 	bge	r2,r5,803e70 <___vfprintf_internal_r+0x6b4>
  803e6c:	2805883a 	mov	r2,r5
  803e70:	d9814c17 	ldw	r6,1328(sp)
  803e74:	308d883a 	add	r6,r6,r2
  803e78:	d9814c15 	stw	r6,1328(sp)
  803e7c:	90013b1e 	bne	r18,zero,80436c <___vfprintf_internal_r+0xbb0>
  803e80:	d9c14117 	ldw	r7,1284(sp)
  803e84:	dd401a04 	addi	r21,sp,104
  803e88:	d8000e15 	stw	zero,56(sp)
  803e8c:	003ea706 	br	80392c <___vfprintf_internal_r+0x170>
  803e90:	d8800f17 	ldw	r2,60(sp)
  803e94:	10053f1e 	bne	r2,zero,805394 <___vfprintf_internal_r+0x1bd8>
  803e98:	d8000e15 	stw	zero,56(sp)
  803e9c:	b080030b 	ldhu	r2,12(r22)
  803ea0:	1080100c 	andi	r2,r2,64
  803ea4:	103e8726 	beq	r2,zero,8038c4 <___vfprintf_internal_r+0x108>
  803ea8:	00bfffc4 	movi	r2,-1
  803eac:	d8814c15 	stw	r2,1328(sp)
  803eb0:	003e8406 	br	8038c4 <___vfprintf_internal_r+0x108>
  803eb4:	d9814e17 	ldw	r6,1336(sp)
  803eb8:	00801944 	movi	r2,101
  803ebc:	11806e16 	blt	r2,r6,804078 <___vfprintf_internal_r+0x8bc>
  803ec0:	d9414817 	ldw	r5,1312(sp)
  803ec4:	00c00044 	movi	r3,1
  803ec8:	1943430e 	bge	r3,r5,804bd8 <___vfprintf_internal_r+0x141c>
  803ecc:	d8814217 	ldw	r2,1288(sp)
  803ed0:	94800044 	addi	r18,r18,1
  803ed4:	8c400044 	addi	r17,r17,1
  803ed8:	a8800015 	stw	r2,0(r21)
  803edc:	008001c4 	movi	r2,7
  803ee0:	a8c00115 	stw	r3,4(r21)
  803ee4:	dc800f15 	stw	r18,60(sp)
  803ee8:	dc400e15 	stw	r17,56(sp)
  803eec:	1441ca16 	blt	r2,r17,804618 <___vfprintf_internal_r+0xe5c>
  803ef0:	a8c00204 	addi	r3,r21,8
  803ef4:	d9014a17 	ldw	r4,1320(sp)
  803ef8:	00800044 	movi	r2,1
  803efc:	94800044 	addi	r18,r18,1
  803f00:	8c400044 	addi	r17,r17,1
  803f04:	18800115 	stw	r2,4(r3)
  803f08:	008001c4 	movi	r2,7
  803f0c:	19000015 	stw	r4,0(r3)
  803f10:	dc800f15 	stw	r18,60(sp)
  803f14:	dc400e15 	stw	r17,56(sp)
  803f18:	1441b616 	blt	r2,r17,8045f4 <___vfprintf_internal_r+0xe38>
  803f1c:	1cc00204 	addi	r19,r3,8
  803f20:	d9014317 	ldw	r4,1292(sp)
  803f24:	d9414417 	ldw	r5,1296(sp)
  803f28:	000d883a 	mov	r6,zero
  803f2c:	000f883a 	mov	r7,zero
  803f30:	080c0800 	call	80c080 <__nedf2>
  803f34:	10017426 	beq	r2,zero,804508 <___vfprintf_internal_r+0xd4c>
  803f38:	d9414817 	ldw	r5,1312(sp)
  803f3c:	d9814217 	ldw	r6,1288(sp)
  803f40:	8c400044 	addi	r17,r17,1
  803f44:	2c85883a 	add	r2,r5,r18
  803f48:	14bfffc4 	addi	r18,r2,-1
  803f4c:	28bfffc4 	addi	r2,r5,-1
  803f50:	30c00044 	addi	r3,r6,1
  803f54:	98800115 	stw	r2,4(r19)
  803f58:	008001c4 	movi	r2,7
  803f5c:	98c00015 	stw	r3,0(r19)
  803f60:	dc800f15 	stw	r18,60(sp)
  803f64:	dc400e15 	stw	r17,56(sp)
  803f68:	14418e16 	blt	r2,r17,8045a4 <___vfprintf_internal_r+0xde8>
  803f6c:	9cc00204 	addi	r19,r19,8
  803f70:	d9414917 	ldw	r5,1316(sp)
  803f74:	d8800904 	addi	r2,sp,36
  803f78:	8c400044 	addi	r17,r17,1
  803f7c:	9165883a 	add	r18,r18,r5
  803f80:	98800015 	stw	r2,0(r19)
  803f84:	008001c4 	movi	r2,7
  803f88:	99400115 	stw	r5,4(r19)
  803f8c:	dc800f15 	stw	r18,60(sp)
  803f90:	dc400e15 	stw	r17,56(sp)
  803f94:	1440ed16 	blt	r2,r17,80434c <___vfprintf_internal_r+0xb90>
  803f98:	98c00204 	addi	r3,r19,8
  803f9c:	003f8506 	br	803db4 <___vfprintf_internal_r+0x5f8>
  803fa0:	d9814b17 	ldw	r6,1324(sp)
  803fa4:	d8814617 	ldw	r2,1304(sp)
  803fa8:	30a1c83a 	sub	r16,r6,r2
  803fac:	043f4b0e 	bge	zero,r16,803cdc <___vfprintf_internal_r+0x520>
  803fb0:	00800404 	movi	r2,16
  803fb4:	1404340e 	bge	r2,r16,805088 <___vfprintf_internal_r+0x18cc>
  803fb8:	1027883a 	mov	r19,r2
  803fbc:	07002074 	movhi	fp,129
  803fc0:	e7053a04 	addi	fp,fp,5352
  803fc4:	050001c4 	movi	r20,7
  803fc8:	00000306 	br	803fd8 <___vfprintf_internal_r+0x81c>
  803fcc:	843ffc04 	addi	r16,r16,-16
  803fd0:	ad400204 	addi	r21,r21,8
  803fd4:	9c00130e 	bge	r19,r16,804024 <___vfprintf_internal_r+0x868>
  803fd8:	94800404 	addi	r18,r18,16
  803fdc:	8c400044 	addi	r17,r17,1
  803fe0:	af000015 	stw	fp,0(r21)
  803fe4:	acc00115 	stw	r19,4(r21)
  803fe8:	dc800f15 	stw	r18,60(sp)
  803fec:	dc400e15 	stw	r17,56(sp)
  803ff0:	a47ff60e 	bge	r20,r17,803fcc <___vfprintf_internal_r+0x810>
  803ff4:	d9015017 	ldw	r4,1344(sp)
  803ff8:	b00b883a 	mov	r5,r22
  803ffc:	d9800d04 	addi	r6,sp,52
  804000:	d9c15215 	stw	r7,1352(sp)
  804004:	08037640 	call	803764 <__sprint_r>
  804008:	d9c15217 	ldw	r7,1352(sp)
  80400c:	103fa31e 	bne	r2,zero,803e9c <___vfprintf_internal_r+0x6e0>
  804010:	843ffc04 	addi	r16,r16,-16
  804014:	dc800f17 	ldw	r18,60(sp)
  804018:	dc400e17 	ldw	r17,56(sp)
  80401c:	dd401a04 	addi	r21,sp,104
  804020:	9c3fed16 	blt	r19,r16,803fd8 <___vfprintf_internal_r+0x81c>
  804024:	9425883a 	add	r18,r18,r16
  804028:	8c400044 	addi	r17,r17,1
  80402c:	008001c4 	movi	r2,7
  804030:	af000015 	stw	fp,0(r21)
  804034:	ac000115 	stw	r16,4(r21)
  804038:	dc800f15 	stw	r18,60(sp)
  80403c:	dc400e15 	stw	r17,56(sp)
  804040:	14416116 	blt	r2,r17,8045c8 <___vfprintf_internal_r+0xe0c>
  804044:	ad400204 	addi	r21,r21,8
  804048:	003f2406 	br	803cdc <___vfprintf_internal_r+0x520>
  80404c:	d9015017 	ldw	r4,1344(sp)
  804050:	080722c0 	call	80722c <__sinit>
  804054:	d9c15217 	ldw	r7,1352(sp)
  804058:	003def06 	br	803818 <___vfprintf_internal_r+0x5c>
  80405c:	d9015017 	ldw	r4,1344(sp)
  804060:	b00b883a 	mov	r5,r22
  804064:	d9c15215 	stw	r7,1352(sp)
  804068:	080568c0 	call	80568c <__swsetup_r>
  80406c:	d9c15217 	ldw	r7,1352(sp)
  804070:	103dee26 	beq	r2,zero,80382c <___vfprintf_internal_r+0x70>
  804074:	003f8c06 	br	803ea8 <___vfprintf_internal_r+0x6ec>
  804078:	d9014317 	ldw	r4,1292(sp)
  80407c:	d9414417 	ldw	r5,1296(sp)
  804080:	000d883a 	mov	r6,zero
  804084:	000f883a 	mov	r7,zero
  804088:	080bff80 	call	80bff8 <__eqdf2>
  80408c:	1000f21e 	bne	r2,zero,804458 <___vfprintf_internal_r+0xc9c>
  804090:	00802074 	movhi	r2,129
  804094:	10853904 	addi	r2,r2,5348
  804098:	94800044 	addi	r18,r18,1
  80409c:	8c400044 	addi	r17,r17,1
  8040a0:	a8800015 	stw	r2,0(r21)
  8040a4:	00c00044 	movi	r3,1
  8040a8:	008001c4 	movi	r2,7
  8040ac:	a8c00115 	stw	r3,4(r21)
  8040b0:	dc800f15 	stw	r18,60(sp)
  8040b4:	dc400e15 	stw	r17,56(sp)
  8040b8:	1442fa16 	blt	r2,r17,804ca4 <___vfprintf_internal_r+0x14e8>
  8040bc:	a8c00204 	addi	r3,r21,8
  8040c0:	d8800617 	ldw	r2,24(sp)
  8040c4:	d9014817 	ldw	r4,1312(sp)
  8040c8:	11015c0e 	bge	r2,r4,80463c <___vfprintf_internal_r+0xe80>
  8040cc:	dc400e17 	ldw	r17,56(sp)
  8040d0:	d9814a17 	ldw	r6,1320(sp)
  8040d4:	00800044 	movi	r2,1
  8040d8:	94800044 	addi	r18,r18,1
  8040dc:	8c400044 	addi	r17,r17,1
  8040e0:	18800115 	stw	r2,4(r3)
  8040e4:	008001c4 	movi	r2,7
  8040e8:	19800015 	stw	r6,0(r3)
  8040ec:	dc800f15 	stw	r18,60(sp)
  8040f0:	dc400e15 	stw	r17,56(sp)
  8040f4:	14431016 	blt	r2,r17,804d38 <___vfprintf_internal_r+0x157c>
  8040f8:	18c00204 	addi	r3,r3,8
  8040fc:	d8814817 	ldw	r2,1312(sp)
  804100:	143fffc4 	addi	r16,r2,-1
  804104:	043f2b0e 	bge	zero,r16,803db4 <___vfprintf_internal_r+0x5f8>
  804108:	00800404 	movi	r2,16
  80410c:	1402a20e 	bge	r2,r16,804b98 <___vfprintf_internal_r+0x13dc>
  804110:	dc400e17 	ldw	r17,56(sp)
  804114:	1027883a 	mov	r19,r2
  804118:	07002074 	movhi	fp,129
  80411c:	e7053a04 	addi	fp,fp,5352
  804120:	050001c4 	movi	r20,7
  804124:	00000306 	br	804134 <___vfprintf_internal_r+0x978>
  804128:	18c00204 	addi	r3,r3,8
  80412c:	843ffc04 	addi	r16,r16,-16
  804130:	9c029c0e 	bge	r19,r16,804ba4 <___vfprintf_internal_r+0x13e8>
  804134:	94800404 	addi	r18,r18,16
  804138:	8c400044 	addi	r17,r17,1
  80413c:	1f000015 	stw	fp,0(r3)
  804140:	1cc00115 	stw	r19,4(r3)
  804144:	dc800f15 	stw	r18,60(sp)
  804148:	dc400e15 	stw	r17,56(sp)
  80414c:	a47ff60e 	bge	r20,r17,804128 <___vfprintf_internal_r+0x96c>
  804150:	d9015017 	ldw	r4,1344(sp)
  804154:	b00b883a 	mov	r5,r22
  804158:	d9800d04 	addi	r6,sp,52
  80415c:	08037640 	call	803764 <__sprint_r>
  804160:	103f4e1e 	bne	r2,zero,803e9c <___vfprintf_internal_r+0x6e0>
  804164:	dc800f17 	ldw	r18,60(sp)
  804168:	dc400e17 	ldw	r17,56(sp)
  80416c:	d8c01a04 	addi	r3,sp,104
  804170:	003fee06 	br	80412c <___vfprintf_internal_r+0x970>
  804174:	d8802d0b 	ldhu	r2,180(sp)
  804178:	00ffffc4 	movi	r3,-1
  80417c:	d8c14c15 	stw	r3,1328(sp)
  804180:	1080100c 	andi	r2,r2,64
  804184:	103dcc1e 	bne	r2,zero,8038b8 <___vfprintf_internal_r+0xfc>
  804188:	003dce06 	br	8038c4 <___vfprintf_internal_r+0x108>
  80418c:	d9015017 	ldw	r4,1344(sp)
  804190:	b00b883a 	mov	r5,r22
  804194:	d9800d04 	addi	r6,sp,52
  804198:	08037640 	call	803764 <__sprint_r>
  80419c:	103f3f1e 	bne	r2,zero,803e9c <___vfprintf_internal_r+0x6e0>
  8041a0:	dc800f17 	ldw	r18,60(sp)
  8041a4:	003f2e06 	br	803e60 <___vfprintf_internal_r+0x6a4>
  8041a8:	d9414d17 	ldw	r5,1332(sp)
  8041ac:	29400414 	ori	r5,r5,16
  8041b0:	d9414d15 	stw	r5,1332(sp)
  8041b4:	d9814d17 	ldw	r6,1332(sp)
  8041b8:	3080080c 	andi	r2,r6,32
  8041bc:	10014f1e 	bne	r2,zero,8046fc <___vfprintf_internal_r+0xf40>
  8041c0:	d8c14d17 	ldw	r3,1332(sp)
  8041c4:	1880040c 	andi	r2,r3,16
  8041c8:	1002ea1e 	bne	r2,zero,804d74 <___vfprintf_internal_r+0x15b8>
  8041cc:	d9014d17 	ldw	r4,1332(sp)
  8041d0:	2080100c 	andi	r2,r4,64
  8041d4:	1002e726 	beq	r2,zero,804d74 <___vfprintf_internal_r+0x15b8>
  8041d8:	3880000f 	ldh	r2,0(r7)
  8041dc:	39c00104 	addi	r7,r7,4
  8041e0:	d9c14115 	stw	r7,1284(sp)
  8041e4:	1023d7fa 	srai	r17,r2,31
  8041e8:	1021883a 	mov	r16,r2
  8041ec:	88037216 	blt	r17,zero,804fb8 <___vfprintf_internal_r+0x17fc>
  8041f0:	01000044 	movi	r4,1
  8041f4:	98000416 	blt	r19,zero,804208 <___vfprintf_internal_r+0xa4c>
  8041f8:	d8c14d17 	ldw	r3,1332(sp)
  8041fc:	00bfdfc4 	movi	r2,-129
  804200:	1886703a 	and	r3,r3,r2
  804204:	d8c14d15 	stw	r3,1332(sp)
  804208:	8444b03a 	or	r2,r16,r17
  80420c:	1002261e 	bne	r2,zero,804aa8 <___vfprintf_internal_r+0x12ec>
  804210:	9802251e 	bne	r19,zero,804aa8 <___vfprintf_internal_r+0x12ec>
  804214:	20803fcc 	andi	r2,r4,255
  804218:	10029b26 	beq	r2,zero,804c88 <___vfprintf_internal_r+0x14cc>
  80421c:	d8c01a04 	addi	r3,sp,104
  804220:	dd001004 	addi	r20,sp,64
  804224:	d8c14215 	stw	r3,1288(sp)
  804228:	d8c14217 	ldw	r3,1288(sp)
  80422c:	dcc14615 	stw	r19,1304(sp)
  804230:	a0c5c83a 	sub	r2,r20,r3
  804234:	11c00a04 	addi	r7,r2,40
  804238:	99c0010e 	bge	r19,r7,804240 <___vfprintf_internal_r+0xa84>
  80423c:	d9c14615 	stw	r7,1304(sp)
  804240:	dcc14715 	stw	r19,1308(sp)
  804244:	d8800407 	ldb	r2,16(sp)
  804248:	103e4c26 	beq	r2,zero,803b7c <___vfprintf_internal_r+0x3c0>
  80424c:	d8814617 	ldw	r2,1304(sp)
  804250:	10800044 	addi	r2,r2,1
  804254:	d8814615 	stw	r2,1304(sp)
  804258:	003e4806 	br	803b7c <___vfprintf_internal_r+0x3c0>
  80425c:	d9814d17 	ldw	r6,1332(sp)
  804260:	31800414 	ori	r6,r6,16
  804264:	d9814d15 	stw	r6,1332(sp)
  804268:	d8c14d17 	ldw	r3,1332(sp)
  80426c:	1880080c 	andi	r2,r3,32
  804270:	1001271e 	bne	r2,zero,804710 <___vfprintf_internal_r+0xf54>
  804274:	d9414d17 	ldw	r5,1332(sp)
  804278:	2880040c 	andi	r2,r5,16
  80427c:	1002b61e 	bne	r2,zero,804d58 <___vfprintf_internal_r+0x159c>
  804280:	d9814d17 	ldw	r6,1332(sp)
  804284:	3080100c 	andi	r2,r6,64
  804288:	1002b326 	beq	r2,zero,804d58 <___vfprintf_internal_r+0x159c>
  80428c:	3c00000b 	ldhu	r16,0(r7)
  804290:	0009883a 	mov	r4,zero
  804294:	39c00104 	addi	r7,r7,4
  804298:	0023883a 	mov	r17,zero
  80429c:	d9c14115 	stw	r7,1284(sp)
  8042a0:	d8000405 	stb	zero,16(sp)
  8042a4:	003fd306 	br	8041f4 <___vfprintf_internal_r+0xa38>
  8042a8:	d9014d17 	ldw	r4,1332(sp)
  8042ac:	21000414 	ori	r4,r4,16
  8042b0:	d9014d15 	stw	r4,1332(sp)
  8042b4:	d9414d17 	ldw	r5,1332(sp)
  8042b8:	2880080c 	andi	r2,r5,32
  8042bc:	1001081e 	bne	r2,zero,8046e0 <___vfprintf_internal_r+0xf24>
  8042c0:	d8c14d17 	ldw	r3,1332(sp)
  8042c4:	1880040c 	andi	r2,r3,16
  8042c8:	1002b01e 	bne	r2,zero,804d8c <___vfprintf_internal_r+0x15d0>
  8042cc:	d9014d17 	ldw	r4,1332(sp)
  8042d0:	2080100c 	andi	r2,r4,64
  8042d4:	1002ad26 	beq	r2,zero,804d8c <___vfprintf_internal_r+0x15d0>
  8042d8:	3c00000b 	ldhu	r16,0(r7)
  8042dc:	01000044 	movi	r4,1
  8042e0:	39c00104 	addi	r7,r7,4
  8042e4:	0023883a 	mov	r17,zero
  8042e8:	d9c14115 	stw	r7,1284(sp)
  8042ec:	d8000405 	stb	zero,16(sp)
  8042f0:	003fc006 	br	8041f4 <___vfprintf_internal_r+0xa38>
  8042f4:	d9015017 	ldw	r4,1344(sp)
  8042f8:	b00b883a 	mov	r5,r22
  8042fc:	d9800d04 	addi	r6,sp,52
  804300:	08037640 	call	803764 <__sprint_r>
  804304:	103ee51e 	bne	r2,zero,803e9c <___vfprintf_internal_r+0x6e0>
  804308:	dc800f17 	ldw	r18,60(sp)
  80430c:	d8c01a04 	addi	r3,sp,104
  804310:	d9814d17 	ldw	r6,1332(sp)
  804314:	3080004c 	andi	r2,r6,1
  804318:	1005003a 	cmpeq	r2,r2,zero
  80431c:	103ea51e 	bne	r2,zero,803db4 <___vfprintf_internal_r+0x5f8>
  804320:	00800044 	movi	r2,1
  804324:	dc400e17 	ldw	r17,56(sp)
  804328:	18800115 	stw	r2,4(r3)
  80432c:	d8814a17 	ldw	r2,1320(sp)
  804330:	94800044 	addi	r18,r18,1
  804334:	8c400044 	addi	r17,r17,1
  804338:	18800015 	stw	r2,0(r3)
  80433c:	008001c4 	movi	r2,7
  804340:	dc800f15 	stw	r18,60(sp)
  804344:	dc400e15 	stw	r17,56(sp)
  804348:	14421e0e 	bge	r2,r17,804bc4 <___vfprintf_internal_r+0x1408>
  80434c:	d9015017 	ldw	r4,1344(sp)
  804350:	b00b883a 	mov	r5,r22
  804354:	d9800d04 	addi	r6,sp,52
  804358:	08037640 	call	803764 <__sprint_r>
  80435c:	103ecf1e 	bne	r2,zero,803e9c <___vfprintf_internal_r+0x6e0>
  804360:	dc800f17 	ldw	r18,60(sp)
  804364:	d8c01a04 	addi	r3,sp,104
  804368:	003e9206 	br	803db4 <___vfprintf_internal_r+0x5f8>
  80436c:	d9015017 	ldw	r4,1344(sp)
  804370:	b00b883a 	mov	r5,r22
  804374:	d9800d04 	addi	r6,sp,52
  804378:	08037640 	call	803764 <__sprint_r>
  80437c:	103ec026 	beq	r2,zero,803e80 <___vfprintf_internal_r+0x6c4>
  804380:	003ec606 	br	803e9c <___vfprintf_internal_r+0x6e0>
  804384:	d9015017 	ldw	r4,1344(sp)
  804388:	b00b883a 	mov	r5,r22
  80438c:	d9800d04 	addi	r6,sp,52
  804390:	d9c15215 	stw	r7,1352(sp)
  804394:	08037640 	call	803764 <__sprint_r>
  804398:	d9c15217 	ldw	r7,1352(sp)
  80439c:	103ebf1e 	bne	r2,zero,803e9c <___vfprintf_internal_r+0x6e0>
  8043a0:	dc800f17 	ldw	r18,60(sp)
  8043a4:	dc400e17 	ldw	r17,56(sp)
  8043a8:	dd401a04 	addi	r21,sp,104
  8043ac:	003e7406 	br	803d80 <___vfprintf_internal_r+0x5c4>
  8043b0:	d9015017 	ldw	r4,1344(sp)
  8043b4:	b00b883a 	mov	r5,r22
  8043b8:	d9800d04 	addi	r6,sp,52
  8043bc:	d9c15215 	stw	r7,1352(sp)
  8043c0:	08037640 	call	803764 <__sprint_r>
  8043c4:	d9c15217 	ldw	r7,1352(sp)
  8043c8:	103eb41e 	bne	r2,zero,803e9c <___vfprintf_internal_r+0x6e0>
  8043cc:	dd401a04 	addi	r21,sp,104
  8043d0:	003d6d06 	br	803988 <___vfprintf_internal_r+0x1cc>
  8043d4:	d9015017 	ldw	r4,1344(sp)
  8043d8:	b00b883a 	mov	r5,r22
  8043dc:	d9800d04 	addi	r6,sp,52
  8043e0:	d9c15215 	stw	r7,1352(sp)
  8043e4:	08037640 	call	803764 <__sprint_r>
  8043e8:	d9c15217 	ldw	r7,1352(sp)
  8043ec:	103eab1e 	bne	r2,zero,803e9c <___vfprintf_internal_r+0x6e0>
  8043f0:	dc800f17 	ldw	r18,60(sp)
  8043f4:	dc400e17 	ldw	r17,56(sp)
  8043f8:	dd401a04 	addi	r21,sp,104
  8043fc:	003e3406 	br	803cd0 <___vfprintf_internal_r+0x514>
  804400:	d9015017 	ldw	r4,1344(sp)
  804404:	b00b883a 	mov	r5,r22
  804408:	d9800d04 	addi	r6,sp,52
  80440c:	d9c15215 	stw	r7,1352(sp)
  804410:	08037640 	call	803764 <__sprint_r>
  804414:	d9c15217 	ldw	r7,1352(sp)
  804418:	103ea01e 	bne	r2,zero,803e9c <___vfprintf_internal_r+0x6e0>
  80441c:	dc800f17 	ldw	r18,60(sp)
  804420:	dc400e17 	ldw	r17,56(sp)
  804424:	dd401a04 	addi	r21,sp,104
  804428:	003e1c06 	br	803c9c <___vfprintf_internal_r+0x4e0>
  80442c:	d9015017 	ldw	r4,1344(sp)
  804430:	b00b883a 	mov	r5,r22
  804434:	d9800d04 	addi	r6,sp,52
  804438:	d9c15215 	stw	r7,1352(sp)
  80443c:	08037640 	call	803764 <__sprint_r>
  804440:	d9c15217 	ldw	r7,1352(sp)
  804444:	103e951e 	bne	r2,zero,803e9c <___vfprintf_internal_r+0x6e0>
  804448:	dc800f17 	ldw	r18,60(sp)
  80444c:	dc400e17 	ldw	r17,56(sp)
  804450:	dd401a04 	addi	r21,sp,104
  804454:	003e0406 	br	803c68 <___vfprintf_internal_r+0x4ac>
  804458:	d9000617 	ldw	r4,24(sp)
  80445c:	0102520e 	bge	zero,r4,804da8 <___vfprintf_internal_r+0x15ec>
  804460:	d9814817 	ldw	r6,1312(sp)
  804464:	21807a16 	blt	r4,r6,804650 <___vfprintf_internal_r+0xe94>
  804468:	d8814217 	ldw	r2,1288(sp)
  80446c:	91a5883a 	add	r18,r18,r6
  804470:	8c400044 	addi	r17,r17,1
  804474:	a8800015 	stw	r2,0(r21)
  804478:	008001c4 	movi	r2,7
  80447c:	a9800115 	stw	r6,4(r21)
  804480:	dc800f15 	stw	r18,60(sp)
  804484:	dc400e15 	stw	r17,56(sp)
  804488:	1442f616 	blt	r2,r17,805064 <___vfprintf_internal_r+0x18a8>
  80448c:	a8c00204 	addi	r3,r21,8
  804490:	d9414817 	ldw	r5,1312(sp)
  804494:	2161c83a 	sub	r16,r4,r5
  804498:	043f9d0e 	bge	zero,r16,804310 <___vfprintf_internal_r+0xb54>
  80449c:	00800404 	movi	r2,16
  8044a0:	1402130e 	bge	r2,r16,804cf0 <___vfprintf_internal_r+0x1534>
  8044a4:	dc400e17 	ldw	r17,56(sp)
  8044a8:	1027883a 	mov	r19,r2
  8044ac:	07002074 	movhi	fp,129
  8044b0:	e7053a04 	addi	fp,fp,5352
  8044b4:	050001c4 	movi	r20,7
  8044b8:	00000306 	br	8044c8 <___vfprintf_internal_r+0xd0c>
  8044bc:	18c00204 	addi	r3,r3,8
  8044c0:	843ffc04 	addi	r16,r16,-16
  8044c4:	9c020d0e 	bge	r19,r16,804cfc <___vfprintf_internal_r+0x1540>
  8044c8:	94800404 	addi	r18,r18,16
  8044cc:	8c400044 	addi	r17,r17,1
  8044d0:	1f000015 	stw	fp,0(r3)
  8044d4:	1cc00115 	stw	r19,4(r3)
  8044d8:	dc800f15 	stw	r18,60(sp)
  8044dc:	dc400e15 	stw	r17,56(sp)
  8044e0:	a47ff60e 	bge	r20,r17,8044bc <___vfprintf_internal_r+0xd00>
  8044e4:	d9015017 	ldw	r4,1344(sp)
  8044e8:	b00b883a 	mov	r5,r22
  8044ec:	d9800d04 	addi	r6,sp,52
  8044f0:	08037640 	call	803764 <__sprint_r>
  8044f4:	103e691e 	bne	r2,zero,803e9c <___vfprintf_internal_r+0x6e0>
  8044f8:	dc800f17 	ldw	r18,60(sp)
  8044fc:	dc400e17 	ldw	r17,56(sp)
  804500:	d8c01a04 	addi	r3,sp,104
  804504:	003fee06 	br	8044c0 <___vfprintf_internal_r+0xd04>
  804508:	d8814817 	ldw	r2,1312(sp)
  80450c:	143fffc4 	addi	r16,r2,-1
  804510:	043e970e 	bge	zero,r16,803f70 <___vfprintf_internal_r+0x7b4>
  804514:	00800404 	movi	r2,16
  804518:	1400180e 	bge	r2,r16,80457c <___vfprintf_internal_r+0xdc0>
  80451c:	1029883a 	mov	r20,r2
  804520:	07002074 	movhi	fp,129
  804524:	e7053a04 	addi	fp,fp,5352
  804528:	054001c4 	movi	r21,7
  80452c:	00000306 	br	80453c <___vfprintf_internal_r+0xd80>
  804530:	9cc00204 	addi	r19,r19,8
  804534:	843ffc04 	addi	r16,r16,-16
  804538:	a400120e 	bge	r20,r16,804584 <___vfprintf_internal_r+0xdc8>
  80453c:	94800404 	addi	r18,r18,16
  804540:	8c400044 	addi	r17,r17,1
  804544:	9f000015 	stw	fp,0(r19)
  804548:	9d000115 	stw	r20,4(r19)
  80454c:	dc800f15 	stw	r18,60(sp)
  804550:	dc400e15 	stw	r17,56(sp)
  804554:	ac7ff60e 	bge	r21,r17,804530 <___vfprintf_internal_r+0xd74>
  804558:	d9015017 	ldw	r4,1344(sp)
  80455c:	b00b883a 	mov	r5,r22
  804560:	d9800d04 	addi	r6,sp,52
  804564:	08037640 	call	803764 <__sprint_r>
  804568:	103e4c1e 	bne	r2,zero,803e9c <___vfprintf_internal_r+0x6e0>
  80456c:	dc800f17 	ldw	r18,60(sp)
  804570:	dc400e17 	ldw	r17,56(sp)
  804574:	dcc01a04 	addi	r19,sp,104
  804578:	003fee06 	br	804534 <___vfprintf_internal_r+0xd78>
  80457c:	07002074 	movhi	fp,129
  804580:	e7053a04 	addi	fp,fp,5352
  804584:	9425883a 	add	r18,r18,r16
  804588:	8c400044 	addi	r17,r17,1
  80458c:	008001c4 	movi	r2,7
  804590:	9f000015 	stw	fp,0(r19)
  804594:	9c000115 	stw	r16,4(r19)
  804598:	dc800f15 	stw	r18,60(sp)
  80459c:	dc400e15 	stw	r17,56(sp)
  8045a0:	147e720e 	bge	r2,r17,803f6c <___vfprintf_internal_r+0x7b0>
  8045a4:	d9015017 	ldw	r4,1344(sp)
  8045a8:	b00b883a 	mov	r5,r22
  8045ac:	d9800d04 	addi	r6,sp,52
  8045b0:	08037640 	call	803764 <__sprint_r>
  8045b4:	103e391e 	bne	r2,zero,803e9c <___vfprintf_internal_r+0x6e0>
  8045b8:	dc800f17 	ldw	r18,60(sp)
  8045bc:	dc400e17 	ldw	r17,56(sp)
  8045c0:	dcc01a04 	addi	r19,sp,104
  8045c4:	003e6a06 	br	803f70 <___vfprintf_internal_r+0x7b4>
  8045c8:	d9015017 	ldw	r4,1344(sp)
  8045cc:	b00b883a 	mov	r5,r22
  8045d0:	d9800d04 	addi	r6,sp,52
  8045d4:	d9c15215 	stw	r7,1352(sp)
  8045d8:	08037640 	call	803764 <__sprint_r>
  8045dc:	d9c15217 	ldw	r7,1352(sp)
  8045e0:	103e2e1e 	bne	r2,zero,803e9c <___vfprintf_internal_r+0x6e0>
  8045e4:	dc800f17 	ldw	r18,60(sp)
  8045e8:	dc400e17 	ldw	r17,56(sp)
  8045ec:	dd401a04 	addi	r21,sp,104
  8045f0:	003dba06 	br	803cdc <___vfprintf_internal_r+0x520>
  8045f4:	d9015017 	ldw	r4,1344(sp)
  8045f8:	b00b883a 	mov	r5,r22
  8045fc:	d9800d04 	addi	r6,sp,52
  804600:	08037640 	call	803764 <__sprint_r>
  804604:	103e251e 	bne	r2,zero,803e9c <___vfprintf_internal_r+0x6e0>
  804608:	dc800f17 	ldw	r18,60(sp)
  80460c:	dc400e17 	ldw	r17,56(sp)
  804610:	dcc01a04 	addi	r19,sp,104
  804614:	003e4206 	br	803f20 <___vfprintf_internal_r+0x764>
  804618:	d9015017 	ldw	r4,1344(sp)
  80461c:	b00b883a 	mov	r5,r22
  804620:	d9800d04 	addi	r6,sp,52
  804624:	08037640 	call	803764 <__sprint_r>
  804628:	103e1c1e 	bne	r2,zero,803e9c <___vfprintf_internal_r+0x6e0>
  80462c:	dc800f17 	ldw	r18,60(sp)
  804630:	dc400e17 	ldw	r17,56(sp)
  804634:	d8c01a04 	addi	r3,sp,104
  804638:	003e2e06 	br	803ef4 <___vfprintf_internal_r+0x738>
  80463c:	d9414d17 	ldw	r5,1332(sp)
  804640:	2880004c 	andi	r2,r5,1
  804644:	1005003a 	cmpeq	r2,r2,zero
  804648:	103dda1e 	bne	r2,zero,803db4 <___vfprintf_internal_r+0x5f8>
  80464c:	003e9f06 	br	8040cc <___vfprintf_internal_r+0x910>
  804650:	d8c14217 	ldw	r3,1288(sp)
  804654:	9125883a 	add	r18,r18,r4
  804658:	8c400044 	addi	r17,r17,1
  80465c:	008001c4 	movi	r2,7
  804660:	a8c00015 	stw	r3,0(r21)
  804664:	a9000115 	stw	r4,4(r21)
  804668:	dc800f15 	stw	r18,60(sp)
  80466c:	dc400e15 	stw	r17,56(sp)
  804670:	14426616 	blt	r2,r17,80500c <___vfprintf_internal_r+0x1850>
  804674:	a8c00204 	addi	r3,r21,8
  804678:	d9414a17 	ldw	r5,1320(sp)
  80467c:	00800044 	movi	r2,1
  804680:	94800044 	addi	r18,r18,1
  804684:	8c400044 	addi	r17,r17,1
  804688:	18800115 	stw	r2,4(r3)
  80468c:	008001c4 	movi	r2,7
  804690:	19400015 	stw	r5,0(r3)
  804694:	dc800f15 	stw	r18,60(sp)
  804698:	dc400e15 	stw	r17,56(sp)
  80469c:	2021883a 	mov	r16,r4
  8046a0:	14425016 	blt	r2,r17,804fe4 <___vfprintf_internal_r+0x1828>
  8046a4:	19400204 	addi	r5,r3,8
  8046a8:	d9814817 	ldw	r6,1312(sp)
  8046ac:	8c400044 	addi	r17,r17,1
  8046b0:	dc400e15 	stw	r17,56(sp)
  8046b4:	3107c83a 	sub	r3,r6,r4
  8046b8:	d9014217 	ldw	r4,1288(sp)
  8046bc:	90e5883a 	add	r18,r18,r3
  8046c0:	28c00115 	stw	r3,4(r5)
  8046c4:	8105883a 	add	r2,r16,r4
  8046c8:	28800015 	stw	r2,0(r5)
  8046cc:	008001c4 	movi	r2,7
  8046d0:	dc800f15 	stw	r18,60(sp)
  8046d4:	147f1d16 	blt	r2,r17,80434c <___vfprintf_internal_r+0xb90>
  8046d8:	28c00204 	addi	r3,r5,8
  8046dc:	003db506 	br	803db4 <___vfprintf_internal_r+0x5f8>
  8046e0:	3c000017 	ldw	r16,0(r7)
  8046e4:	3c400117 	ldw	r17,4(r7)
  8046e8:	39800204 	addi	r6,r7,8
  8046ec:	01000044 	movi	r4,1
  8046f0:	d9814115 	stw	r6,1284(sp)
  8046f4:	d8000405 	stb	zero,16(sp)
  8046f8:	003ebe06 	br	8041f4 <___vfprintf_internal_r+0xa38>
  8046fc:	3c000017 	ldw	r16,0(r7)
  804700:	3c400117 	ldw	r17,4(r7)
  804704:	38800204 	addi	r2,r7,8
  804708:	d8814115 	stw	r2,1284(sp)
  80470c:	003eb706 	br	8041ec <___vfprintf_internal_r+0xa30>
  804710:	3c000017 	ldw	r16,0(r7)
  804714:	3c400117 	ldw	r17,4(r7)
  804718:	39000204 	addi	r4,r7,8
  80471c:	d9014115 	stw	r4,1284(sp)
  804720:	0009883a 	mov	r4,zero
  804724:	d8000405 	stb	zero,16(sp)
  804728:	003eb206 	br	8041f4 <___vfprintf_internal_r+0xa38>
  80472c:	38c00017 	ldw	r3,0(r7)
  804730:	39c00104 	addi	r7,r7,4
  804734:	d8c14b15 	stw	r3,1324(sp)
  804738:	1800d10e 	bge	r3,zero,804a80 <___vfprintf_internal_r+0x12c4>
  80473c:	00c7c83a 	sub	r3,zero,r3
  804740:	d8c14b15 	stw	r3,1324(sp)
  804744:	d9014d17 	ldw	r4,1332(sp)
  804748:	b8c00007 	ldb	r3,0(r23)
  80474c:	21000114 	ori	r4,r4,4
  804750:	d9014d15 	stw	r4,1332(sp)
  804754:	003c9806 	br	8039b8 <___vfprintf_internal_r+0x1fc>
  804758:	d9814d17 	ldw	r6,1332(sp)
  80475c:	3080080c 	andi	r2,r6,32
  804760:	1001f026 	beq	r2,zero,804f24 <___vfprintf_internal_r+0x1768>
  804764:	d9014c17 	ldw	r4,1328(sp)
  804768:	38800017 	ldw	r2,0(r7)
  80476c:	39c00104 	addi	r7,r7,4
  804770:	d9c14115 	stw	r7,1284(sp)
  804774:	2007d7fa 	srai	r3,r4,31
  804778:	d9c14117 	ldw	r7,1284(sp)
  80477c:	11000015 	stw	r4,0(r2)
  804780:	10c00115 	stw	r3,4(r2)
  804784:	003c6906 	br	80392c <___vfprintf_internal_r+0x170>
  804788:	b8c00007 	ldb	r3,0(r23)
  80478c:	00801b04 	movi	r2,108
  804790:	18824f26 	beq	r3,r2,8050d0 <___vfprintf_internal_r+0x1914>
  804794:	d9414d17 	ldw	r5,1332(sp)
  804798:	29400414 	ori	r5,r5,16
  80479c:	d9414d15 	stw	r5,1332(sp)
  8047a0:	003c8506 	br	8039b8 <___vfprintf_internal_r+0x1fc>
  8047a4:	d9814d17 	ldw	r6,1332(sp)
  8047a8:	b8c00007 	ldb	r3,0(r23)
  8047ac:	31800814 	ori	r6,r6,32
  8047b0:	d9814d15 	stw	r6,1332(sp)
  8047b4:	003c8006 	br	8039b8 <___vfprintf_internal_r+0x1fc>
  8047b8:	d8814d17 	ldw	r2,1332(sp)
  8047bc:	3c000017 	ldw	r16,0(r7)
  8047c0:	00c01e04 	movi	r3,120
  8047c4:	10800094 	ori	r2,r2,2
  8047c8:	d8814d15 	stw	r2,1332(sp)
  8047cc:	39c00104 	addi	r7,r7,4
  8047d0:	01402074 	movhi	r5,129
  8047d4:	29452204 	addi	r5,r5,5256
  8047d8:	00800c04 	movi	r2,48
  8047dc:	0023883a 	mov	r17,zero
  8047e0:	01000084 	movi	r4,2
  8047e4:	d9c14115 	stw	r7,1284(sp)
  8047e8:	d8c14e15 	stw	r3,1336(sp)
  8047ec:	d9414515 	stw	r5,1300(sp)
  8047f0:	d8800505 	stb	r2,20(sp)
  8047f4:	d8c00545 	stb	r3,21(sp)
  8047f8:	d8000405 	stb	zero,16(sp)
  8047fc:	003e7d06 	br	8041f4 <___vfprintf_internal_r+0xa38>
  804800:	d8814d17 	ldw	r2,1332(sp)
  804804:	b8c00007 	ldb	r3,0(r23)
  804808:	10801014 	ori	r2,r2,64
  80480c:	d8814d15 	stw	r2,1332(sp)
  804810:	003c6906 	br	8039b8 <___vfprintf_internal_r+0x1fc>
  804814:	d9414d17 	ldw	r5,1332(sp)
  804818:	2880020c 	andi	r2,r5,8
  80481c:	1001df26 	beq	r2,zero,804f9c <___vfprintf_internal_r+0x17e0>
  804820:	39800017 	ldw	r6,0(r7)
  804824:	38800204 	addi	r2,r7,8
  804828:	d8814115 	stw	r2,1284(sp)
  80482c:	d9814315 	stw	r6,1292(sp)
  804830:	39c00117 	ldw	r7,4(r7)
  804834:	d9c14415 	stw	r7,1296(sp)
  804838:	d9014317 	ldw	r4,1292(sp)
  80483c:	d9414417 	ldw	r5,1296(sp)
  804840:	080a15c0 	call	80a15c <__isinfd>
  804844:	10021726 	beq	r2,zero,8050a4 <___vfprintf_internal_r+0x18e8>
  804848:	d9014317 	ldw	r4,1292(sp)
  80484c:	d9414417 	ldw	r5,1296(sp)
  804850:	000d883a 	mov	r6,zero
  804854:	000f883a 	mov	r7,zero
  804858:	080c2180 	call	80c218 <__ltdf2>
  80485c:	1002ca16 	blt	r2,zero,805388 <___vfprintf_internal_r+0x1bcc>
  804860:	d9414e17 	ldw	r5,1336(sp)
  804864:	008011c4 	movi	r2,71
  804868:	11420a16 	blt	r2,r5,805094 <___vfprintf_internal_r+0x18d8>
  80486c:	01802074 	movhi	r6,129
  804870:	31852704 	addi	r6,r6,5276
  804874:	d9814215 	stw	r6,1288(sp)
  804878:	d9014d17 	ldw	r4,1332(sp)
  80487c:	00c000c4 	movi	r3,3
  804880:	00bfdfc4 	movi	r2,-129
  804884:	2088703a 	and	r4,r4,r2
  804888:	180f883a 	mov	r7,r3
  80488c:	d8c14615 	stw	r3,1304(sp)
  804890:	d9014d15 	stw	r4,1332(sp)
  804894:	d8014715 	stw	zero,1308(sp)
  804898:	003e6a06 	br	804244 <___vfprintf_internal_r+0xa88>
  80489c:	38800017 	ldw	r2,0(r7)
  8048a0:	00c00044 	movi	r3,1
  8048a4:	39c00104 	addi	r7,r7,4
  8048a8:	d9c14115 	stw	r7,1284(sp)
  8048ac:	d9001004 	addi	r4,sp,64
  8048b0:	180f883a 	mov	r7,r3
  8048b4:	d8c14615 	stw	r3,1304(sp)
  8048b8:	d9014215 	stw	r4,1288(sp)
  8048bc:	d8801005 	stb	r2,64(sp)
  8048c0:	d8000405 	stb	zero,16(sp)
  8048c4:	003cac06 	br	803b78 <___vfprintf_internal_r+0x3bc>
  8048c8:	01402074 	movhi	r5,129
  8048cc:	29452d04 	addi	r5,r5,5300
  8048d0:	d9414515 	stw	r5,1300(sp)
  8048d4:	d9814d17 	ldw	r6,1332(sp)
  8048d8:	3080080c 	andi	r2,r6,32
  8048dc:	1000f926 	beq	r2,zero,804cc4 <___vfprintf_internal_r+0x1508>
  8048e0:	3c000017 	ldw	r16,0(r7)
  8048e4:	3c400117 	ldw	r17,4(r7)
  8048e8:	38800204 	addi	r2,r7,8
  8048ec:	d8814115 	stw	r2,1284(sp)
  8048f0:	d9414d17 	ldw	r5,1332(sp)
  8048f4:	2880004c 	andi	r2,r5,1
  8048f8:	1005003a 	cmpeq	r2,r2,zero
  8048fc:	1000b31e 	bne	r2,zero,804bcc <___vfprintf_internal_r+0x1410>
  804900:	8444b03a 	or	r2,r16,r17
  804904:	1000b126 	beq	r2,zero,804bcc <___vfprintf_internal_r+0x1410>
  804908:	d9814e17 	ldw	r6,1336(sp)
  80490c:	29400094 	ori	r5,r5,2
  804910:	00800c04 	movi	r2,48
  804914:	01000084 	movi	r4,2
  804918:	d9414d15 	stw	r5,1332(sp)
  80491c:	d8800505 	stb	r2,20(sp)
  804920:	d9800545 	stb	r6,21(sp)
  804924:	d8000405 	stb	zero,16(sp)
  804928:	003e3206 	br	8041f4 <___vfprintf_internal_r+0xa38>
  80492c:	01802074 	movhi	r6,129
  804930:	31852204 	addi	r6,r6,5256
  804934:	d9814515 	stw	r6,1300(sp)
  804938:	003fe606 	br	8048d4 <___vfprintf_internal_r+0x1118>
  80493c:	00800ac4 	movi	r2,43
  804940:	d8800405 	stb	r2,16(sp)
  804944:	b8c00007 	ldb	r3,0(r23)
  804948:	003c1b06 	br	8039b8 <___vfprintf_internal_r+0x1fc>
  80494c:	d8814d17 	ldw	r2,1332(sp)
  804950:	b8c00007 	ldb	r3,0(r23)
  804954:	10800054 	ori	r2,r2,1
  804958:	d8814d15 	stw	r2,1332(sp)
  80495c:	003c1606 	br	8039b8 <___vfprintf_internal_r+0x1fc>
  804960:	d8800407 	ldb	r2,16(sp)
  804964:	1000461e 	bne	r2,zero,804a80 <___vfprintf_internal_r+0x12c4>
  804968:	00800804 	movi	r2,32
  80496c:	d8800405 	stb	r2,16(sp)
  804970:	b8c00007 	ldb	r3,0(r23)
  804974:	003c1006 	br	8039b8 <___vfprintf_internal_r+0x1fc>
  804978:	d9814d17 	ldw	r6,1332(sp)
  80497c:	b8c00007 	ldb	r3,0(r23)
  804980:	31800214 	ori	r6,r6,8
  804984:	d9814d15 	stw	r6,1332(sp)
  804988:	003c0b06 	br	8039b8 <___vfprintf_internal_r+0x1fc>
  80498c:	0007883a 	mov	r3,zero
  804990:	01000244 	movi	r4,9
  804994:	188002a4 	muli	r2,r3,10
  804998:	b8c00007 	ldb	r3,0(r23)
  80499c:	d9814e17 	ldw	r6,1336(sp)
  8049a0:	bdc00044 	addi	r23,r23,1
  8049a4:	d8c14e15 	stw	r3,1336(sp)
  8049a8:	d9414e17 	ldw	r5,1336(sp)
  8049ac:	3085883a 	add	r2,r6,r2
  8049b0:	10fff404 	addi	r3,r2,-48
  8049b4:	28bff404 	addi	r2,r5,-48
  8049b8:	20bff62e 	bgeu	r4,r2,804994 <___vfprintf_internal_r+0x11d8>
  8049bc:	d8c14b15 	stw	r3,1324(sp)
  8049c0:	003bff06 	br	8039c0 <___vfprintf_internal_r+0x204>
  8049c4:	d9414d17 	ldw	r5,1332(sp)
  8049c8:	b8c00007 	ldb	r3,0(r23)
  8049cc:	29402014 	ori	r5,r5,128
  8049d0:	d9414d15 	stw	r5,1332(sp)
  8049d4:	003bf806 	br	8039b8 <___vfprintf_internal_r+0x1fc>
  8049d8:	b8c00007 	ldb	r3,0(r23)
  8049dc:	00800a84 	movi	r2,42
  8049e0:	bdc00044 	addi	r23,r23,1
  8049e4:	18831526 	beq	r3,r2,80563c <___vfprintf_internal_r+0x1e80>
  8049e8:	d8c14e15 	stw	r3,1336(sp)
  8049ec:	18bff404 	addi	r2,r3,-48
  8049f0:	00c00244 	movi	r3,9
  8049f4:	18827836 	bltu	r3,r2,8053d8 <___vfprintf_internal_r+0x1c1c>
  8049f8:	000d883a 	mov	r6,zero
  8049fc:	308002a4 	muli	r2,r6,10
  804a00:	b9800007 	ldb	r6,0(r23)
  804a04:	d9414e17 	ldw	r5,1336(sp)
  804a08:	bdc00044 	addi	r23,r23,1
  804a0c:	d9814e15 	stw	r6,1336(sp)
  804a10:	d9014e17 	ldw	r4,1336(sp)
  804a14:	1145883a 	add	r2,r2,r5
  804a18:	11bff404 	addi	r6,r2,-48
  804a1c:	20bff404 	addi	r2,r4,-48
  804a20:	18bff62e 	bgeu	r3,r2,8049fc <___vfprintf_internal_r+0x1240>
  804a24:	3027883a 	mov	r19,r6
  804a28:	303be50e 	bge	r6,zero,8039c0 <___vfprintf_internal_r+0x204>
  804a2c:	04ffffc4 	movi	r19,-1
  804a30:	003be306 	br	8039c0 <___vfprintf_internal_r+0x204>
  804a34:	d8000405 	stb	zero,16(sp)
  804a38:	39800017 	ldw	r6,0(r7)
  804a3c:	39c00104 	addi	r7,r7,4
  804a40:	d9c14115 	stw	r7,1284(sp)
  804a44:	d9814215 	stw	r6,1288(sp)
  804a48:	3001c926 	beq	r6,zero,805170 <___vfprintf_internal_r+0x19b4>
  804a4c:	98000e16 	blt	r19,zero,804a88 <___vfprintf_internal_r+0x12cc>
  804a50:	d9014217 	ldw	r4,1288(sp)
  804a54:	000b883a 	mov	r5,zero
  804a58:	980d883a 	mov	r6,r19
  804a5c:	08088780 	call	808878 <memchr>
  804a60:	10025926 	beq	r2,zero,8053c8 <___vfprintf_internal_r+0x1c0c>
  804a64:	d8c14217 	ldw	r3,1288(sp)
  804a68:	10cfc83a 	sub	r7,r2,r3
  804a6c:	99c19e16 	blt	r19,r7,8050e8 <___vfprintf_internal_r+0x192c>
  804a70:	d9c14615 	stw	r7,1304(sp)
  804a74:	38000916 	blt	r7,zero,804a9c <___vfprintf_internal_r+0x12e0>
  804a78:	d8014715 	stw	zero,1308(sp)
  804a7c:	003df106 	br	804244 <___vfprintf_internal_r+0xa88>
  804a80:	b8c00007 	ldb	r3,0(r23)
  804a84:	003bcc06 	br	8039b8 <___vfprintf_internal_r+0x1fc>
  804a88:	d9014217 	ldw	r4,1288(sp)
  804a8c:	080a4440 	call	80a444 <strlen>
  804a90:	d8814615 	stw	r2,1304(sp)
  804a94:	100f883a 	mov	r7,r2
  804a98:	103ff70e 	bge	r2,zero,804a78 <___vfprintf_internal_r+0x12bc>
  804a9c:	d8014615 	stw	zero,1304(sp)
  804aa0:	d8014715 	stw	zero,1308(sp)
  804aa4:	003de706 	br	804244 <___vfprintf_internal_r+0xa88>
  804aa8:	20c03fcc 	andi	r3,r4,255
  804aac:	00800044 	movi	r2,1
  804ab0:	18802d26 	beq	r3,r2,804b68 <___vfprintf_internal_r+0x13ac>
  804ab4:	18800e36 	bltu	r3,r2,804af0 <___vfprintf_internal_r+0x1334>
  804ab8:	00800084 	movi	r2,2
  804abc:	1880fa26 	beq	r3,r2,804ea8 <___vfprintf_internal_r+0x16ec>
  804ac0:	01002074 	movhi	r4,129
  804ac4:	21053204 	addi	r4,r4,5320
  804ac8:	080a4440 	call	80a444 <strlen>
  804acc:	100f883a 	mov	r7,r2
  804ad0:	dcc14615 	stw	r19,1304(sp)
  804ad4:	9880010e 	bge	r19,r2,804adc <___vfprintf_internal_r+0x1320>
  804ad8:	d8814615 	stw	r2,1304(sp)
  804adc:	00802074 	movhi	r2,129
  804ae0:	10853204 	addi	r2,r2,5320
  804ae4:	dcc14715 	stw	r19,1308(sp)
  804ae8:	d8814215 	stw	r2,1288(sp)
  804aec:	003dd506 	br	804244 <___vfprintf_internal_r+0xa88>
  804af0:	d9401a04 	addi	r5,sp,104
  804af4:	dd001004 	addi	r20,sp,64
  804af8:	d9414215 	stw	r5,1288(sp)
  804afc:	880a977a 	slli	r5,r17,29
  804b00:	d9814217 	ldw	r6,1288(sp)
  804b04:	8004d0fa 	srli	r2,r16,3
  804b08:	8806d0fa 	srli	r3,r17,3
  804b0c:	810001cc 	andi	r4,r16,7
  804b10:	2884b03a 	or	r2,r5,r2
  804b14:	31bfffc4 	addi	r6,r6,-1
  804b18:	21000c04 	addi	r4,r4,48
  804b1c:	d9814215 	stw	r6,1288(sp)
  804b20:	10cab03a 	or	r5,r2,r3
  804b24:	31000005 	stb	r4,0(r6)
  804b28:	1021883a 	mov	r16,r2
  804b2c:	1823883a 	mov	r17,r3
  804b30:	283ff21e 	bne	r5,zero,804afc <___vfprintf_internal_r+0x1340>
  804b34:	d8c14d17 	ldw	r3,1332(sp)
  804b38:	1880004c 	andi	r2,r3,1
  804b3c:	1005003a 	cmpeq	r2,r2,zero
  804b40:	103db91e 	bne	r2,zero,804228 <___vfprintf_internal_r+0xa6c>
  804b44:	20803fcc 	andi	r2,r4,255
  804b48:	1080201c 	xori	r2,r2,128
  804b4c:	10bfe004 	addi	r2,r2,-128
  804b50:	00c00c04 	movi	r3,48
  804b54:	10fdb426 	beq	r2,r3,804228 <___vfprintf_internal_r+0xa6c>
  804b58:	31bfffc4 	addi	r6,r6,-1
  804b5c:	d9814215 	stw	r6,1288(sp)
  804b60:	30c00005 	stb	r3,0(r6)
  804b64:	003db006 	br	804228 <___vfprintf_internal_r+0xa6c>
  804b68:	88800068 	cmpgeui	r2,r17,1
  804b6c:	10002c1e 	bne	r2,zero,804c20 <___vfprintf_internal_r+0x1464>
  804b70:	8800021e 	bne	r17,zero,804b7c <___vfprintf_internal_r+0x13c0>
  804b74:	00800244 	movi	r2,9
  804b78:	14002936 	bltu	r2,r16,804c20 <___vfprintf_internal_r+0x1464>
  804b7c:	d90019c4 	addi	r4,sp,103
  804b80:	dd001004 	addi	r20,sp,64
  804b84:	d9014215 	stw	r4,1288(sp)
  804b88:	d9014217 	ldw	r4,1288(sp)
  804b8c:	80800c04 	addi	r2,r16,48
  804b90:	20800005 	stb	r2,0(r4)
  804b94:	003da406 	br	804228 <___vfprintf_internal_r+0xa6c>
  804b98:	dc400e17 	ldw	r17,56(sp)
  804b9c:	07002074 	movhi	fp,129
  804ba0:	e7053a04 	addi	fp,fp,5352
  804ba4:	9425883a 	add	r18,r18,r16
  804ba8:	8c400044 	addi	r17,r17,1
  804bac:	008001c4 	movi	r2,7
  804bb0:	1f000015 	stw	fp,0(r3)
  804bb4:	1c000115 	stw	r16,4(r3)
  804bb8:	dc800f15 	stw	r18,60(sp)
  804bbc:	dc400e15 	stw	r17,56(sp)
  804bc0:	147de216 	blt	r2,r17,80434c <___vfprintf_internal_r+0xb90>
  804bc4:	18c00204 	addi	r3,r3,8
  804bc8:	003c7a06 	br	803db4 <___vfprintf_internal_r+0x5f8>
  804bcc:	01000084 	movi	r4,2
  804bd0:	d8000405 	stb	zero,16(sp)
  804bd4:	003d8706 	br	8041f4 <___vfprintf_internal_r+0xa38>
  804bd8:	d9814d17 	ldw	r6,1332(sp)
